MODULE Linux x86_64 9E0C07C83022F7233EF70ECF14E8E00C0 AutomationStudio
INFO CODE_ID C8070C9E223023F73EF70ECF14E8E00CCD76B05C
FUNC 125b0 2c 0 Breakpad::DumpCallback(google_breakpad::MinidumpDescriptor const&, void*, bool)
FUNC 125dc 113 0 Breakpad::CrashHandlerPrivate::InitCrashHandler(QString const&)
FUNC 126f0 94 0 Breakpad::CrashHandler::instance()
FUNC 12784 31 0 Breakpad::CrashHandler::CrashHandler()
FUNC 127b6 36 0 Breakpad::CrashHandler::~CrashHandler()
FUNC 127ec 1d 0 Breakpad::CrashHandler::setReportCrashesToSystem(bool)
FUNC 1280a 95 0 Breakpad::CrashHandler::writeMinidump()
FUNC 128a0 29 0 Breakpad::CrashHandler::Init(QString const&)
FUNC 128ca 52 0 QMessageLogContext::QMessageLogContext(char const*, int, char const*, char const*)
FUNC 1291c 38 0 QMessageLogger::QMessageLogger(char const*, int, char const*)
FUNC 12954 14 0 std::operator&(std::memory_order, std::__memory_order_modifier)
FUNC 12968 43 0 QtPrivate::RefCount::deref()
FUNC 129ac 1c 0 QArrayData::data()
FUNC 129c8 14 0 QByteArray::length() const
FUNC 129dc 34 0 QByteArray::~QByteArray()
FUNC 12a10 1d 0 QByteArray::constData() const
FUNC 12a2e 84 0 QByteArray::toStdString[abi:cxx11]() const
FUNC 12ab2 29 0 QString::toUtf8() const &
FUNC 12adc 6b 0 QString::toStdString[abi:cxx11]() const
FUNC 12b48 3a 0 google_breakpad::MicrodumpExtraInfo::MicrodumpExtraInfo()
FUNC 12b82 c5 0 google_breakpad::MinidumpDescriptor::MinidumpDescriptor(std::__cxx11::basic_string<char, std::char_traits<char>, std::allocator<char> > const&)
FUNC 12c48 19 0 Breakpad::CrashHandlerPrivate::CrashHandlerPrivate()
FUNC 12c62 39 0 Breakpad::CrashHandlerPrivate::~CrashHandlerPrivate()
FUNC 12c9c 2f 0 google_breakpad::MinidumpDescriptor::~MinidumpDescriptor()
FUNC 12ccc 1a 0 QBasicAtomicInteger<int>::load() const
FUNC 12ce6 1a 0 QBasicAtomicInteger<int>::deref()
FUNC 12d00 25 0 QTypedArrayData<char>::deallocate(QArrayData*)
FUNC 12d26 1a 0 QTypedArrayData<char>::data()
FUNC 12d40 36 0 int QAtomicOps<int>::load<int>(std::atomic<int> const&)
FUNC 12d76 1f 0 bool QAtomicOps<int>::deref<int>(std::atomic<int>&)
FUNC 12d96 1f 0 std::__atomic_base<int>::operator--()
FUNC 12db6 49 0 sys_close
FUNC 12dff 59 0 sys_read
FUNC 12e58 5a 0 sys_sendmsg
FUNC 12eb2 4b 0 sys_pipe
FUNC 12efe 36 0 CrashGenerationClientImpl::CrashGenerationClientImpl
FUNC 12f34 29 0 CrashGenerationClientImpl::~CrashGenerationClientImpl
FUNC 12f5e 2b 0 CrashGenerationClientImpl::~CrashGenerationClientImpl
FUNC 12f8a 1b2 0 CrashGenerationClientImpl::RequestDump
FUNC 1313c 3d 0 google_breakpad::CrashGenerationClient::TryCreate(int)
FUNC 1317a 1d 0 google_breakpad::CrashGenerationClient::CrashGenerationClient()
FUNC 13198 1d 0 google_breakpad::CrashGenerationClient::~CrashGenerationClient()
FUNC 131b6 2b 0 google_breakpad::CrashGenerationClient::~CrashGenerationClient()
FUNC 131e2 cc 0 sys_clone
FUNC 132ae 49 0 sys_close
FUNC 132f7 3d 0 sys_getpid
FUNC 13334 3d 0 sys__gettid
FUNC 13371 53 0 sys_munmap
FUNC 133c4 72 0 sys_prctl
FUNC 13436 59 0 sys_read
FUNC 1348f 56 0 sys_sigaltstack
FUNC 134e5 58 0 sys_tgkill
FUNC 1353d 59 0 sys_write
FUNC 13596 68 0 sys_wait4
FUNC 135fe 8e 0 sys_mmap
FUNC 1368c 4b 0 sys_pipe
FUNC 136d7 22 0 sys_gettid
FUNC 136f9 2a 0 sys_waitpid
FUNC 13723 d9 0 InstallAlternateStackLocked
FUNC 137fc b1 0 RestoreAlternateStackLocked
FUNC 138ad 1d 0 InstallDefaultHandler
FUNC 138ca 22a 0 google_breakpad::ExceptionHandler::ExceptionHandler(google_breakpad::MinidumpDescriptor const&, bool (*)(void*), bool (*)(google_breakpad::MinidumpDescriptor const&, void*, bool), void*, bool, int)
FUNC 13af4 125 0 google_breakpad::ExceptionHandler::~ExceptionHandler()
FUNC 13c1a 15f 0 google_breakpad::ExceptionHandler::InstallHandlersLocked()
FUNC 13d7a ac 0 google_breakpad::ExceptionHandler::RestoreHandlersLocked()
FUNC 13e26 22b 0 google_breakpad::ExceptionHandler::SignalHandler(int, siginfo_t*, void*)
FUNC 14052 7c 0 google_breakpad::ExceptionHandler::ThreadEntry(void*)
FUNC 140ce 1ca 0 google_breakpad::ExceptionHandler::HandleSignal(int, siginfo_t*, void*)
FUNC 14298 6c 0 google_breakpad::ExceptionHandler::SimulateSignalDelivery(int)
FUNC 14304 39b 0 google_breakpad::ExceptionHandler::GenerateDump(google_breakpad::ExceptionHandler::CrashContext*)
FUNC 146a0 ac 0 google_breakpad::ExceptionHandler::SendContinueSignalToChild()
FUNC 1474c ac 0 google_breakpad::ExceptionHandler::WaitForContinueSignal()
FUNC 147f8 1bc 0 google_breakpad::ExceptionHandler::DoDump(int, void const*, unsigned long)
FUNC 149b4 e3 0 google_breakpad::ExceptionHandler::WriteMinidump(std::__cxx11::basic_string<char, std::char_traits<char>, std::allocator<char> > const&, bool (*)(google_breakpad::MinidumpDescriptor const&, void*, bool), void*)
FUNC 14a98 1aa 0 google_breakpad::ExceptionHandler::WriteMinidump()
FUNC 14c42 eb 0 google_breakpad::ExceptionHandler::AddMappingInfo(std::__cxx11::basic_string<char, std::char_traits<char>, std::allocator<char> > const&, unsigned char const*, unsigned long, unsigned long, unsigned long)
FUNC 14d2e b6 0 google_breakpad::ExceptionHandler::RegisterAppMemory(void*, unsigned long)
FUNC 14de4 b3 0 google_breakpad::ExceptionHandler::UnregisterAppMemory(void*)
FUNC 14e98 f8 0 google_breakpad::ExceptionHandler::WriteMinidumpForChild(int, int, std::__cxx11::basic_string<char, std::char_traits<char>, std::allocator<char> > const&, bool (*)(google_breakpad::MinidumpDescriptor const&, void*, bool), void*)
FUNC 14f90 16 0 google_breakpad::SetFirstChanceExceptionHandler(bool (*)(int, void*, void*))
FUNC 14fa6 12 0 operator new(unsigned long, void*)
FUNC 14fb8 16 0 google_breakpad::MinidumpDescriptor::IsFD() const
FUNC 14fce 11 0 google_breakpad::MinidumpDescriptor::fd() const
FUNC 14fe0 12 0 google_breakpad::MinidumpDescriptor::path() const
FUNC 14ff2 16 0 google_breakpad::MinidumpDescriptor::IsMicrodumpOnConsole() const
FUNC 15008 12 0 google_breakpad::MinidumpDescriptor::size_limit() const
FUNC 1501a 12 0 google_breakpad::MinidumpDescriptor::address_within_principal_mapping() const
FUNC 1502c 12 0 google_breakpad::MinidumpDescriptor::skip_dump_if_principal_mapping_not_referenced()
FUNC 1503e 12 0 google_breakpad::MinidumpDescriptor::sanitize_stacks() const
FUNC 15050 45 0 google_breakpad::MinidumpDescriptor::microdump_extra_info()
FUNC 15096 4e 0 google_breakpad::PageAllocator::PageAllocator()
FUNC 150e4 1b 0 google_breakpad::PageAllocator::~PageAllocator()
FUNC 15100 177 0 google_breakpad::PageAllocator::Alloc(unsigned long)
FUNC 15278 9d 0 google_breakpad::PageAllocator::GetNPages(unsigned long)
FUNC 15316 59 0 google_breakpad::PageAllocator::FreeAll()
FUNC 15370 1c 0 google_breakpad::AppMemory::operator==(void const*) const
FUNC 1538c 24 0 google_breakpad::ExceptionHandler::IsOutOfProcess() const
FUNC 153b0 1b 0 std::__cxx11::list<google_breakpad::MappingEntry, std::allocator<google_breakpad::MappingEntry> >::~list()
FUNC 153cc 1b 0 std::__cxx11::list<google_breakpad::AppMemory, std::allocator<google_breakpad::AppMemory> >::~list()
FUNC 153e8 54 0 google_breakpad::scoped_ptr<google_breakpad::CrashGenerationClient>::reset(google_breakpad::CrashGenerationClient*)
FUNC 1543c 11 0 google_breakpad::scoped_ptr<google_breakpad::CrashGenerationClient>::get() const
FUNC 1544e 1a 0 google_breakpad::scoped_ptr<google_breakpad::CrashGenerationClient>::scoped_ptr(google_breakpad::CrashGenerationClient*)
FUNC 15468 38 0 google_breakpad::scoped_ptr<google_breakpad::CrashGenerationClient>::~scoped_ptr()
FUNC 154a0 1b 0 std::__cxx11::list<google_breakpad::MappingEntry, std::allocator<google_breakpad::MappingEntry> >::list()
FUNC 154bc 1b 0 std::__cxx11::_List_base<google_breakpad::MappingEntry, std::allocator<google_breakpad::MappingEntry> >::_List_impl::~_List_impl()
FUNC 154d8 27 0 std::__cxx11::_List_base<google_breakpad::MappingEntry, std::allocator<google_breakpad::MappingEntry> >::~_List_base()
FUNC 15500 1b 0 std::__cxx11::list<google_breakpad::AppMemory, std::allocator<google_breakpad::AppMemory> >::list()
FUNC 1551c 1b 0 std::__cxx11::_List_base<google_breakpad::AppMemory, std::allocator<google_breakpad::AppMemory> >::_List_impl::~_List_impl()
FUNC 15538 27 0 std::__cxx11::_List_base<google_breakpad::AppMemory, std::allocator<google_breakpad::AppMemory> >::~_List_base()
FUNC 15560 1b 0 std::vector<google_breakpad::ExceptionHandler*, std::allocator<google_breakpad::ExceptionHandler*> >::vector()
FUNC 1557b e 0 std::remove_reference<google_breakpad::ExceptionHandler*&>::type&& std::move<google_breakpad::ExceptionHandler*&>(google_breakpad::ExceptionHandler*&)
FUNC 1558a 31 0 std::vector<google_breakpad::ExceptionHandler*, std::allocator<google_breakpad::ExceptionHandler*> >::push_back(google_breakpad::ExceptionHandler*&&)
FUNC 155bc 25 0 std::vector<google_breakpad::ExceptionHandler*, std::allocator<google_breakpad::ExceptionHandler*> >::begin()
FUNC 155e2 29 0 std::vector<google_breakpad::ExceptionHandler*, std::allocator<google_breakpad::ExceptionHandler*> >::end()
FUNC 1560b 38 0 __gnu_cxx::__normal_iterator<google_breakpad::ExceptionHandler**, std::vector<google_breakpad::ExceptionHandler*, std::allocator<google_breakpad::ExceptionHandler*> > > std::find<__gnu_cxx::__normal_iterator<google_breakpad::ExceptionHandler**, std::vector<google_breakpad::ExceptionHandler*, std::allocator<google_breakpad::ExceptionHandler*> > >, google_breakpad::ExceptionHandler*>(__gnu_cxx::__normal_iterator<google_breakpad::ExceptionHandler**, std::vector<google_breakpad::ExceptionHandler*, std::allocator<google_breakpad::ExceptionHandler*> > >, __gnu_cxx::__normal_iterator<google_breakpad::ExceptionHandler**, std::vector<google_breakpad::ExceptionHandler*, std::allocator<google_breakpad::ExceptionHandler*> > >, google_breakpad::ExceptionHandler* const&)
FUNC 15644 29 0 __gnu_cxx::__normal_iterator<google_breakpad::ExceptionHandler* const*, std::vector<google_breakpad::ExceptionHandler*, std::allocator<google_breakpad::ExceptionHandler*> > >::__normal_iterator<google_breakpad::ExceptionHandler**>(__gnu_cxx::__normal_iterator<google_breakpad::ExceptionHandler**, __gnu_cxx::__enable_if<std::__are_same<google_breakpad::ExceptionHandler**, google_breakpad::ExceptionHandler**>::__value, std::vector<google_breakpad::ExceptionHandler*, std::allocator<google_breakpad::ExceptionHandler*> > >::__type> const&)
FUNC 1566e 6f 0 std::vector<google_breakpad::ExceptionHandler*, std::allocator<google_breakpad::ExceptionHandler*> >::erase(__gnu_cxx::__normal_iterator<google_breakpad::ExceptionHandler* const*, std::vector<google_breakpad::ExceptionHandler*, std::allocator<google_breakpad::ExceptionHandler*> > >)
FUNC 156de 41 0 std::vector<google_breakpad::ExceptionHandler*, std::allocator<google_breakpad::ExceptionHandler*> >::empty() const
FUNC 15720 44 0 std::vector<google_breakpad::ExceptionHandler*, std::allocator<google_breakpad::ExceptionHandler*> >::~vector()
FUNC 15764 26 0 std::vector<google_breakpad::ExceptionHandler*, std::allocator<google_breakpad::ExceptionHandler*> >::size() const
FUNC 1578a 20 0 std::vector<google_breakpad::ExceptionHandler*, std::allocator<google_breakpad::ExceptionHandler*> >::operator[](unsigned long)
FUNC 157aa 40 0 google_breakpad::scoped_ptr<google_breakpad::CrashGenerationClient>::operator->() const
FUNC 157ea b 0 void google_breakpad::ignore_result<int>(int const&)
FUNC 157f6 35 0 std::__cxx11::list<google_breakpad::MappingEntry, std::allocator<google_breakpad::MappingEntry> >::push_back(google_breakpad::MappingEntry const&)
FUNC 1582c 28 0 std::__cxx11::list<google_breakpad::AppMemory, std::allocator<google_breakpad::AppMemory> >::begin()
FUNC 15854 25 0 std::__cxx11::list<google_breakpad::AppMemory, std::allocator<google_breakpad::AppMemory> >::end()
FUNC 15879 38 0 std::_List_iterator<google_breakpad::AppMemory> std::find<std::_List_iterator<google_breakpad::AppMemory>, void*>(std::_List_iterator<google_breakpad::AppMemory>, std::_List_iterator<google_breakpad::AppMemory>, void* const&)
FUNC 158b2 22 0 std::_List_iterator<google_breakpad::AppMemory>::operator!=(std::_List_iterator<google_breakpad::AppMemory> const&) const
FUNC 158d4 35 0 std::__cxx11::list<google_breakpad::AppMemory, std::allocator<google_breakpad::AppMemory> >::push_back(google_breakpad::AppMemory const&)
FUNC 1590a 1d 0 std::_List_const_iterator<google_breakpad::AppMemory>::_List_const_iterator(std::_List_iterator<google_breakpad::AppMemory> const&)
FUNC 15928 4a 0 std::__cxx11::list<google_breakpad::AppMemory, std::allocator<google_breakpad::AppMemory> >::erase(std::_List_const_iterator<google_breakpad::AppMemory>)
FUNC 15972 27 0 std::__cxx11::_List_base<google_breakpad::MappingEntry, std::allocator<google_breakpad::MappingEntry> >::_List_base()
FUNC 1599a 1b 0 std::allocator<std::_List_node<google_breakpad::MappingEntry> >::~allocator()
FUNC 159b6 7a 0 std::__cxx11::_List_base<google_breakpad::MappingEntry, std::allocator<google_breakpad::MappingEntry> >::_M_clear()
FUNC 15a30 27 0 std::__cxx11::_List_base<google_breakpad::AppMemory, std::allocator<google_breakpad::AppMemory> >::_List_base()
FUNC 15a58 1b 0 std::allocator<std::_List_node<google_breakpad::AppMemory> >::~allocator()
FUNC 15a74 7a 0 std::__cxx11::_List_base<google_breakpad::AppMemory, std::allocator<google_breakpad::AppMemory> >::_M_clear()
FUNC 15aee 1b 0 std::_Vector_base<google_breakpad::ExceptionHandler*, std::allocator<google_breakpad::ExceptionHandler*> >::_Vector_impl::~_Vector_impl()
FUNC 15b0a 1b 0 std::_Vector_base<google_breakpad::ExceptionHandler*, std::allocator<google_breakpad::ExceptionHandler*> >::_Vector_base()
FUNC 15b26 50 0 std::_Vector_base<google_breakpad::ExceptionHandler*, std::allocator<google_breakpad::ExceptionHandler*> >::~_Vector_base()
FUNC 15b76 e 0 google_breakpad::ExceptionHandler*&& std::forward<google_breakpad::ExceptionHandler*>(std::remove_reference<google_breakpad::ExceptionHandler*>::type&)
FUNC 15b84 82 0 void std::vector<google_breakpad::ExceptionHandler*, std::allocator<google_breakpad::ExceptionHandler*> >::emplace_back<google_breakpad::ExceptionHandler*>(google_breakpad::ExceptionHandler*&&)
FUNC 15c06 1d 0 __gnu_cxx::__normal_iterator<google_breakpad::ExceptionHandler**, std::vector<google_breakpad::ExceptionHandler*, std::allocator<google_breakpad::ExceptionHandler*> > >::__normal_iterator(google_breakpad::ExceptionHandler** const&)
FUNC 15c23 25 0 __gnu_cxx::__ops::_Iter_equals_val<google_breakpad::ExceptionHandler* const> __gnu_cxx::__ops::__iter_equals_val<google_breakpad::ExceptionHandler* const>(google_breakpad::ExceptionHandler* const&)
FUNC 15c48 47 0 __gnu_cxx::__normal_iterator<google_breakpad::ExceptionHandler**, std::vector<google_breakpad::ExceptionHandler*, std::allocator<google_breakpad::ExceptionHandler*> > > std::__find_if<__gnu_cxx::__normal_iterator<google_breakpad::ExceptionHandler**, std::vector<google_breakpad::ExceptionHandler*, std::allocator<google_breakpad::ExceptionHandler*> > >, __gnu_cxx::__ops::_Iter_equals_val<google_breakpad::ExceptionHandler* const> >(__gnu_cxx::__normal_iterator<google_breakpad::ExceptionHandler**, std::vector<google_breakpad::ExceptionHandler*, std::allocator<google_breakpad::ExceptionHandler*> > >, __gnu_cxx::__normal_iterator<google_breakpad::ExceptionHandler**, std::vector<google_breakpad::ExceptionHandler*, std::allocator<google_breakpad::ExceptionHandler*> > >, __gnu_cxx::__ops::_Iter_equals_val<google_breakpad::ExceptionHandler* const>)
FUNC 15c90 e 0 __gnu_cxx::__normal_iterator<google_breakpad::ExceptionHandler**, std::vector<google_breakpad::ExceptionHandler*, std::allocator<google_breakpad::ExceptionHandler*> > >::base() const
FUNC 15c9e 30 0 std::vector<google_breakpad::ExceptionHandler*, std::allocator<google_breakpad::ExceptionHandler*> >::cbegin() const
FUNC 15cce 43 0 __gnu_cxx::__normal_iterator<google_breakpad::ExceptionHandler* const*, std::vector<google_breakpad::ExceptionHandler*, std::allocator<google_breakpad::ExceptionHandler*> > >::difference_type __gnu_cxx::operator-<google_breakpad::ExceptionHandler* const*, std::vector<google_breakpad::ExceptionHandler*, std::allocator<google_breakpad::ExceptionHandler*> > >(__gnu_cxx::__normal_iterator<google_breakpad::ExceptionHandler* const*, std::vector<google_breakpad::ExceptionHandler*, std::allocator<google_breakpad::ExceptionHandler*> > > const&, __gnu_cxx::__normal_iterator<google_breakpad::ExceptionHandler* const*, std::vector<google_breakpad::ExceptionHandler*, std::allocator<google_breakpad::ExceptionHandler*> > > const&)
FUNC 15d12 3f 0 __gnu_cxx::__normal_iterator<google_breakpad::ExceptionHandler**, std::vector<google_breakpad::ExceptionHandler*, std::allocator<google_breakpad::ExceptionHandler*> > >::operator+(long) const
FUNC 15d52 b8 0 std::vector<google_breakpad::ExceptionHandler*, std::allocator<google_breakpad::ExceptionHandler*> >::_M_erase(__gnu_cxx::__normal_iterator<google_breakpad::ExceptionHandler**, std::vector<google_breakpad::ExceptionHandler*, std::allocator<google_breakpad::ExceptionHandler*> > >)
FUNC 15e0a 30 0 std::vector<google_breakpad::ExceptionHandler*, std::allocator<google_breakpad::ExceptionHandler*> >::begin() const
FUNC 15e3a 31 0 std::vector<google_breakpad::ExceptionHandler*, std::allocator<google_breakpad::ExceptionHandler*> >::end() const
FUNC 15e6b 3c 0 bool __gnu_cxx::operator==<google_breakpad::ExceptionHandler* const*, std::vector<google_breakpad::ExceptionHandler*, std::allocator<google_breakpad::ExceptionHandler*> > >(__gnu_cxx::__normal_iterator<google_breakpad::ExceptionHandler* const*, std::vector<google_breakpad::ExceptionHandler*, std::allocator<google_breakpad::ExceptionHandler*> > > const&, __gnu_cxx::__normal_iterator<google_breakpad::ExceptionHandler* const*, std::vector<google_breakpad::ExceptionHandler*, std::allocator<google_breakpad::ExceptionHandler*> > > const&)
FUNC 15ea8 e 0 std::_Vector_base<google_breakpad::ExceptionHandler*, std::allocator<google_breakpad::ExceptionHandler*> >::_M_get_Tp_allocator()
FUNC 15eb6 2a 0 void std::_Destroy<google_breakpad::ExceptionHandler**, google_breakpad::ExceptionHandler*>(google_breakpad::ExceptionHandler**, google_breakpad::ExceptionHandler**, std::allocator<google_breakpad::ExceptionHandler*>&)
FUNC 15ee0 25 0 std::__cxx11::list<google_breakpad::MappingEntry, std::allocator<google_breakpad::MappingEntry> >::end()
FUNC 15f05 e 0 google_breakpad::MappingEntry const& std::forward<google_breakpad::MappingEntry const&>(std::remove_reference<google_breakpad::MappingEntry const&>::type&)
FUNC 15f14 5d 0 void std::__cxx11::list<google_breakpad::MappingEntry, std::allocator<google_breakpad::MappingEntry> >::_M_insert<google_breakpad::MappingEntry const&>(std::_List_iterator<google_breakpad::MappingEntry>, google_breakpad::MappingEntry const&)
FUNC 15f72 1a 0 std::_List_iterator<google_breakpad::AppMemory>::_List_iterator(std::__detail::_List_node_base*)
FUNC 15f8c 25 0 __gnu_cxx::__ops::_Iter_equals_val<void* const> __gnu_cxx::__ops::__iter_equals_val<void* const>(void* const&)
FUNC 15fb1 47 0 std::_List_iterator<google_breakpad::AppMemory> std::__find_if<std::_List_iterator<google_breakpad::AppMemory>, __gnu_cxx::__ops::_Iter_equals_val<void* const> >(std::_List_iterator<google_breakpad::AppMemory>, std::_List_iterator<google_breakpad::AppMemory>, __gnu_cxx::__ops::_Iter_equals_val<void* const>)
FUNC 15ff8 e 0 google_breakpad::AppMemory const& std::forward<google_breakpad::AppMemory const&>(std::remove_reference<google_breakpad::AppMemory const&>::type&)
FUNC 16006 5d 0 void std::__cxx11::list<google_breakpad::AppMemory, std::allocator<google_breakpad::AppMemory> >::_M_insert<google_breakpad::AppMemory const&>(std::_List_iterator<google_breakpad::AppMemory>, google_breakpad::AppMemory const&)
FUNC 16064 77 0 std::__cxx11::list<google_breakpad::AppMemory, std::allocator<google_breakpad::AppMemory> >::_M_erase(std::_List_iterator<google_breakpad::AppMemory>)
FUNC 160dc 28 0 std::_List_const_iterator<google_breakpad::AppMemory>::_M_const_cast() const
FUNC 16104 36 0 std::__cxx11::_List_base<google_breakpad::MappingEntry, std::allocator<google_breakpad::MappingEntry> >::_List_impl::_List_impl()
FUNC 1613a 37 0 std::__cxx11::_List_base<google_breakpad::MappingEntry, std::allocator<google_breakpad::MappingEntry> >::_M_init()
FUNC 16172 b 0 __gnu_cxx::new_allocator<std::_List_node<google_breakpad::MappingEntry> >::~new_allocator()
FUNC 1617e 1e 0 std::_List_node<google_breakpad::MappingEntry>::_M_valptr()
FUNC 1619c e 0 std::__cxx11::_List_base<google_breakpad::MappingEntry, std::allocator<google_breakpad::MappingEntry> >::_M_get_Node_allocator()
FUNC 161aa 26 0 void std::allocator_traits<std::allocator<std::_List_node<google_breakpad::MappingEntry> > >::destroy<google_breakpad::MappingEntry>(std::allocator<std::_List_node<google_breakpad::MappingEntry> >&, google_breakpad::MappingEntry*)
FUNC 161d0 2b 0 std::__cxx11::_List_base<google_breakpad::MappingEntry, std::allocator<google_breakpad::MappingEntry> >::_M_put_node(std::_List_node<google_breakpad::MappingEntry>*)
FUNC 161fc 36 0 std::__cxx11::_List_base<google_breakpad::AppMemory, std::allocator<google_breakpad::AppMemory> >::_List_impl::_List_impl()
FUNC 16232 37 0 std::__cxx11::_List_base<google_breakpad::AppMemory, std::allocator<google_breakpad::AppMemory> >::_M_init()
FUNC 1626a b 0 __gnu_cxx::new_allocator<std::_List_node<google_breakpad::AppMemory> >::~new_allocator()
FUNC 16276 1e 0 std::_List_node<google_breakpad::AppMemory>::_M_valptr()
FUNC 16294 e 0 std::__cxx11::_List_base<google_breakpad::AppMemory, std::allocator<google_breakpad::AppMemory> >::_M_get_Node_allocator()
FUNC 162a2 26 0 void std::allocator_traits<std::allocator<std::_List_node<google_breakpad::AppMemory> > >::destroy<google_breakpad::AppMemory>(std::allocator<std::_List_node<google_breakpad::AppMemory> >&, google_breakpad::AppMemory*)
FUNC 162c8 2b 0 std::__cxx11::_List_base<google_breakpad::AppMemory, std::allocator<google_breakpad::AppMemory> >::_M_put_node(std::_List_node<google_breakpad::AppMemory>*)
FUNC 162f4 3e 0 std::_Vector_base<google_breakpad::ExceptionHandler*, std::allocator<google_breakpad::ExceptionHandler*> >::_Vector_impl::_Vector_impl()
FUNC 16332 1b 0 std::allocator<google_breakpad::ExceptionHandler*>::~allocator()
FUNC 1634e 35 0 std::_Vector_base<google_breakpad::ExceptionHandler*, std::allocator<google_breakpad::ExceptionHandler*> >::_M_deallocate(google_breakpad::ExceptionHandler**, unsigned long)
FUNC 16383 39 0 void std::allocator_traits<std::allocator<google_breakpad::ExceptionHandler*> >::construct<google_breakpad::ExceptionHandler*, google_breakpad::ExceptionHandler*>(std::allocator<google_breakpad::ExceptionHandler*>&, google_breakpad::ExceptionHandler**, google_breakpad::ExceptionHandler*&&)
FUNC 163bc 1ec 0 void std::vector<google_breakpad::ExceptionHandler*, std::allocator<google_breakpad::ExceptionHandler*> >::_M_emplace_back_aux<google_breakpad::ExceptionHandler*>(google_breakpad::ExceptionHandler*&&)
FUNC 165a8 1a 0 __gnu_cxx::__ops::_Iter_equals_val<google_breakpad::ExceptionHandler* const>::_Iter_equals_val(google_breakpad::ExceptionHandler* const&)
FUNC 165c2 a 0 std::iterator_traits<__gnu_cxx::__normal_iterator<google_breakpad::ExceptionHandler**, std::vector<google_breakpad::ExceptionHandler*, std::allocator<google_breakpad::ExceptionHandler*> > > >::iterator_category std::__iterator_category<__gnu_cxx::__normal_iterator<google_breakpad::ExceptionHandler**, std::vector<google_breakpad::ExceptionHandler*, std::allocator<google_breakpad::ExceptionHandler*> > > >(__gnu_cxx::__normal_iterator<google_breakpad::ExceptionHandler**, std::vector<google_breakpad::ExceptionHandler*, std::allocator<google_breakpad::ExceptionHandler*> > > const&)
FUNC 165cc 19c 0 __gnu_cxx::__normal_iterator<google_breakpad::ExceptionHandler**, std::vector<google_breakpad::ExceptionHandler*, std::allocator<google_breakpad::ExceptionHandler*> > > std::__find_if<__gnu_cxx::__normal_iterator<google_breakpad::ExceptionHandler**, std::vector<google_breakpad::ExceptionHandler*, std::allocator<google_breakpad::ExceptionHandler*> > >, __gnu_cxx::__ops::_Iter_equals_val<google_breakpad::ExceptionHandler* const> >(__gnu_cxx::__normal_iterator<google_breakpad::ExceptionHandler**, std::vector<google_breakpad::ExceptionHandler*, std::allocator<google_breakpad::ExceptionHandler*> > >, __gnu_cxx::__normal_iterator<google_breakpad::ExceptionHandler**, std::vector<google_breakpad::ExceptionHandler*, std::allocator<google_breakpad::ExceptionHandler*> > >, __gnu_cxx::__ops::_Iter_equals_val<google_breakpad::ExceptionHandler* const>, std::random_access_iterator_tag)
FUNC 16768 1d 0 __gnu_cxx::__normal_iterator<google_breakpad::ExceptionHandler* const*, std::vector<google_breakpad::ExceptionHandler*, std::allocator<google_breakpad::ExceptionHandler*> > >::__normal_iterator(google_breakpad::ExceptionHandler* const* const&)
FUNC 16786 e 0 __gnu_cxx::__normal_iterator<google_breakpad::ExceptionHandler* const*, std::vector<google_breakpad::ExceptionHandler*, std::allocator<google_breakpad::ExceptionHandler*> > >::base() const
FUNC 16794 3c 0 bool __gnu_cxx::operator!=<google_breakpad::ExceptionHandler**, std::vector<google_breakpad::ExceptionHandler*, std::allocator<google_breakpad::ExceptionHandler*> > >(__gnu_cxx::__normal_iterator<google_breakpad::ExceptionHandler**, std::vector<google_breakpad::ExceptionHandler*, std::allocator<google_breakpad::ExceptionHandler*> > > const&, __gnu_cxx::__normal_iterator<google_breakpad::ExceptionHandler**, std::vector<google_breakpad::ExceptionHandler*, std::allocator<google_breakpad::ExceptionHandler*> > > const&)
FUNC 167d0 4c 0 __gnu_cxx::__normal_iterator<google_breakpad::ExceptionHandler**, std::vector<google_breakpad::ExceptionHandler*, std::allocator<google_breakpad::ExceptionHandler*> > > std::move<__gnu_cxx::__normal_iterator<google_breakpad::ExceptionHandler**, std::vector<google_breakpad::ExceptionHandler*, std::allocator<google_breakpad::ExceptionHandler*> > >, __gnu_cxx::__normal_iterator<google_breakpad::ExceptionHandler**, std::vector<google_breakpad::ExceptionHandler*, std::allocator<google_breakpad::ExceptionHandler*> > > >(__gnu_cxx::__normal_iterator<google_breakpad::ExceptionHandler**, std::vector<google_breakpad::ExceptionHandler*, std::allocator<google_breakpad::ExceptionHandler*> > >, __gnu_cxx::__normal_iterator<google_breakpad::ExceptionHandler**, std::vector<google_breakpad::ExceptionHandler*, std::allocator<google_breakpad::ExceptionHandler*> > >, __gnu_cxx::__normal_iterator<google_breakpad::ExceptionHandler**, std::vector<google_breakpad::ExceptionHandler*, std::allocator<google_breakpad::ExceptionHandler*> > >)
FUNC 1681c 26 0 void std::allocator_traits<std::allocator<google_breakpad::ExceptionHandler*> >::destroy<google_breakpad::ExceptionHandler*>(std::allocator<google_breakpad::ExceptionHandler*>&, google_breakpad::ExceptionHandler**)
FUNC 16842 26 0 void std::_Destroy<google_breakpad::ExceptionHandler**>(google_breakpad::ExceptionHandler**, google_breakpad::ExceptionHandler**)
FUNC 16868 1a 0 std::_List_iterator<google_breakpad::MappingEntry>::_List_iterator(std::__detail::_List_node_base*)
FUNC 16882 bf 0 std::_List_node<google_breakpad::MappingEntry>* std::__cxx11::list<google_breakpad::MappingEntry, std::allocator<google_breakpad::MappingEntry> >::_M_create_node<google_breakpad::MappingEntry const&>(google_breakpad::MappingEntry const&)
FUNC 16942 2c 0 std::__cxx11::_List_base<google_breakpad::MappingEntry, std::allocator<google_breakpad::MappingEntry> >::_M_inc_size(unsigned long)
FUNC 1696e 1a 0 __gnu_cxx::__ops::_Iter_equals_val<void* const>::_Iter_equals_val(void* const&)
FUNC 16988 a 0 std::iterator_traits<std::_List_iterator<google_breakpad::AppMemory> >::iterator_category std::__iterator_category<std::_List_iterator<google_breakpad::AppMemory> >(std::_List_iterator<google_breakpad::AppMemory> const&)
FUNC 16992 69 0 std::_List_iterator<google_breakpad::AppMemory> std::__find_if<std::_List_iterator<google_breakpad::AppMemory>, __gnu_cxx::__ops::_Iter_equals_val<void* const> >(std::_List_iterator<google_breakpad::AppMemory>, std::_List_iterator<google_breakpad::AppMemory>, __gnu_cxx::__ops::_Iter_equals_val<void* const>, std::input_iterator_tag)
FUNC 169fc bf 0 std::_List_node<google_breakpad::AppMemory>* std::__cxx11::list<google_breakpad::AppMemory, std::allocator<google_breakpad::AppMemory> >::_M_create_node<google_breakpad::AppMemory const&>(google_breakpad::AppMemory const&)
FUNC 16abc 2c 0 std::__cxx11::_List_base<google_breakpad::AppMemory, std::allocator<google_breakpad::AppMemory> >::_M_inc_size(unsigned long)
FUNC 16ae8 29 0 std::__cxx11::_List_base<google_breakpad::AppMemory, std::allocator<google_breakpad::AppMemory> >::_M_dec_size(unsigned long)
FUNC 16b12 1b 0 std::allocator<std::_List_node<google_breakpad::MappingEntry> >::allocator()
FUNC 16b2e 29 0 std::__cxx11::_List_base<google_breakpad::MappingEntry, std::allocator<google_breakpad::MappingEntry> >::_M_set_size(unsigned long)
FUNC 16b58 1a 0 __gnu_cxx::__aligned_membuf<google_breakpad::MappingEntry>::_M_ptr()
FUNC 16b72 f 0 void __gnu_cxx::new_allocator<std::_List_node<google_breakpad::MappingEntry> >::destroy<google_breakpad::MappingEntry>(google_breakpad::MappingEntry*)
FUNC 16b81 2e 0 std::allocator_traits<std::allocator<std::_List_node<google_breakpad::MappingEntry> > >::deallocate(std::allocator<std::_List_node<google_breakpad::MappingEntry> >&, std::_List_node<google_breakpad::MappingEntry>*, unsigned long)
FUNC 16bb0 1b 0 std::allocator<std::_List_node<google_breakpad::AppMemory> >::allocator()
FUNC 16bcc 29 0 std::__cxx11::_List_base<google_breakpad::AppMemory, std::allocator<google_breakpad::AppMemory> >::_M_set_size(unsigned long)
FUNC 16bf6 1a 0 __gnu_cxx::__aligned_membuf<google_breakpad::AppMemory>::_M_ptr()
FUNC 16c10 f 0 void __gnu_cxx::new_allocator<std::_List_node<google_breakpad::AppMemory> >::destroy<google_breakpad::AppMemory>(google_breakpad::AppMemory*)
FUNC 16c1f 2e 0 std::allocator_traits<std::allocator<std::_List_node<google_breakpad::AppMemory> > >::deallocate(std::allocator<std::_List_node<google_breakpad::AppMemory> >&, std::_List_node<google_breakpad::AppMemory>*, unsigned long)
FUNC 16c4e 1b 0 std::allocator<google_breakpad::ExceptionHandler*>::allocator()
FUNC 16c6a b 0 __gnu_cxx::new_allocator<google_breakpad::ExceptionHandler*>::~new_allocator()
FUNC 16c75 2e 0 std::allocator_traits<std::allocator<google_breakpad::ExceptionHandler*> >::deallocate(std::allocator<google_breakpad::ExceptionHandler*>&, google_breakpad::ExceptionHandler**, unsigned long)
FUNC 16ca4 45 0 void __gnu_cxx::new_allocator<google_breakpad::ExceptionHandler*>::construct<google_breakpad::ExceptionHandler*, google_breakpad::ExceptionHandler*>(google_breakpad::ExceptionHandler**, google_breakpad::ExceptionHandler*&&)
FUNC 16ce9 2b 0 unsigned long const& std::max<unsigned long>(unsigned long const&, unsigned long const&)
FUNC 16d14 c9 0 std::vector<google_breakpad::ExceptionHandler*, std::allocator<google_breakpad::ExceptionHandler*> >::_M_check_len(unsigned long, char const*) const
FUNC 16dde 33 0 std::_Vector_base<google_breakpad::ExceptionHandler*, std::allocator<google_breakpad::ExceptionHandler*> >::_M_allocate(unsigned long)
FUNC 16e11 54 0 google_breakpad::ExceptionHandler** std::__uninitialized_move_if_noexcept_a<google_breakpad::ExceptionHandler**, google_breakpad::ExceptionHandler**, std::allocator<google_breakpad::ExceptionHandler*> >(google_breakpad::ExceptionHandler**, google_breakpad::ExceptionHandler**, google_breakpad::ExceptionHandler**, std::allocator<google_breakpad::ExceptionHandler*>&)
FUNC 16e65 43 0 __gnu_cxx::__normal_iterator<google_breakpad::ExceptionHandler**, std::vector<google_breakpad::ExceptionHandler*, std::allocator<google_breakpad::ExceptionHandler*> > >::difference_type __gnu_cxx::operator-<google_breakpad::ExceptionHandler**, std::vector<google_breakpad::ExceptionHandler*, std::allocator<google_breakpad::ExceptionHandler*> > >(__gnu_cxx::__normal_iterator<google_breakpad::ExceptionHandler**, std::vector<google_breakpad::ExceptionHandler*, std::allocator<google_breakpad::ExceptionHandler*> > > const&, __gnu_cxx::__normal_iterator<google_breakpad::ExceptionHandler**, std::vector<google_breakpad::ExceptionHandler*, std::allocator<google_breakpad::ExceptionHandler*> > > const&)
FUNC 16ea8 31 0 bool __gnu_cxx::__ops::_Iter_equals_val<google_breakpad::ExceptionHandler* const>::operator()<__gnu_cxx::__normal_iterator<google_breakpad::ExceptionHandler**, std::vector<google_breakpad::ExceptionHandler*, std::allocator<google_breakpad::ExceptionHandler*> > > >(__gnu_cxx::__normal_iterator<google_breakpad::ExceptionHandler**, std::vector<google_breakpad::ExceptionHandler*, std::allocator<google_breakpad::ExceptionHandler*> > >)
FUNC 16eda 20 0 __gnu_cxx::__normal_iterator<google_breakpad::ExceptionHandler**, std::vector<google_breakpad::ExceptionHandler*, std::allocator<google_breakpad::ExceptionHandler*> > >::operator++()
FUNC 16efa e 0 __gnu_cxx::__normal_iterator<google_breakpad::ExceptionHandler**, std::vector<google_breakpad::ExceptionHandler*, std::allocator<google_breakpad::ExceptionHandler*> > > std::__miter_base<__gnu_cxx::__normal_iterator<google_breakpad::ExceptionHandler**, std::vector<google_breakpad::ExceptionHandler*, std::allocator<google_breakpad::ExceptionHandler*> > > >(__gnu_cxx::__normal_iterator<google_breakpad::ExceptionHandler**, std::vector<google_breakpad::ExceptionHandler*, std::allocator<google_breakpad::ExceptionHandler*> > >)
FUNC 16f08 73 0 __gnu_cxx::__normal_iterator<google_breakpad::ExceptionHandler**, std::vector<google_breakpad::ExceptionHandler*, std::allocator<google_breakpad::ExceptionHandler*> > > std::__copy_move_a2<true, __gnu_cxx::__normal_iterator<google_breakpad::ExceptionHandler**, std::vector<google_breakpad::ExceptionHandler*, std::allocator<google_breakpad::ExceptionHandler*> > >, __gnu_cxx::__normal_iterator<google_breakpad::ExceptionHandler**, std::vector<google_breakpad::ExceptionHandler*, std::allocator<google_breakpad::ExceptionHandler*> > > >(__gnu_cxx::__normal_iterator<google_breakpad::ExceptionHandler**, std::vector<google_breakpad::ExceptionHandler*, std::allocator<google_breakpad::ExceptionHandler*> > >, __gnu_cxx::__normal_iterator<google_breakpad::ExceptionHandler**, std::vector<google_breakpad::ExceptionHandler*, std::allocator<google_breakpad::ExceptionHandler*> > >, __gnu_cxx::__normal_iterator<google_breakpad::ExceptionHandler**, std::vector<google_breakpad::ExceptionHandler*, std::allocator<google_breakpad::ExceptionHandler*> > >)
FUNC 16f7c f 0 void __gnu_cxx::new_allocator<google_breakpad::ExceptionHandler*>::destroy<google_breakpad::ExceptionHandler*>(google_breakpad::ExceptionHandler**)
FUNC 16f8b f 0 void std::_Destroy_aux<true>::__destroy<google_breakpad::ExceptionHandler**>(google_breakpad::ExceptionHandler**, google_breakpad::ExceptionHandler**)
FUNC 16f9a 1f 0 std::__cxx11::_List_base<google_breakpad::MappingEntry, std::allocator<google_breakpad::MappingEntry> >::_M_get_node()
FUNC 16fba 39 0 std::__allocated_ptr<std::allocator<std::_List_node<google_breakpad::MappingEntry> > >::__allocated_ptr(std::allocator<std::_List_node<google_breakpad::MappingEntry> >&, std::_List_node<google_breakpad::MappingEntry>*)
FUNC 16ff4 3b 0 std::__allocated_ptr<std::allocator<std::_List_node<google_breakpad::MappingEntry> > >::~__allocated_ptr()
FUNC 1702f 39 0 void std::allocator_traits<std::allocator<std::_List_node<google_breakpad::MappingEntry> > >::construct<google_breakpad::MappingEntry, google_breakpad::MappingEntry const&>(std::allocator<std::_List_node<google_breakpad::MappingEntry> >&, google_breakpad::MappingEntry*, google_breakpad::MappingEntry const&)
FUNC 17068 1e 0 std::__allocated_ptr<std::allocator<std::_List_node<google_breakpad::MappingEntry> > >::operator=(decltype(nullptr))
FUNC 17086 1e 0 std::_List_node<unsigned long>::_M_valptr()
FUNC 170a4 39 0 bool __gnu_cxx::__ops::_Iter_equals_val<void* const>::operator()<std::_List_iterator<google_breakpad::AppMemory> >(std::_List_iterator<google_breakpad::AppMemory>)
FUNC 170de 1f 0 std::_List_iterator<google_breakpad::AppMemory>::operator++()
FUNC 170fe 1f 0 std::__cxx11::_List_base<google_breakpad::AppMemory, std::allocator<google_breakpad::AppMemory> >::_M_get_node()
FUNC 1711e 39 0 std::__allocated_ptr<std::allocator<std::_List_node<google_breakpad::AppMemory> > >::__allocated_ptr(std::allocator<std::_List_node<google_breakpad::AppMemory> >&, std::_List_node<google_breakpad::AppMemory>*)
FUNC 17158 3b 0 std::__allocated_ptr<std::allocator<std::_List_node<google_breakpad::AppMemory> > >::~__allocated_ptr()
FUNC 17193 39 0 void std::allocator_traits<std::allocator<std::_List_node<google_breakpad::AppMemory> > >::construct<google_breakpad::AppMemory, google_breakpad::AppMemory const&>(std::allocator<std::_List_node<google_breakpad::AppMemory> >&, google_breakpad::AppMemory*, google_breakpad::AppMemory const&)
FUNC 171cc 1e 0 std::__allocated_ptr<std::allocator<std::_List_node<google_breakpad::AppMemory> > >::operator=(decltype(nullptr))
FUNC 171ea b 0 __gnu_cxx::new_allocator<std::_List_node<google_breakpad::MappingEntry> >::new_allocator()
FUNC 171f6 e 0 __gnu_cxx::__aligned_membuf<google_breakpad::MappingEntry>::_M_addr()
FUNC 17204 23 0 __gnu_cxx::new_allocator<std::_List_node<google_breakpad::MappingEntry> >::deallocate(std::_List_node<google_breakpad::MappingEntry>*, unsigned long)
FUNC 17228 b 0 __gnu_cxx::new_allocator<std::_List_node<google_breakpad::AppMemory> >::new_allocator()
FUNC 17234 e 0 __gnu_cxx::__aligned_membuf<google_breakpad::AppMemory>::_M_addr()
FUNC 17242 23 0 __gnu_cxx::new_allocator<std::_List_node<google_breakpad::AppMemory> >::deallocate(std::_List_node<google_breakpad::AppMemory>*, unsigned long)
FUNC 17266 b 0 __gnu_cxx::new_allocator<google_breakpad::ExceptionHandler*>::new_allocator()
FUNC 17272 23 0 __gnu_cxx::new_allocator<google_breakpad::ExceptionHandler*>::deallocate(google_breakpad::ExceptionHandler**, unsigned long)
FUNC 17296 22 0 std::vector<google_breakpad::ExceptionHandler*, std::allocator<google_breakpad::ExceptionHandler*> >::max_size() const
FUNC 172b8 2a 0 std::allocator_traits<std::allocator<google_breakpad::ExceptionHandler*> >::allocate(std::allocator<google_breakpad::ExceptionHandler*>&, unsigned long)
FUNC 172e2 25 0 std::move_iterator<google_breakpad::ExceptionHandler**> std::__make_move_if_noexcept_iterator<google_breakpad::ExceptionHandler*, std::move_iterator<google_breakpad::ExceptionHandler**> >(google_breakpad::ExceptionHandler**)
FUNC 17307 31 0 google_breakpad::ExceptionHandler** std::__uninitialized_copy_a<std::move_iterator<google_breakpad::ExceptionHandler**>, google_breakpad::ExceptionHandler**, google_breakpad::ExceptionHandler*>(std::move_iterator<google_breakpad::ExceptionHandler**>, std::move_iterator<google_breakpad::ExceptionHandler**>, google_breakpad::ExceptionHandler**, std::allocator<google_breakpad::ExceptionHandler*>&)
FUNC 17338 11 0 __gnu_cxx::__normal_iterator<google_breakpad::ExceptionHandler**, std::vector<google_breakpad::ExceptionHandler*, std::allocator<google_breakpad::ExceptionHandler*> > >::operator*() const
FUNC 17349 1d 0 google_breakpad::ExceptionHandler** std::__niter_base<google_breakpad::ExceptionHandler**, std::vector<google_breakpad::ExceptionHandler*, std::allocator<google_breakpad::ExceptionHandler*> > >(__gnu_cxx::__normal_iterator<google_breakpad::ExceptionHandler**, std::vector<google_breakpad::ExceptionHandler*, std::allocator<google_breakpad::ExceptionHandler*> > >)
FUNC 17366 31 0 google_breakpad::ExceptionHandler** std::__copy_move_a<true, google_breakpad::ExceptionHandler**, google_breakpad::ExceptionHandler**>(google_breakpad::ExceptionHandler**, google_breakpad::ExceptionHandler**, google_breakpad::ExceptionHandler**)
FUNC 17397 2a 0 std::allocator_traits<std::allocator<std::_List_node<google_breakpad::MappingEntry> > >::allocate(std::allocator<std::_List_node<google_breakpad::MappingEntry> >&, unsigned long)
FUNC 173c1 e 0 std::allocator<std::_List_node<google_breakpad::MappingEntry> >* std::__addressof<std::allocator<std::_List_node<google_breakpad::MappingEntry> > >(std::allocator<std::_List_node<google_breakpad::MappingEntry> >&)
FUNC 173d0 56 0 void __gnu_cxx::new_allocator<std::_List_node<google_breakpad::MappingEntry> >::construct<google_breakpad::MappingEntry, google_breakpad::MappingEntry const&>(google_breakpad::MappingEntry*, google_breakpad::MappingEntry const&)
FUNC 17426 1a 0 __gnu_cxx::__aligned_membuf<unsigned long>::_M_ptr()
FUNC 17440 1d 0 std::_List_iterator<google_breakpad::AppMemory>::operator*() const
FUNC 1745d 2a 0 std::allocator_traits<std::allocator<std::_List_node<google_breakpad::AppMemory> > >::allocate(std::allocator<std::_List_node<google_breakpad::AppMemory> >&, unsigned long)
FUNC 17487 e 0 std::allocator<std::_List_node<google_breakpad::AppMemory> >* std::__addressof<std::allocator<std::_List_node<google_breakpad::AppMemory> > >(std::allocator<std::_List_node<google_breakpad::AppMemory> >&)
FUNC 17496 53 0 void __gnu_cxx::new_allocator<std::_List_node<google_breakpad::AppMemory> >::construct<google_breakpad::AppMemory, google_breakpad::AppMemory const&>(google_breakpad::AppMemory*, google_breakpad::AppMemory const&)
FUNC 174e9 1a 0 std::allocator_traits<std::allocator<google_breakpad::ExceptionHandler*> >::max_size(std::allocator<google_breakpad::ExceptionHandler*> const&)
FUNC 17504 e 0 std::_Vector_base<google_breakpad::ExceptionHandler*, std::allocator<google_breakpad::ExceptionHandler*> >::_M_get_Tp_allocator() const
FUNC 17512 42 0 __gnu_cxx::new_allocator<google_breakpad::ExceptionHandler*>::allocate(unsigned long, void const*)
FUNC 17554 1a 0 std::move_iterator<google_breakpad::ExceptionHandler**>::move_iterator(google_breakpad::ExceptionHandler**)
FUNC 1756e 31 0 google_breakpad::ExceptionHandler** std::uninitialized_copy<std::move_iterator<google_breakpad::ExceptionHandler**>, google_breakpad::ExceptionHandler**>(std::move_iterator<google_breakpad::ExceptionHandler**>, std::move_iterator<google_breakpad::ExceptionHandler**>, google_breakpad::ExceptionHandler**)
FUNC 1759f 65 0 google_breakpad::ExceptionHandler** std::__copy_move<true, true, std::random_access_iterator_tag>::__copy_m<google_breakpad::ExceptionHandler*>(google_breakpad::ExceptionHandler* const*, google_breakpad::ExceptionHandler* const*, google_breakpad::ExceptionHandler**)
FUNC 17604 53 0 __gnu_cxx::new_allocator<std::_List_node<google_breakpad::MappingEntry> >::allocate(unsigned long, void const*)
FUNC 17658 e 0 __gnu_cxx::__aligned_membuf<unsigned long>::_M_addr()
FUNC 17666 42 0 __gnu_cxx::new_allocator<std::_List_node<google_breakpad::AppMemory> >::allocate(unsigned long, void const*)
FUNC 176a8 14 0 __gnu_cxx::new_allocator<google_breakpad::ExceptionHandler*>::max_size() const
FUNC 176bc 2d 0 google_breakpad::ExceptionHandler** std::__uninitialized_copy<true>::__uninit_copy<std::move_iterator<google_breakpad::ExceptionHandler**>, google_breakpad::ExceptionHandler**>(std::move_iterator<google_breakpad::ExceptionHandler**>, std::move_iterator<google_breakpad::ExceptionHandler**>, google_breakpad::ExceptionHandler**)
FUNC 176ea 14 0 __gnu_cxx::new_allocator<std::_List_node<google_breakpad::MappingEntry> >::max_size() const
FUNC 176fe 14 0 __gnu_cxx::new_allocator<std::_List_node<google_breakpad::AppMemory> >::max_size() const
FUNC 17712 4c 0 google_breakpad::ExceptionHandler** std::copy<std::move_iterator<google_breakpad::ExceptionHandler**>, google_breakpad::ExceptionHandler**>(std::move_iterator<google_breakpad::ExceptionHandler**>, std::move_iterator<google_breakpad::ExceptionHandler**>, google_breakpad::ExceptionHandler**)
FUNC 1775e 22 0 decltype (__miter_base(({parm#1}.base)())) std::__miter_base<google_breakpad::ExceptionHandler**>(std::move_iterator<google_breakpad::ExceptionHandler**>)
FUNC 17780 58 0 google_breakpad::ExceptionHandler** std::__copy_move_a2<true, google_breakpad::ExceptionHandler**, google_breakpad::ExceptionHandler**>(google_breakpad::ExceptionHandler**, google_breakpad::ExceptionHandler**, google_breakpad::ExceptionHandler**)
FUNC 177d8 11 0 std::move_iterator<google_breakpad::ExceptionHandler**>::base() const
FUNC 177e9 e 0 google_breakpad::ExceptionHandler** std::__miter_base<google_breakpad::ExceptionHandler**>(google_breakpad::ExceptionHandler**)
FUNC 177f7 e 0 google_breakpad::ExceptionHandler** std::__niter_base<google_breakpad::ExceptionHandler**>(google_breakpad::ExceptionHandler**)
FUNC 17806 103 0 google_breakpad::MinidumpDescriptor::MinidumpDescriptor(google_breakpad::MinidumpDescriptor const&)
FUNC 1790a 11f 0 google_breakpad::MinidumpDescriptor::operator=(google_breakpad::MinidumpDescriptor const&)
FUNC 17a2a 1bc 0 google_breakpad::MinidumpDescriptor::UpdatePath()
FUNC 17be6 62 0 std::__cxx11::basic_string<char, std::char_traits<char>, std::allocator<char> > std::operator+<char, std::char_traits<char>, std::allocator<char> >(std::__cxx11::basic_string<char, std::char_traits<char>, std::allocator<char> > const&, char const*)
FUNC 17c48 e 0 std::remove_reference<std::__cxx11::basic_string<char, std::char_traits<char>, std::allocator<char> >&>::type&& std::move<std::__cxx11::basic_string<char, std::char_traits<char>, std::allocator<char> >&>(std::__cxx11::basic_string<char, std::char_traits<char>, std::allocator<char> >&)
FUNC 17c56 47 0 std::__cxx11::basic_string<char, std::char_traits<char>, std::allocator<char> > std::operator+<char, std::char_traits<char>, std::allocator<char> >(std::__cxx11::basic_string<char, std::char_traits<char>, std::allocator<char> >&&, char const*)
FUNC 17c9e 49 0 sys_close
FUNC 17ce7 53 0 sys_munmap
FUNC 17d3a 5a 0 sys_open
FUNC 17d94 59 0 sys_read
FUNC 17ded 8e 0 sys_mmap
FUNC 17e7c 1b6 0 MinidumpWriter::MinidumpWriter
FUNC 18032 14c 0 MinidumpWriter::Init
FUNC 1817e 69 0 MinidumpWriter::~MinidumpWriter
FUNC 181e8 16f 0 MinidumpWriter::CrashingThreadReferencesPrincipalMapping
FUNC 18358 68a 0 MinidumpWriter::Dump
FUNC 189e2 2f1 0 MinidumpWriter::FillThreadStack
FUNC 18cd4 835 0 MinidumpWriter::WriteThreadListStream
FUNC 1950a 1ab 0 MinidumpWriter::WriteAppMemory
FUNC 196b5 4e 0 MinidumpWriter::ShouldIncludeMapping
FUNC 19704 e3 0 MinidumpWriter::HaveMappingInfo
FUNC 197e8 38c 0 MinidumpWriter::WriteMappings
FUNC 19b74 2dc 0 MinidumpWriter::FillRawModule
FUNC 19e50 167 0 MinidumpWriter::WriteMemoryListStream
FUNC 19fb8 169 0 MinidumpWriter::WriteExceptionStream
FUNC 1a122 f0 0 MinidumpWriter::WriteSystemInfoStream
FUNC 1a212 7b2 0 MinidumpWriter::WriteDSODebugStream
FUNC 1a9c4 1b 0 MinidumpWriter::set_minidump_size_limit
FUNC 1a9e0 35 0 MinidumpWriter::Alloc
FUNC 1aa16 1e 0 MinidumpWriter::GetCrashThread
FUNC 1aa34 2f 0 MinidumpWriter::NullifyDirectoryEntry
FUNC 1aa64 3a8 0 MinidumpWriter::WriteCPUInformation
FUNC 1ae0c 23c 0 MinidumpWriter::WriteFile
FUNC 1b048 1fc 0 MinidumpWriter::WriteOSInformation
FUNC 1b244 8c 0 MinidumpWriter::WriteProcFile
FUNC 1b2d0 1af 0 WriteMinidumpImpl
FUNC 1b47f db 0 google_breakpad::WriteMinidump(char const*, int, void const*, unsigned long, bool, unsigned long, bool)
FUNC 1b55a d8 0 google_breakpad::WriteMinidump(int, int, void const*, unsigned long, bool, unsigned long, bool)
FUNC 1b632 170 0 google_breakpad::WriteMinidump(char const*, int, int)
FUNC 1b7a2 73 0 google_breakpad::WriteMinidump(char const*, int, void const*, unsigned long, std::__cxx11::list<google_breakpad::MappingEntry, std::allocator<google_breakpad::MappingEntry> > const&, std::__cxx11::list<google_breakpad::AppMemory, std::allocator<google_breakpad::AppMemory> > const&, bool, unsigned long, bool)
FUNC 1b815 70 0 google_breakpad::WriteMinidump(int, int, void const*, unsigned long, std::__cxx11::list<google_breakpad::MappingEntry, std::allocator<google_breakpad::MappingEntry> > const&, std::__cxx11::list<google_breakpad::AppMemory, std::allocator<google_breakpad::AppMemory> > const&, bool, unsigned long, bool)
FUNC 1b885 68 0 google_breakpad::WriteMinidump(char const*, long, int, void const*, unsigned long, std::__cxx11::list<google_breakpad::MappingEntry, std::allocator<google_breakpad::MappingEntry> > const&, std::__cxx11::list<google_breakpad::AppMemory, std::allocator<google_breakpad::AppMemory> > const&, bool, unsigned long, bool)
FUNC 1b8ed 65 0 google_breakpad::WriteMinidump(int, long, int, void const*, unsigned long, std::__cxx11::list<google_breakpad::MappingEntry, std::allocator<google_breakpad::MappingEntry> > const&, std::__cxx11::list<google_breakpad::AppMemory, std::allocator<google_breakpad::AppMemory> > const&, bool, unsigned long, bool)
FUNC 1b952 d0 0 google_breakpad::WriteMinidump(char const*, std::__cxx11::list<google_breakpad::MappingEntry, std::allocator<google_breakpad::MappingEntry> > const&, std::__cxx11::list<google_breakpad::AppMemory, std::allocator<google_breakpad::AppMemory> > const&, google_breakpad::LinuxDumper*)
FUNC 1ba22 25 0 operator new(unsigned long, google_breakpad::PageAllocator&)
FUNC 1ba48 12 0 google_breakpad::LinuxDumper::threads()
FUNC 1ba5a 14 0 google_breakpad::LinuxDumper::mappings()
FUNC 1ba6e 14 0 google_breakpad::LinuxDumper::auxv()
FUNC 1ba82 12 0 google_breakpad::LinuxDumper::allocator()
FUNC 1ba94 12 0 google_breakpad::LinuxDumper::crash_address() const
FUNC 1baa6 1b 0 google_breakpad::LinuxDumper::set_crash_address(unsigned long)
FUNC 1bac2 11 0 google_breakpad::LinuxDumper::crash_signal() const
FUNC 1bad4 18 0 google_breakpad::LinuxDumper::set_crash_signal(int)
FUNC 1baec 11 0 google_breakpad::LinuxDumper::crash_signal_code() const
FUNC 1bafe 11 0 google_breakpad::LinuxDumper::crash_thread() const
FUNC 1bb10 18 0 google_breakpad::LinuxDumper::set_crash_thread(int)
FUNC 1bb28 11 0 google_breakpad::MinidumpFileWriter::position() const
FUNC 1bb3a 3f 0 google_breakpad::UntypedMDRVA::UntypedMDRVA(google_breakpad::MinidumpFileWriter*)
FUNC 1bb7a 11 0 google_breakpad::UntypedMDRVA::position() const
FUNC 1bb8c 23 0 google_breakpad::UntypedMDRVA::location() const
FUNC 1bbb0 31 0 google_breakpad::UntypedMDRVA::Copy(void const*, unsigned long)
FUNC 1bbe2 2a 0 google_breakpad::LineReader::LineReader(int)
FUNC 1bc0c 1a6 0 google_breakpad::LineReader::GetNextLine(char const**, unsigned int*)
FUNC 1bdb2 88 0 google_breakpad::LineReader::PopLine(unsigned int)
FUNC 1be3a 31 0 google_breakpad::ProcCpuInfoReader::ProcCpuInfoReader(int)
FUNC 1be6c 18a 0 google_breakpad::ProcCpuInfoReader::GetNextField(char const**)
FUNC 1bff6 5e 0 google_breakpad::ProcCpuInfoReader::GetValueAndLen(unsigned long*)
FUNC 1c054 1b 0 google_breakpad::wasteful_vector<MDMemoryDescriptor>::~wasteful_vector()
FUNC 1c06f 2b 0 unsigned long const& std::min<unsigned long>(unsigned long const&, unsigned long const&)
FUNC 1c09a 1b 0 google_breakpad::wasteful_vector<unsigned char>::~wasteful_vector()
FUNC 1c0b6 1b 0 google_breakpad::auto_wasteful_vector<unsigned char, 20u>::~auto_wasteful_vector()
FUNC 1c0d2 1b 0 google_breakpad::wasteful_vector<char>::~wasteful_vector()
FUNC 1c0ee 27 0 std::vector<int, google_breakpad::PageStdAllocator<int> >::size() const
FUNC 1c116 21 0 std::vector<int, google_breakpad::PageStdAllocator<int> >::operator[](unsigned long) const
FUNC 1c138 1b 0 google_breakpad::PageStdAllocator<MDMemoryDescriptor>::~PageStdAllocator()
FUNC 1c154 7b 0 google_breakpad::wasteful_vector<MDMemoryDescriptor>::wasteful_vector(google_breakpad::PageAllocator*, unsigned int)
FUNC 1c1d0 45 0 std::vector<MDMemoryDescriptor, google_breakpad::PageStdAllocator<MDMemoryDescriptor> >::~vector()
FUNC 1c216 52 0 google_breakpad::TypedMDRVA<MDRawDirectory>::TypedMDRVA(google_breakpad::MinidumpFileWriter*)
FUNC 1c268 27 0 google_breakpad::TypedMDRVA<MDRawDirectory>::~TypedMDRVA()
FUNC 1c290 55 0 google_breakpad::TypedMDRVA<MDRawHeader>::TypedMDRVA(google_breakpad::MinidumpFileWriter*)
FUNC 1c2e6 27 0 google_breakpad::TypedMDRVA<MDRawHeader>::~TypedMDRVA()
FUNC 1c30e 30 0 google_breakpad::TypedMDRVA<MDRawHeader>::Allocate()
FUNC 1c33e 64 0 google_breakpad::TypedMDRVA<MDRawDirectory>::AllocateArray(unsigned long)
FUNC 1c3a2 12 0 google_breakpad::TypedMDRVA<MDRawHeader>::get()
FUNC 1c3b4 7b 0 google_breakpad::TypedMDRVA<MDRawDirectory>::CopyIndex(unsigned int, MDRawDirectory*)
FUNC 1c42f e 0 MDMemoryDescriptor const& std::forward<MDMemoryDescriptor const&>(std::remove_reference<MDMemoryDescriptor const&>::type&)
FUNC 1c43e 6c 0 std::vector<MDMemoryDescriptor, google_breakpad::PageStdAllocator<MDMemoryDescriptor> >::push_back(MDMemoryDescriptor const&)
FUNC 1c4aa 3c 0 google_breakpad::TypedMDRVA<unsigned int>::TypedMDRVA(google_breakpad::MinidumpFileWriter*)
FUNC 1c4e6 27 0 google_breakpad::TypedMDRVA<unsigned int>::~TypedMDRVA()
FUNC 1c50e 71 0 google_breakpad::TypedMDRVA<unsigned int>::AllocateObjectAndArray(unsigned long, unsigned long)
FUNC 1c580 12 0 google_breakpad::TypedMDRVA<unsigned int>::get()
FUNC 1c592 27 0 std::vector<google_breakpad::MappingInfo*, google_breakpad::PageStdAllocator<google_breakpad::MappingInfo*> >::size() const
FUNC 1c5ba 21 0 std::vector<google_breakpad::MappingInfo*, google_breakpad::PageStdAllocator<google_breakpad::MappingInfo*> >::operator[](unsigned long) const
FUNC 1c5dc 4c 0 google_breakpad::TypedMDRVA<MDRawContextAMD64>::TypedMDRVA(google_breakpad::MinidumpFileWriter*)
FUNC 1c628 2a 0 google_breakpad::TypedMDRVA<MDRawContextAMD64>::~TypedMDRVA()
FUNC 1c652 33 0 google_breakpad::TypedMDRVA<MDRawContextAMD64>::Allocate()
FUNC 1c686 12 0 google_breakpad::TypedMDRVA<MDRawContextAMD64>::get()
FUNC 1c698 84 0 google_breakpad::TypedMDRVA<unsigned int>::CopyIndexAfterObject(unsigned int, void const*, unsigned long)
FUNC 1c71c 28 0 std::__cxx11::list<google_breakpad::AppMemory, std::allocator<google_breakpad::AppMemory> >::begin() const
FUNC 1c744 25 0 std::__cxx11::list<google_breakpad::AppMemory, std::allocator<google_breakpad::AppMemory> >::end() const
FUNC 1c76a 22 0 std::_List_const_iterator<google_breakpad::AppMemory>::operator!=(std::_List_const_iterator<google_breakpad::AppMemory> const&) const
FUNC 1c78c 1f 0 std::_List_const_iterator<google_breakpad::AppMemory>::operator++()
FUNC 1c7ac 1d 0 std::_List_const_iterator<google_breakpad::AppMemory>::operator->() const
FUNC 1c7ca 28 0 std::__cxx11::list<google_breakpad::MappingEntry, std::allocator<google_breakpad::MappingEntry> >::begin() const
FUNC 1c7f2 25 0 std::__cxx11::list<google_breakpad::MappingEntry, std::allocator<google_breakpad::MappingEntry> >::end() const
FUNC 1c818 22 0 std::_List_const_iterator<google_breakpad::MappingEntry>::operator!=(std::_List_const_iterator<google_breakpad::MappingEntry> const&) const
FUNC 1c83a 1f 0 std::_List_const_iterator<google_breakpad::MappingEntry>::operator++()
FUNC 1c85a 1d 0 std::_List_const_iterator<google_breakpad::MappingEntry>::operator->() const
FUNC 1c878 1a 0 std::__cxx11::list<google_breakpad::MappingEntry, std::allocator<google_breakpad::MappingEntry> >::size() const
FUNC 1c892 30 0 google_breakpad::TypedMDRVA<unsigned int>::Allocate()
FUNC 1c8c2 1b 0 google_breakpad::PageStdAllocator<unsigned char>::~PageStdAllocator()
FUNC 1c8de 81 0 google_breakpad::auto_wasteful_vector<unsigned char, 20u>::auto_wasteful_vector(google_breakpad::PageAllocator*)
FUNC 1c960 45 0 std::vector<unsigned char, google_breakpad::PageStdAllocator<unsigned char> >::~vector()
FUNC 1c9a6 29 0 std::vector<unsigned char, google_breakpad::PageStdAllocator<unsigned char> >::end()
FUNC 1c9d0 29 0 __gnu_cxx::__normal_iterator<unsigned char const*, std::vector<unsigned char, google_breakpad::PageStdAllocator<unsigned char> > >::__normal_iterator<unsigned char*>(__gnu_cxx::__normal_iterator<unsigned char*, __gnu_cxx::__enable_if<std::__are_same<unsigned char*, unsigned char*>::__value, std::vector<unsigned char, google_breakpad::PageStdAllocator<unsigned char> > >::__type> const&)
FUNC 1c9fa ac 0 __gnu_cxx::__normal_iterator<unsigned char*, std::vector<unsigned char, google_breakpad::PageStdAllocator<unsigned char> > > std::vector<unsigned char, google_breakpad::PageStdAllocator<unsigned char> >::insert<unsigned char const*, void>(__gnu_cxx::__normal_iterator<unsigned char const*, std::vector<unsigned char, google_breakpad::PageStdAllocator<unsigned char> > >, unsigned char const*, unsigned char const*)
FUNC 1caa6 41 0 std::vector<unsigned char, google_breakpad::PageStdAllocator<unsigned char> >::empty() const
FUNC 1cae8 23 0 std::vector<unsigned char, google_breakpad::PageStdAllocator<unsigned char> >::size() const
FUNC 1cb0c 1d 0 std::vector<unsigned char, google_breakpad::PageStdAllocator<unsigned char> >::operator[](unsigned long)
FUNC 1cb2a 27 0 std::vector<MDMemoryDescriptor, google_breakpad::PageStdAllocator<MDMemoryDescriptor> >::size() const
FUNC 1cb52 21 0 std::vector<MDMemoryDescriptor, google_breakpad::PageStdAllocator<MDMemoryDescriptor> >::operator[](unsigned long)
FUNC 1cb74 4c 0 google_breakpad::TypedMDRVA<MDRawExceptionStream>::TypedMDRVA(google_breakpad::MinidumpFileWriter*)
FUNC 1cbc0 2a 0 google_breakpad::TypedMDRVA<MDRawExceptionStream>::~TypedMDRVA()
FUNC 1cbea 33 0 google_breakpad::TypedMDRVA<MDRawExceptionStream>::Allocate()
FUNC 1cc1e 12 0 google_breakpad::TypedMDRVA<MDRawExceptionStream>::get()
FUNC 1cc30 49 0 google_breakpad::TypedMDRVA<MDRawSystemInfo>::TypedMDRVA(google_breakpad::MinidumpFileWriter*)
FUNC 1cc7a 27 0 google_breakpad::TypedMDRVA<MDRawSystemInfo>::~TypedMDRVA()
FUNC 1cca2 30 0 google_breakpad::TypedMDRVA<MDRawSystemInfo>::Allocate()
FUNC 1ccd2 12 0 google_breakpad::TypedMDRVA<MDRawSystemInfo>::get()
FUNC 1cce4 21 0 std::vector<unsigned long, google_breakpad::PageStdAllocator<unsigned long> >::operator[](unsigned long) const
FUNC 1cd06 54 0 google_breakpad::TypedMDRVA<MDRawLinkMap64>::TypedMDRVA(google_breakpad::MinidumpFileWriter*)
FUNC 1cd5a 27 0 google_breakpad::TypedMDRVA<MDRawLinkMap64>::~TypedMDRVA()
FUNC 1cd82 64 0 google_breakpad::TypedMDRVA<MDRawLinkMap64>::AllocateArray(unsigned long)
FUNC 1cde6 7b 0 google_breakpad::TypedMDRVA<MDRawLinkMap64>::CopyIndex(unsigned int, MDRawLinkMap64*)
FUNC 1ce62 76 0 google_breakpad::TypedMDRVA<MDRawDebug64>::TypedMDRVA(google_breakpad::MinidumpFileWriter*)
FUNC 1ced8 27 0 google_breakpad::TypedMDRVA<MDRawDebug64>::~TypedMDRVA()
FUNC 1cf00 71 0 google_breakpad::TypedMDRVA<MDRawDebug64>::AllocateObjectAndArray(unsigned long, unsigned long)
FUNC 1cf72 12 0 google_breakpad::TypedMDRVA<MDRawDebug64>::get()
FUNC 1cf84 1b 0 google_breakpad::PageStdAllocator<char>::~PageStdAllocator()
FUNC 1cfa0 7b 0 google_breakpad::wasteful_vector<char>::wasteful_vector(google_breakpad::PageAllocator*, unsigned int)
FUNC 1d01c 45 0 std::vector<char, google_breakpad::PageStdAllocator<char> >::~vector()
FUNC 1d062 89 0 std::vector<char, google_breakpad::PageStdAllocator<char> >::resize(unsigned long)
FUNC 1d0ec 1d 0 std::vector<char, google_breakpad::PageStdAllocator<char> >::operator[](unsigned long)
FUNC 1d10a 84 0 google_breakpad::TypedMDRVA<MDRawDebug64>::CopyIndexAfterObject(unsigned int, void const*, unsigned long)
FUNC 1d18e 42 0 google_breakpad::PageStdAllocator<MDMemoryDescriptor>::PageStdAllocator(google_breakpad::PageAllocator&)
FUNC 1d1d0 1b 0 std::allocator<MDMemoryDescriptor>::~allocator()
FUNC 1d1ec 26 0 std::vector<MDMemoryDescriptor, google_breakpad::PageStdAllocator<MDMemoryDescriptor> >::vector(google_breakpad::PageStdAllocator<MDMemoryDescriptor> const&)
FUNC 1d212 146 0 std::vector<MDMemoryDescriptor, google_breakpad::PageStdAllocator<MDMemoryDescriptor> >::reserve(unsigned long)
FUNC 1d358 1b 0 std::_Vector_base<MDMemoryDescriptor, google_breakpad::PageStdAllocator<MDMemoryDescriptor> >::_Vector_impl::~_Vector_impl()
FUNC 1d374 52 0 std::_Vector_base<MDMemoryDescriptor, google_breakpad::PageStdAllocator<MDMemoryDescriptor> >::~_Vector_base()
FUNC 1d3c6 e 0 std::_Vector_base<MDMemoryDescriptor, google_breakpad::PageStdAllocator<MDMemoryDescriptor> >::_M_get_Tp_allocator()
FUNC 1d3d4 46 0 void std::_Destroy<MDMemoryDescriptor*, google_breakpad::PageStdAllocator<MDMemoryDescriptor> >(MDMemoryDescriptor*, MDMemoryDescriptor*, google_breakpad::PageStdAllocator<MDMemoryDescriptor>&)
FUNC 1d41a 34 0 google_breakpad::TypedMDRVA<MDRawDirectory>::Flush()
FUNC 1d44e 34 0 google_breakpad::TypedMDRVA<MDRawHeader>::Flush()
FUNC 1d482 b 0 google_breakpad::minidump_size<MDRawHeader>::size()
FUNC 1d48d b 0 google_breakpad::minidump_size<MDRawDirectory>::size()
FUNC 1d498 39 0 decltype (_S_construct({parm#1}, {parm#2}, (forward<MDMemoryDescriptor const&>)({parm#3}))) std::allocator_traits<google_breakpad::PageStdAllocator<MDMemoryDescriptor> >::construct<MDMemoryDescriptor, MDMemoryDescriptor const&>(google_breakpad::PageStdAllocator<MDMemoryDescriptor>&, MDMemoryDescriptor*, MDMemoryDescriptor const&)
FUNC 1d4d2 1ee 0 void std::vector<MDMemoryDescriptor, google_breakpad::PageStdAllocator<MDMemoryDescriptor> >::_M_emplace_back_aux<MDMemoryDescriptor const&>(MDMemoryDescriptor const&)
FUNC 1d6c0 34 0 google_breakpad::TypedMDRVA<unsigned int>::Flush()
FUNC 1d6f4 b 0 google_breakpad::minidump_size<unsigned int>::size()
FUNC 1d700 34 0 google_breakpad::TypedMDRVA<MDRawContextAMD64>::Flush()
FUNC 1d734 b 0 google_breakpad::minidump_size<MDRawContextAMD64>::size()
FUNC 1d740 1a 0 std::_List_const_iterator<google_breakpad::AppMemory>::_List_const_iterator(std::__detail::_List_node_base const*)
FUNC 1d75a 1e 0 std::_List_node<google_breakpad::AppMemory>::_M_valptr() const
FUNC 1d778 1a 0 std::_List_const_iterator<google_breakpad::MappingEntry>::_List_const_iterator(std::__detail::_List_node_base const*)
FUNC 1d792 1e 0 std::_List_node<google_breakpad::MappingEntry>::_M_valptr() const
FUNC 1d7b0 1d 0 std::__cxx11::_List_base<google_breakpad::MappingEntry, std::allocator<google_breakpad::MappingEntry> >::_M_node_count() const
FUNC 1d7ce 4a 0 google_breakpad::PageStdAllocator<unsigned char>::PageStdAllocator(google_breakpad::PageAllocator&, unsigned char*, unsigned long)
FUNC 1d818 1b 0 std::allocator<unsigned char>::~allocator()
FUNC 1d834 26 0 std::allocator<unsigned char>::allocator(std::allocator<unsigned char> const&)
FUNC 1d85a 26 0 google_breakpad::wasteful_vector<unsigned char>::wasteful_vector(google_breakpad::PageStdAllocator<unsigned char>)
FUNC 1d880 137 0 std::vector<unsigned char, google_breakpad::PageStdAllocator<unsigned char> >::reserve(unsigned long)
FUNC 1d9b8 1b 0 std::_Vector_base<unsigned char, google_breakpad::PageStdAllocator<unsigned char> >::_Vector_impl::~_Vector_impl()
FUNC 1d9d4 4e 0 std::_Vector_base<unsigned char, google_breakpad::PageStdAllocator<unsigned char> >::~_Vector_base()
FUNC 1da22 e 0 std::_Vector_base<unsigned char, google_breakpad::PageStdAllocator<unsigned char> >::_M_get_Tp_allocator()
FUNC 1da30 46 0 void std::_Destroy<unsigned char*, google_breakpad::PageStdAllocator<unsigned char> >(unsigned char*, unsigned char*, google_breakpad::PageStdAllocator<unsigned char>&)
FUNC 1da76 1d 0 __gnu_cxx::__normal_iterator<unsigned char*, std::vector<unsigned char, google_breakpad::PageStdAllocator<unsigned char> > >::__normal_iterator(unsigned char* const&)
FUNC 1da94 e 0 __gnu_cxx::__normal_iterator<unsigned char*, std::vector<unsigned char, google_breakpad::PageStdAllocator<unsigned char> > >::base() const
FUNC 1daa2 31 0 std::vector<unsigned char, google_breakpad::PageStdAllocator<unsigned char> >::cbegin() const
FUNC 1dad3 3f 0 __gnu_cxx::__normal_iterator<unsigned char const*, std::vector<unsigned char, google_breakpad::PageStdAllocator<unsigned char> > >::difference_type __gnu_cxx::operator-<unsigned char const*, std::vector<unsigned char, google_breakpad::PageStdAllocator<unsigned char> > >(__gnu_cxx::__normal_iterator<unsigned char const*, std::vector<unsigned char, google_breakpad::PageStdAllocator<unsigned char> > > const&, __gnu_cxx::__normal_iterator<unsigned char const*, std::vector<unsigned char, google_breakpad::PageStdAllocator<unsigned char> > > const&)
FUNC 1db12 29 0 std::vector<unsigned char, google_breakpad::PageStdAllocator<unsigned char> >::begin()
FUNC 1db3c 3b 0 __gnu_cxx::__normal_iterator<unsigned char*, std::vector<unsigned char, google_breakpad::PageStdAllocator<unsigned char> > >::operator+(long) const
FUNC 1db78 3d 0 void std::vector<unsigned char, google_breakpad::PageStdAllocator<unsigned char> >::_M_insert_dispatch<unsigned char const*>(__gnu_cxx::__normal_iterator<unsigned char*, std::vector<unsigned char, google_breakpad::PageStdAllocator<unsigned char> > >, unsigned char const*, unsigned char const*, std::__false_type)
FUNC 1dbb6 31 0 std::vector<unsigned char, google_breakpad::PageStdAllocator<unsigned char> >::begin() const
FUNC 1dbe8 31 0 std::vector<unsigned char, google_breakpad::PageStdAllocator<unsigned char> >::end() const
FUNC 1dc19 3c 0 bool __gnu_cxx::operator==<unsigned char const*, std::vector<unsigned char, google_breakpad::PageStdAllocator<unsigned char> > >(__gnu_cxx::__normal_iterator<unsigned char const*, std::vector<unsigned char, google_breakpad::PageStdAllocator<unsigned char> > > const&, __gnu_cxx::__normal_iterator<unsigned char const*, std::vector<unsigned char, google_breakpad::PageStdAllocator<unsigned char> > > const&)
FUNC 1dc56 34 0 google_breakpad::TypedMDRVA<MDRawExceptionStream>::Flush()
FUNC 1dc8a b 0 google_breakpad::minidump_size<MDRawExceptionStream>::size()
FUNC 1dc96 34 0 google_breakpad::TypedMDRVA<MDRawSystemInfo>::Flush()
FUNC 1dcca b 0 google_breakpad::minidump_size<MDRawSystemInfo>::size()
FUNC 1dcd6 34 0 google_breakpad::TypedMDRVA<MDRawLinkMap64>::Flush()
FUNC 1dd0a b 0 google_breakpad::minidump_size<MDRawLinkMap64>::size()
FUNC 1dd16 34 0 google_breakpad::TypedMDRVA<MDRawDebug64>::Flush()
FUNC 1dd4a b 0 google_breakpad::minidump_size<MDRawDebug64>::size()
FUNC 1dd56 42 0 google_breakpad::PageStdAllocator<char>::PageStdAllocator(google_breakpad::PageAllocator&)
FUNC 1dd98 26 0 std::vector<char, google_breakpad::PageStdAllocator<char> >::vector(google_breakpad::PageStdAllocator<char> const&)
FUNC 1ddbe 137 0 std::vector<char, google_breakpad::PageStdAllocator<char> >::reserve(unsigned long)
FUNC 1def6 1b 0 std::_Vector_base<char, google_breakpad::PageStdAllocator<char> >::_Vector_impl::~_Vector_impl()
FUNC 1df12 4e 0 std::_Vector_base<char, google_breakpad::PageStdAllocator<char> >::~_Vector_base()
FUNC 1df60 e 0 std::_Vector_base<char, google_breakpad::PageStdAllocator<char> >::_M_get_Tp_allocator()
FUNC 1df6e 46 0 void std::_Destroy<char*, google_breakpad::PageStdAllocator<char> >(char*, char*, google_breakpad::PageStdAllocator<char>&)
FUNC 1dfb4 23 0 std::vector<char, google_breakpad::PageStdAllocator<char> >::size() const
FUNC 1dfd8 1fe 0 std::vector<char, google_breakpad::PageStdAllocator<char> >::_M_default_append(unsigned long)
FUNC 1e1d6 45 0 std::vector<char, google_breakpad::PageStdAllocator<char> >::_M_erase_at_end(char*)
FUNC 1e21c 1b 0 std::allocator<MDMemoryDescriptor>::allocator()
FUNC 1e238 b 0 __gnu_cxx::new_allocator<MDMemoryDescriptor>::~new_allocator()
FUNC 1e244 26 0 std::_Vector_base<MDMemoryDescriptor, google_breakpad::PageStdAllocator<MDMemoryDescriptor> >::_Vector_base(google_breakpad::PageStdAllocator<MDMemoryDescriptor> const&)
FUNC 1e26a 22 0 std::vector<MDMemoryDescriptor, google_breakpad::PageStdAllocator<MDMemoryDescriptor> >::max_size() const
FUNC 1e28c 27 0 std::vector<MDMemoryDescriptor, google_breakpad::PageStdAllocator<MDMemoryDescriptor> >::capacity() const
FUNC 1e2b3 25 0 std::move_iterator<MDMemoryDescriptor*> std::__make_move_if_noexcept_iterator<MDMemoryDescriptor, std::move_iterator<MDMemoryDescriptor*> >(MDMemoryDescriptor*)
FUNC 1e2d8 97 0 MDMemoryDescriptor* std::vector<MDMemoryDescriptor, google_breakpad::PageStdAllocator<MDMemoryDescriptor> >::_M_allocate_and_copy<std::move_iterator<MDMemoryDescriptor*> >(unsigned long, std::move_iterator<MDMemoryDescriptor*>, std::move_iterator<MDMemoryDescriptor*>)
FUNC 1e370 35 0 std::_Vector_base<MDMemoryDescriptor, google_breakpad::PageStdAllocator<MDMemoryDescriptor> >::_M_deallocate(MDMemoryDescriptor*, unsigned long)
FUNC 1e3a5 e 0 MDMemoryDescriptor* std::__addressof<MDMemoryDescriptor>(MDMemoryDescriptor&)
FUNC 1e3b3 2b 0 void std::allocator_traits<google_breakpad::PageStdAllocator<MDMemoryDescriptor> >::destroy<MDMemoryDescriptor>(google_breakpad::PageStdAllocator<MDMemoryDescriptor>&, MDMemoryDescriptor*)
FUNC 1e3de 39 0 std::enable_if<std::__and_<std::allocator_traits<google_breakpad::PageStdAllocator<MDMemoryDescriptor> >::__construct_helper<MDMemoryDescriptor, MDMemoryDescriptor const&>::type>::value, void>::type std::allocator_traits<google_breakpad::PageStdAllocator<MDMemoryDescriptor> >::_S_construct<MDMemoryDescriptor, MDMemoryDescriptor const&>(google_breakpad::PageStdAllocator<MDMemoryDescriptor>&, MDMemoryDescriptor*, MDMemoryDescriptor const&)
FUNC 1e418 c9 0 std::vector<MDMemoryDescriptor, google_breakpad::PageStdAllocator<MDMemoryDescriptor> >::_M_check_len(unsigned long, char const*) const
FUNC 1e4e2 33 0 std::_Vector_base<MDMemoryDescriptor, google_breakpad::PageStdAllocator<MDMemoryDescriptor> >::_M_allocate(unsigned long)
FUNC 1e515 54 0 MDMemoryDescriptor* std::__uninitialized_move_if_noexcept_a<MDMemoryDescriptor*, MDMemoryDescriptor*, google_breakpad::PageStdAllocator<MDMemoryDescriptor> >(MDMemoryDescriptor*, MDMemoryDescriptor*, MDMemoryDescriptor*, google_breakpad::PageStdAllocator<MDMemoryDescriptor>&)
FUNC 1e56a 1a 0 __gnu_cxx::__aligned_membuf<google_breakpad::AppMemory>::_M_ptr() const
FUNC 1e584 1a 0 __gnu_cxx::__aligned_membuf<google_breakpad::MappingEntry>::_M_ptr() const
FUNC 1e59e 1e 0 std::_List_node<unsigned long>::_M_valptr() const
FUNC 1e5bc 1b 0 std::allocator<unsigned char>::allocator()
FUNC 1e5d8 b 0 __gnu_cxx::new_allocator<unsigned char>::~new_allocator()
FUNC 1e5e4 f 0 __gnu_cxx::new_allocator<unsigned char>::new_allocator(__gnu_cxx::new_allocator<unsigned char> const&)
FUNC 1e5f4 26 0 std::vector<unsigned char, google_breakpad::PageStdAllocator<unsigned char> >::vector(google_breakpad::PageStdAllocator<unsigned char> const&)
FUNC 1e61a 22 0 std::vector<unsigned char, google_breakpad::PageStdAllocator<unsigned char> >::max_size() const
FUNC 1e63c 23 0 std::vector<unsigned char, google_breakpad::PageStdAllocator<unsigned char> >::capacity() const
FUNC 1e65f 25 0 std::move_iterator<unsigned char*> std::__make_move_if_noexcept_iterator<unsigned char, std::move_iterator<unsigned char*> >(unsigned char*)
FUNC 1e684 97 0 unsigned char* std::vector<unsigned char, google_breakpad::PageStdAllocator<unsigned char> >::_M_allocate_and_copy<std::move_iterator<unsigned char*> >(unsigned long, std::move_iterator<unsigned char*>, std::move_iterator<unsigned char*>)
FUNC 1e71c 35 0 std::_Vector_base<unsigned char, google_breakpad::PageStdAllocator<unsigned char> >::_M_deallocate(unsigned char*, unsigned long)
FUNC 1e751 e 0 unsigned char* std::__addressof<unsigned char>(unsigned char&)
FUNC 1e75f 2b 0 void std::allocator_traits<google_breakpad::PageStdAllocator<unsigned char> >::destroy<unsigned char>(google_breakpad::PageStdAllocator<unsigned char>&, unsigned char*)
FUNC 1e78a 1d 0 __gnu_cxx::__normal_iterator<unsigned char const*, std::vector<unsigned char, google_breakpad::PageStdAllocator<unsigned char> > >::__normal_iterator(unsigned char const* const&)
FUNC 1e7a8 e 0 __gnu_cxx::__normal_iterator<unsigned char const*, std::vector<unsigned char, google_breakpad::PageStdAllocator<unsigned char> > >::base() const
FUNC 1e7b6 3d2 0 void std::vector<unsigned char, google_breakpad::PageStdAllocator<unsigned char> >::_M_range_insert<unsigned char const*>(__gnu_cxx::__normal_iterator<unsigned char*, std::vector<unsigned char, google_breakpad::PageStdAllocator<unsigned char> > >, unsigned char const*, unsigned char const*, std::forward_iterator_tag)
FUNC 1eb88 26 0 std::_Vector_base<char, google_breakpad::PageStdAllocator<char> >::_Vector_base(google_breakpad::PageStdAllocator<char> const&)
FUNC 1ebae 22 0 std::vector<char, google_breakpad::PageStdAllocator<char> >::max_size() const
FUNC 1ebd0 23 0 std::vector<char, google_breakpad::PageStdAllocator<char> >::capacity() const
FUNC 1ebf3 25 0 std::move_iterator<char*> std::__make_move_if_noexcept_iterator<char, std::move_iterator<char*> >(char*)
FUNC 1ec18 97 0 char* std::vector<char, google_breakpad::PageStdAllocator<char> >::_M_allocate_and_copy<std::move_iterator<char*> >(unsigned long, std::move_iterator<char*>, std::move_iterator<char*>)
FUNC 1ecb0 35 0 std::_Vector_base<char, google_breakpad::PageStdAllocator<char> >::_M_deallocate(char*, unsigned long)
FUNC 1ece5 e 0 char* std::__addressof<char>(char&)
FUNC 1ecf3 2b 0 void std::allocator_traits<google_breakpad::PageStdAllocator<char> >::destroy<char>(google_breakpad::PageStdAllocator<char>&, char*)
FUNC 1ed1e 92 0 char* std::__uninitialized_default_n_a<char*, unsigned long, google_breakpad::PageStdAllocator<char> >(char*, unsigned long, google_breakpad::PageStdAllocator<char>&)
FUNC 1edb0 c9 0 std::vector<char, google_breakpad::PageStdAllocator<char> >::_M_check_len(unsigned long, char const*) const
FUNC 1ee7a 33 0 std::_Vector_base<char, google_breakpad::PageStdAllocator<char> >::_M_allocate(unsigned long)
FUNC 1eead 54 0 char* std::__uninitialized_move_if_noexcept_a<char*, char*, google_breakpad::PageStdAllocator<char> >(char*, char*, char*, google_breakpad::PageStdAllocator<char>&)
FUNC 1ef02 b 0 __gnu_cxx::new_allocator<MDMemoryDescriptor>::new_allocator()
FUNC 1ef0e 54 0 google_breakpad::PageStdAllocator<MDMemoryDescriptor>::PageStdAllocator(google_breakpad::PageStdAllocator<MDMemoryDescriptor> const&)
FUNC 1ef62 4a 0 std::_Vector_base<MDMemoryDescriptor, google_breakpad::PageStdAllocator<MDMemoryDescriptor> >::_Vector_impl::_Vector_impl(google_breakpad::PageStdAllocator<MDMemoryDescriptor> const&)
FUNC 1efac 1f 0 std::allocator_traits<google_breakpad::PageStdAllocator<MDMemoryDescriptor> >::max_size(google_breakpad::PageStdAllocator<MDMemoryDescriptor> const&)
FUNC 1efcc e 0 std::_Vector_base<MDMemoryDescriptor, google_breakpad::PageStdAllocator<MDMemoryDescriptor> >::_M_get_Tp_allocator() const
FUNC 1efda 1a 0 std::move_iterator<MDMemoryDescriptor*>::move_iterator(MDMemoryDescriptor*)
FUNC 1eff4 e 0 MDMemoryDescriptor&& std::forward<MDMemoryDescriptor>(std::remove_reference<MDMemoryDescriptor>::type&)
FUNC 1f002 bf 0 MDMemoryDescriptor* std::__uninitialized_copy_a<std::move_iterator<MDMemoryDescriptor*>, MDMemoryDescriptor*, google_breakpad::PageStdAllocator<MDMemoryDescriptor> >(std::move_iterator<MDMemoryDescriptor*>, std::move_iterator<MDMemoryDescriptor*>, MDMemoryDescriptor*, google_breakpad::PageStdAllocator<MDMemoryDescriptor>&)
FUNC 1f0c1 2e 0 std::allocator_traits<google_breakpad::PageStdAllocator<MDMemoryDescriptor> >::deallocate(google_breakpad::PageStdAllocator<MDMemoryDescriptor>&, MDMemoryDescriptor*, unsigned long)
FUNC 1f0ef 29 0 decltype (({parm#1}.destroy)({parm#2})) std::allocator_traits<google_breakpad::PageStdAllocator<MDMemoryDescriptor> >::_S_destroy<google_breakpad::PageStdAllocator<MDMemoryDescriptor>, MDMemoryDescriptor>(google_breakpad::PageStdAllocator<MDMemoryDescriptor>&, MDMemoryDescriptor*, int)
FUNC 1f118 53 0 void __gnu_cxx::new_allocator<MDMemoryDescriptor>::construct<MDMemoryDescriptor, MDMemoryDescriptor const&>(MDMemoryDescriptor*, MDMemoryDescriptor const&)
FUNC 1f16b 2a 0 std::allocator_traits<google_breakpad::PageStdAllocator<MDMemoryDescriptor> >::allocate(google_breakpad::PageStdAllocator<MDMemoryDescriptor>&, unsigned long)
FUNC 1f196 e 0 __gnu_cxx::__aligned_membuf<google_breakpad::AppMemory>::_M_addr() const
FUNC 1f1a4 e 0 __gnu_cxx::__aligned_membuf<google_breakpad::MappingEntry>::_M_addr() const
FUNC 1f1b2 1a 0 __gnu_cxx::__aligned_membuf<unsigned long>::_M_ptr() const
FUNC 1f1cc b 0 __gnu_cxx::new_allocator<unsigned char>::new_allocator()
FUNC 1f1d8 26 0 std::_Vector_base<unsigned char, google_breakpad::PageStdAllocator<unsigned char> >::_Vector_base(google_breakpad::PageStdAllocator<unsigned char> const&)
FUNC 1f1fe 1f 0 std::allocator_traits<google_breakpad::PageStdAllocator<unsigned char> >::max_size(google_breakpad::PageStdAllocator<unsigned char> const&)
FUNC 1f21e e 0 std::_Vector_base<unsigned char, google_breakpad::PageStdAllocator<unsigned char> >::_M_get_Tp_allocator() const
FUNC 1f22c 1a 0 std::move_iterator<unsigned char*>::move_iterator(unsigned char*)
FUNC 1f246 33 0 std::_Vector_base<unsigned char, google_breakpad::PageStdAllocator<unsigned char> >::_M_allocate(unsigned long)
FUNC 1f279 e 0 unsigned char&& std::forward<unsigned char>(std::remove_reference<unsigned char>::type&)
FUNC 1f287 bf 0 unsigned char* std::__uninitialized_copy_a<std::move_iterator<unsigned char*>, unsigned char*, google_breakpad::PageStdAllocator<unsigned char> >(std::move_iterator<unsigned char*>, std::move_iterator<unsigned char*>, unsigned char*, google_breakpad::PageStdAllocator<unsigned char>&)
FUNC 1f346 2e 0 std::allocator_traits<google_breakpad::PageStdAllocator<unsigned char> >::deallocate(google_breakpad::PageStdAllocator<unsigned char>&, unsigned char*, unsigned long)
FUNC 1f374 29 0 decltype (({parm#1}.destroy)({parm#2})) std::allocator_traits<google_breakpad::PageStdAllocator<unsigned char> >::_S_destroy<google_breakpad::PageStdAllocator<unsigned char>, unsigned char>(google_breakpad::PageStdAllocator<unsigned char>&, unsigned char*, int)
FUNC 1f39d 3f 0 std::iterator_traits<unsigned char const*>::difference_type std::distance<unsigned char const*>(unsigned char const*, unsigned char const*)
FUNC 1f3dc 3f 0 __gnu_cxx::__normal_iterator<unsigned char*, std::vector<unsigned char, google_breakpad::PageStdAllocator<unsigned char> > >::difference_type __gnu_cxx::operator-<unsigned char*, std::vector<unsigned char, google_breakpad::PageStdAllocator<unsigned char> > >(__gnu_cxx::__normal_iterator<unsigned char*, std::vector<unsigned char, google_breakpad::PageStdAllocator<unsigned char> > > const&, __gnu_cxx::__normal_iterator<unsigned char*, std::vector<unsigned char, google_breakpad::PageStdAllocator<unsigned char> > > const&)
FUNC 1f41b 54 0 unsigned char* std::__uninitialized_move_a<unsigned char*, unsigned char*, google_breakpad::PageStdAllocator<unsigned char> >(unsigned char*, unsigned char*, unsigned char*, google_breakpad::PageStdAllocator<unsigned char>&)
FUNC 1f46f 4c 0 unsigned char* std::move_backward<unsigned char*, unsigned char*>(unsigned char*, unsigned char*, unsigned char*)
FUNC 1f4bb 4c 0 __gnu_cxx::__normal_iterator<unsigned char*, std::vector<unsigned char, google_breakpad::PageStdAllocator<unsigned char> > > std::copy<unsigned char const*, __gnu_cxx::__normal_iterator<unsigned char*, std::vector<unsigned char, google_breakpad::PageStdAllocator<unsigned char> > > >(unsigned char const*, unsigned char const*, __gnu_cxx::__normal_iterator<unsigned char*, std::vector<unsigned char, google_breakpad::PageStdAllocator<unsigned char> > >)
FUNC 1f507 48 0 void std::advance<unsigned char const*, unsigned long>(unsigned char const*&, unsigned long)
FUNC 1f54f e 0 unsigned char const& std::forward<unsigned char const&>(std::remove_reference<unsigned char const&>::type&)
FUNC 1f55d 9d 0 unsigned char* std::__uninitialized_copy_a<unsigned char const*, unsigned char*, google_breakpad::PageStdAllocator<unsigned char> >(unsigned char const*, unsigned char const*, unsigned char*, google_breakpad::PageStdAllocator<unsigned char>&)
FUNC 1f5fa c9 0 std::vector<unsigned char, google_breakpad::PageStdAllocator<unsigned char> >::_M_check_len(unsigned long, char const*) const
FUNC 1f6c3 54 0 unsigned char* std::__uninitialized_move_if_noexcept_a<unsigned char*, unsigned char*, google_breakpad::PageStdAllocator<unsigned char> >(unsigned char*, unsigned char*, unsigned char*, google_breakpad::PageStdAllocator<unsigned char>&)
FUNC 1f718 54 0 google_breakpad::PageStdAllocator<char>::PageStdAllocator(google_breakpad::PageStdAllocator<char> const&)
FUNC 1f76c 4a 0 std::_Vector_base<char, google_breakpad::PageStdAllocator<char> >::_Vector_impl::_Vector_impl(google_breakpad::PageStdAllocator<char> const&)
FUNC 1f7b6 1f 0 std::allocator_traits<google_breakpad::PageStdAllocator<char> >::max_size(google_breakpad::PageStdAllocator<char> const&)
FUNC 1f7d6 e 0 std::_Vector_base<char, google_breakpad::PageStdAllocator<char> >::_M_get_Tp_allocator() const
FUNC 1f7e4 1a 0 std::move_iterator<char*>::move_iterator(char*)
FUNC 1f7fe e 0 char&& std::forward<char>(std::remove_reference<char>::type&)
FUNC 1f80c bf 0 char* std::__uninitialized_copy_a<std::move_iterator<char*>, char*, google_breakpad::PageStdAllocator<char> >(std::move_iterator<char*>, std::move_iterator<char*>, char*, google_breakpad::PageStdAllocator<char>&)
FUNC 1f8cb 2e 0 std::allocator_traits<google_breakpad::PageStdAllocator<char> >::deallocate(google_breakpad::PageStdAllocator<char>&, char*, unsigned long)
FUNC 1f8f9 29 0 decltype (({parm#1}.destroy)({parm#2})) std::allocator_traits<google_breakpad::PageStdAllocator<char> >::_S_destroy<google_breakpad::PageStdAllocator<char>, char>(google_breakpad::PageStdAllocator<char>&, char*, int)
FUNC 1f922 26 0 decltype (_S_construct({parm#1}, {parm#2})) std::allocator_traits<google_breakpad::PageStdAllocator<char> >::construct<char>(google_breakpad::PageStdAllocator<char>&, char*)
FUNC 1f948 2a 0 std::allocator_traits<google_breakpad::PageStdAllocator<char> >::allocate(google_breakpad::PageStdAllocator<char>&, unsigned long)
FUNC 1f972 26 0 std::allocator<MDMemoryDescriptor>::allocator(std::allocator<MDMemoryDescriptor> const&)
FUNC 1f998 1d 0 decltype (({parm#1}.max_size)()) std::allocator_traits<google_breakpad::PageStdAllocator<MDMemoryDescriptor> >::_S_max_size<google_breakpad::PageStdAllocator<MDMemoryDescriptor> const>(google_breakpad::PageStdAllocator<MDMemoryDescriptor> const&, int)
FUNC 1f9b5 28 0 bool std::operator!=<MDMemoryDescriptor*>(std::move_iterator<MDMemoryDescriptor*> const&, std::move_iterator<MDMemoryDescriptor*> const&)
FUNC 1f9de 20 0 std::move_iterator<MDMemoryDescriptor*>::operator++()
FUNC 1f9fe 11 0 std::move_iterator<MDMemoryDescriptor*>::operator*() const
FUNC 1fa0f 39 0 decltype (_S_construct({parm#1}, {parm#2}, (forward<MDMemoryDescriptor>)({parm#3}))) std::allocator_traits<google_breakpad::PageStdAllocator<MDMemoryDescriptor> >::construct<MDMemoryDescriptor, MDMemoryDescriptor>(google_breakpad::PageStdAllocator<MDMemoryDescriptor>&, MDMemoryDescriptor*, MDMemoryDescriptor&&)
FUNC 1fa48 13 0 google_breakpad::PageStdAllocator<MDMemoryDescriptor>::deallocate(MDMemoryDescriptor*, unsigned long)
FUNC 1fa5c f 0 void __gnu_cxx::new_allocator<MDMemoryDescriptor>::destroy<MDMemoryDescriptor>(MDMemoryDescriptor*)
FUNC 1fa6c 50 0 google_breakpad::PageStdAllocator<MDMemoryDescriptor>::allocate(unsigned long, void const*)
FUNC 1fabc e 0 __gnu_cxx::__aligned_membuf<unsigned long>::_M_addr() const
FUNC 1faca 54 0 google_breakpad::PageStdAllocator<unsigned char>::PageStdAllocator(google_breakpad::PageStdAllocator<unsigned char> const&)
FUNC 1fb1e 4a 0 std::_Vector_base<unsigned char, google_breakpad::PageStdAllocator<unsigned char> >::_Vector_impl::_Vector_impl(google_breakpad::PageStdAllocator<unsigned char> const&)
FUNC 1fb68 1d 0 decltype (({parm#1}.max_size)()) std::allocator_traits<google_breakpad::PageStdAllocator<unsigned char> >::_S_max_size<google_breakpad::PageStdAllocator<unsigned char> const>(google_breakpad::PageStdAllocator<unsigned char> const&, int)
FUNC 1fb85 2a 0 std::allocator_traits<google_breakpad::PageStdAllocator<unsigned char> >::allocate(google_breakpad::PageStdAllocator<unsigned char>&, unsigned long)
FUNC 1fbaf 28 0 bool std::operator!=<unsigned char*>(std::move_iterator<unsigned char*> const&, std::move_iterator<unsigned char*> const&)
FUNC 1fbd8 20 0 std::move_iterator<unsigned char*>::operator++()
FUNC 1fbf8 11 0 std::move_iterator<unsigned char*>::operator*() const
FUNC 1fc09 39 0 decltype (_S_construct({parm#1}, {parm#2}, (forward<unsigned char>)({parm#3}))) std::allocator_traits<google_breakpad::PageStdAllocator<unsigned char> >::construct<unsigned char, unsigned char>(google_breakpad::PageStdAllocator<unsigned char>&, unsigned char*, unsigned char&&)
FUNC 1fc42 13 0 google_breakpad::PageStdAllocator<unsigned char>::deallocate(unsigned char*, unsigned long)
FUNC 1fc56 f 0 void __gnu_cxx::new_allocator<unsigned char>::destroy<unsigned char>(unsigned char*)
FUNC 1fc65 a 0 std::iterator_traits<unsigned char const*>::iterator_category std::__iterator_category<unsigned char const*>(unsigned char const* const&)
FUNC 1fc6f 1c 0 std::iterator_traits<unsigned char const*>::difference_type std::__distance<unsigned char const*>(unsigned char const*, unsigned char const*, std::random_access_iterator_tag)
FUNC 1fc8b 25 0 std::move_iterator<unsigned char*> std::make_move_iterator<unsigned char*>(unsigned char*)
FUNC 1fcb0 e 0 unsigned char* std::__miter_base<unsigned char*>(unsigned char*)
FUNC 1fcbe 58 0 unsigned char* std::__copy_move_backward_a2<true, unsigned char*, unsigned char*>(unsigned char*, unsigned char*, unsigned char*)
FUNC 1fd16 e 0 unsigned char const* std::__miter_base<unsigned char const*>(unsigned char const*)
FUNC 1fd24 73 0 __gnu_cxx::__normal_iterator<unsigned char*, std::vector<unsigned char, google_breakpad::PageStdAllocator<unsigned char> > > std::__copy_move_a2<false, unsigned char const*, __gnu_cxx::__normal_iterator<unsigned char*, std::vector<unsigned char, google_breakpad::PageStdAllocator<unsigned char> > > >(unsigned char const*, unsigned char const*, __gnu_cxx::__normal_iterator<unsigned char*, std::vector<unsigned char, google_breakpad::PageStdAllocator<unsigned char> > >)
FUNC 1fd97 24 0 void std::__advance<unsigned char const*, long>(unsigned char const*&, long, std::random_access_iterator_tag)
FUNC 1fdbb 39 0 decltype (_S_construct({parm#1}, {parm#2}, (forward<unsigned char const&>)({parm#3}))) std::allocator_traits<google_breakpad::PageStdAllocator<unsigned char> >::construct<unsigned char, unsigned char const&>(google_breakpad::PageStdAllocator<unsigned char>&, unsigned char*, unsigned char const&)
FUNC 1fdf4 1d 0 decltype (({parm#1}.max_size)()) std::allocator_traits<google_breakpad::PageStdAllocator<char> >::_S_max_size<google_breakpad::PageStdAllocator<char> const>(google_breakpad::PageStdAllocator<char> const&, int)
FUNC 1fe11 28 0 bool std::operator!=<char*>(std::move_iterator<char*> const&, std::move_iterator<char*> const&)
FUNC 1fe3a 20 0 std::move_iterator<char*>::operator++()
FUNC 1fe5a 11 0 std::move_iterator<char*>::operator*() const
FUNC 1fe6b 39 0 decltype (_S_construct({parm#1}, {parm#2}, (forward<char>)({parm#3}))) std::allocator_traits<google_breakpad::PageStdAllocator<char> >::construct<char, char>(google_breakpad::PageStdAllocator<char>&, char*, char&&)
FUNC 1fea4 13 0 google_breakpad::PageStdAllocator<char>::deallocate(char*, unsigned long)
FUNC 1feb8 f 0 void __gnu_cxx::new_allocator<char>::destroy<char>(char*)
FUNC 1fec7 26 0 std::enable_if<std::__and_<std::allocator_traits<google_breakpad::PageStdAllocator<char> >::__construct_helper<char>::type>::value, void>::type std::allocator_traits<google_breakpad::PageStdAllocator<char> >::_S_construct<char>(google_breakpad::PageStdAllocator<char>&, char*)
FUNC 1feee 4c 0 google_breakpad::PageStdAllocator<char>::allocate(unsigned long, void const*)
FUNC 1ff3a f 0 __gnu_cxx::new_allocator<MDMemoryDescriptor>::new_allocator(__gnu_cxx::new_allocator<MDMemoryDescriptor> const&)
FUNC 1ff4a 14 0 __gnu_cxx::new_allocator<MDMemoryDescriptor>::max_size() const
FUNC 1ff5e 39 0 bool std::operator==<MDMemoryDescriptor*>(std::move_iterator<MDMemoryDescriptor*> const&, std::move_iterator<MDMemoryDescriptor*> const&)
FUNC 1ff97 39 0 std::enable_if<std::__and_<std::allocator_traits<google_breakpad::PageStdAllocator<MDMemoryDescriptor> >::__construct_helper<MDMemoryDescriptor, MDMemoryDescriptor>::type>::value, void>::type std::allocator_traits<google_breakpad::PageStdAllocator<MDMemoryDescriptor> >::_S_construct<MDMemoryDescriptor, MDMemoryDescriptor>(google_breakpad::PageStdAllocator<MDMemoryDescriptor>&, MDMemoryDescriptor*, MDMemoryDescriptor&&)
FUNC 1ffd0 11 0 __gnu_cxx::new_allocator<unsigned char>::max_size() const
FUNC 1ffe2 4c 0 google_breakpad::PageStdAllocator<unsigned char>::allocate(unsigned long, void const*)
FUNC 2002e 39 0 bool std::operator==<unsigned char*>(std::move_iterator<unsigned char*> const&, std::move_iterator<unsigned char*> const&)
FUNC 20067 39 0 std::enable_if<std::__and_<std::allocator_traits<google_breakpad::PageStdAllocator<unsigned char> >::__construct_helper<unsigned char, unsigned char>::type>::value, void>::type std::allocator_traits<google_breakpad::PageStdAllocator<unsigned char> >::_S_construct<unsigned char, unsigned char>(google_breakpad::PageStdAllocator<unsigned char>&, unsigned char*, unsigned char&&)
FUNC 200a0 e 0 unsigned char* std::__niter_base<unsigned char*>(unsigned char*)
FUNC 200ae 31 0 unsigned char* std::__copy_move_backward_a<true, unsigned char*, unsigned char*>(unsigned char*, unsigned char*, unsigned char*)
FUNC 200df e 0 unsigned char const* std::__niter_base<unsigned char const*>(unsigned char const*)
FUNC 200ed 1d 0 unsigned char* std::__niter_base<unsigned char*, std::vector<unsigned char, google_breakpad::PageStdAllocator<unsigned char> > >(__gnu_cxx::__normal_iterator<unsigned char*, std::vector<unsigned char, google_breakpad::PageStdAllocator<unsigned char> > >)
FUNC 2010a 31 0 unsigned char* std::__copy_move_a<false, unsigned char const*, unsigned char*>(unsigned char const*, unsigned char const*, unsigned char*)
FUNC 2013b 39 0 std::enable_if<std::__and_<std::allocator_traits<google_breakpad::PageStdAllocator<unsigned char> >::__construct_helper<unsigned char, unsigned char const&>::type>::value, void>::type std::allocator_traits<google_breakpad::PageStdAllocator<unsigned char> >::_S_construct<unsigned char, unsigned char const&>(google_breakpad::PageStdAllocator<unsigned char>&, unsigned char*, unsigned char const&)
FUNC 20174 11 0 __gnu_cxx::new_allocator<char>::max_size() const
FUNC 20185 39 0 bool std::operator==<char*>(std::move_iterator<char*> const&, std::move_iterator<char*> const&)
FUNC 201be 39 0 std::enable_if<std::__and_<std::allocator_traits<google_breakpad::PageStdAllocator<char> >::__construct_helper<char, char>::type>::value, void>::type std::allocator_traits<google_breakpad::PageStdAllocator<char> >::_S_construct<char, char>(google_breakpad::PageStdAllocator<char>&, char*, char&&)
FUNC 201f8 2c 0 void __gnu_cxx::new_allocator<char>::construct<char>(char*)
FUNC 20224 11 0 std::move_iterator<MDMemoryDescriptor*>::base() const
FUNC 20236 53 0 void __gnu_cxx::new_allocator<MDMemoryDescriptor>::construct<MDMemoryDescriptor, MDMemoryDescriptor>(MDMemoryDescriptor*, MDMemoryDescriptor&&)
FUNC 2028a 11 0 std::move_iterator<unsigned char*>::base() const
FUNC 2029c 44 0 void __gnu_cxx::new_allocator<unsigned char>::construct<unsigned char, unsigned char>(unsigned char*, unsigned char&&)
FUNC 202e0 64 0 unsigned char* std::__copy_move_backward<true, true, std::random_access_iterator_tag>::__copy_move_b<unsigned char>(unsigned char const*, unsigned char const*, unsigned char*)
FUNC 20344 51 0 unsigned char* std::__copy_move<false, true, std::random_access_iterator_tag>::__copy_m<unsigned char>(unsigned char const*, unsigned char const*, unsigned char*)
FUNC 20396 44 0 void __gnu_cxx::new_allocator<unsigned char>::construct<unsigned char, unsigned char const&>(unsigned char*, unsigned char const&)
FUNC 203da 11 0 std::move_iterator<char*>::base() const
FUNC 203ec 44 0 void __gnu_cxx::new_allocator<char>::construct<char, char>(char*, char&&)
FUNC 20430 2d 0 google_breakpad::LinuxPtraceDumper::~LinuxPtraceDumper()
FUNC 2045e 2b 0 google_breakpad::LinuxPtraceDumper::~LinuxPtraceDumper()
FUNC 2048a 49 0 sys_close
FUNC 204d3 3d 0 sys_getpid
FUNC 20510 53 0 sys_munmap
FUNC 20563 5a 0 sys_open
FUNC 205bd 59 0 sys_read
FUNC 20616 56 0 sys_stat
FUNC 2066c 8e 0 sys_mmap
FUNC 206fa 2f 0 IsMappedFileOpenUnsafe
FUNC 20729 36 0 MappingContainsAddress
FUNC 20760 1a1 0 google_breakpad::LinuxDumper::LinuxDumper(int, char const*)
FUNC 20902 65 0 google_breakpad::LinuxDumper::~LinuxDumper()
FUNC 20968 2b 0 google_breakpad::LinuxDumper::~LinuxDumper()
FUNC 20994 60 0 google_breakpad::LinuxDumper::Init()
FUNC 209f4 f 0 google_breakpad::LinuxDumper::LateInit()
FUNC 20a04 2e1 0 google_breakpad::LinuxDumper::ElfFileIdentifierForMapping(google_breakpad::MappingInfo const&, bool, unsigned int, google_breakpad::wasteful_vector<unsigned char>&)
FUNC 20ce6 56 0 google_breakpad::LinuxDumper::SetCrashInfoFromSigInfo(siginfo_t const&)
FUNC 20d3c 2a7 0 google_breakpad::LinuxDumper::GetCrashSignalString() const
FUNC 20fe4 6a 0 google_breakpad::LinuxDumper::GetMappingAbsolutePath(google_breakpad::MappingInfo const&, char*) const
FUNC 2104e 16f 0 ElfFileSoNameFromMappedFile
FUNC 211bd 141 0 ElfFileSoName
FUNC 212fe 124 0 google_breakpad::LinuxDumper::GetMappingEffectiveNameAndPath(google_breakpad::MappingInfo const&, char*, unsigned long, char*, unsigned long)
FUNC 21422 110 0 google_breakpad::LinuxDumper::ReadAuxv()
FUNC 21532 5b6 0 google_breakpad::LinuxDumper::EnumerateMappings()
FUNC 21ae8 aa 0 google_breakpad::LinuxDumper::GetStackInfo(void const**, unsigned long*, unsigned long)
FUNC 21b92 3a8 0 google_breakpad::LinuxDumper::SanitizeStackCopy(unsigned char*, unsigned long, unsigned long, unsigned long)
FUNC 21f3a 98 0 google_breakpad::LinuxDumper::StackHasPointerToMapping(unsigned char const*, unsigned long, unsigned long, google_breakpad::MappingInfo const&)
FUNC 21fd2 e6 0 google_breakpad::LinuxDumper::FindMapping(void const*) const
FUNC 220b8 c7 0 google_breakpad::LinuxDumper::FindMappingNoBias(unsigned long) const
FUNC 22180 232 0 google_breakpad::LinuxDumper::HandleDeletedFileInMapping(char*) const
FUNC 223b2 18 0 google_breakpad::LinuxDumper::set_crash_signal_code(int)
FUNC 223ca 11 0 google_breakpad::MemoryRange::data() const
FUNC 223dc 12 0 google_breakpad::MemoryRange::length() const
FUNC 223ee 1a 0 google_breakpad::MemoryMappedFile::data() const
FUNC 22408 1a 0 google_breakpad::MemoryMappedFile::size() const
FUNC 22422 1b 0 google_breakpad::wasteful_vector<int>::~wasteful_vector()
FUNC 2243e 1b 0 google_breakpad::wasteful_vector<google_breakpad::MappingInfo*>::~wasteful_vector()
FUNC 2245a 1b 0 google_breakpad::wasteful_vector<unsigned long>::~wasteful_vector()
FUNC 22476 1b 0 google_breakpad::PageStdAllocator<int>::~PageStdAllocator()
FUNC 22492 7b 0 google_breakpad::wasteful_vector<int>::wasteful_vector(google_breakpad::PageAllocator*, unsigned int)
FUNC 2250e 45 0 std::vector<int, google_breakpad::PageStdAllocator<int> >::~vector()
FUNC 22554 1b 0 google_breakpad::PageStdAllocator<google_breakpad::MappingInfo*>::~PageStdAllocator()
FUNC 22570 7b 0 google_breakpad::wasteful_vector<google_breakpad::MappingInfo*>::wasteful_vector(google_breakpad::PageAllocator*, unsigned int)
FUNC 225ec 45 0 std::vector<google_breakpad::MappingInfo*, google_breakpad::PageStdAllocator<google_breakpad::MappingInfo*> >::~vector()
FUNC 22632 1b 0 google_breakpad::PageStdAllocator<unsigned long>::~PageStdAllocator()
FUNC 2264e 7b 0 google_breakpad::wasteful_vector<unsigned long>::wasteful_vector(google_breakpad::PageAllocator*, unsigned int)
FUNC 226ca 45 0 std::vector<unsigned long, google_breakpad::PageStdAllocator<unsigned long> >::~vector()
FUNC 22710 8d 0 std::vector<unsigned long, google_breakpad::PageStdAllocator<unsigned long> >::resize(unsigned long)
FUNC 2279e 21 0 std::vector<google_breakpad::MappingInfo*, google_breakpad::PageStdAllocator<google_breakpad::MappingInfo*> >::operator[](unsigned long)
FUNC 227c0 21 0 std::vector<unsigned long, google_breakpad::PageStdAllocator<unsigned long> >::operator[](unsigned long)
FUNC 227e2 41 0 std::vector<google_breakpad::MappingInfo*, google_breakpad::PageStdAllocator<google_breakpad::MappingInfo*> >::empty() const
FUNC 22824 3f 0 std::vector<google_breakpad::MappingInfo*, google_breakpad::PageStdAllocator<google_breakpad::MappingInfo*> >::back()
FUNC 22863 e 0 google_breakpad::MappingInfo* const& std::forward<google_breakpad::MappingInfo* const&>(std::remove_reference<google_breakpad::MappingInfo* const&>::type&)
FUNC 22872 6c 0 std::vector<google_breakpad::MappingInfo*, google_breakpad::PageStdAllocator<google_breakpad::MappingInfo*> >::push_back(google_breakpad::MappingInfo* const&)
FUNC 228de 2a 0 bool google_breakpad::SafeReadLink<255ul>(char const*, char (&) [255ul])
FUNC 22908 42 0 google_breakpad::PageStdAllocator<int>::PageStdAllocator(google_breakpad::PageAllocator&)
FUNC 2294a 1b 0 std::allocator<int>::~allocator()
FUNC 22966 26 0 std::vector<int, google_breakpad::PageStdAllocator<int> >::vector(google_breakpad::PageStdAllocator<int> const&)
FUNC 2298c 147 0 std::vector<int, google_breakpad::PageStdAllocator<int> >::reserve(unsigned long)
FUNC 22ad4 1b 0 std::_Vector_base<int, google_breakpad::PageStdAllocator<int> >::_Vector_impl::~_Vector_impl()
FUNC 22af0 52 0 std::_Vector_base<int, google_breakpad::PageStdAllocator<int> >::~_Vector_base()
FUNC 22b42 e 0 std::_Vector_base<int, google_breakpad::PageStdAllocator<int> >::_M_get_Tp_allocator()
FUNC 22b50 46 0 void std::_Destroy<int*, google_breakpad::PageStdAllocator<int> >(int*, int*, google_breakpad::PageStdAllocator<int>&)
FUNC 22b96 42 0 google_breakpad::PageStdAllocator<google_breakpad::MappingInfo*>::PageStdAllocator(google_breakpad::PageAllocator&)
FUNC 22bd8 1b 0 std::allocator<google_breakpad::MappingInfo*>::~allocator()
FUNC 22bf4 26 0 std::vector<google_breakpad::MappingInfo*, google_breakpad::PageStdAllocator<google_breakpad::MappingInfo*> >::vector(google_breakpad::PageStdAllocator<google_breakpad::MappingInfo*> const&)
FUNC 22c1a 147 0 std::vector<google_breakpad::MappingInfo*, google_breakpad::PageStdAllocator<google_breakpad::MappingInfo*> >::reserve(unsigned long)
FUNC 22d62 1b 0 std::_Vector_base<google_breakpad::MappingInfo*, google_breakpad::PageStdAllocator<google_breakpad::MappingInfo*> >::_Vector_impl::~_Vector_impl()
FUNC 22d7e 52 0 std::_Vector_base<google_breakpad::MappingInfo*, google_breakpad::PageStdAllocator<google_breakpad::MappingInfo*> >::~_Vector_base()
FUNC 22dd0 e 0 std::_Vector_base<google_breakpad::MappingInfo*, google_breakpad::PageStdAllocator<google_breakpad::MappingInfo*> >::_M_get_Tp_allocator()
FUNC 22dde 46 0 void std::_Destroy<google_breakpad::MappingInfo**, google_breakpad::PageStdAllocator<google_breakpad::MappingInfo*> >(google_breakpad::MappingInfo**, google_breakpad::MappingInfo**, google_breakpad::PageStdAllocator<google_breakpad::MappingInfo*>&)
FUNC 22e24 42 0 google_breakpad::PageStdAllocator<unsigned long>::PageStdAllocator(google_breakpad::PageAllocator&)
FUNC 22e66 1b 0 std::allocator<unsigned long>::~allocator()
FUNC 22e82 26 0 std::vector<unsigned long, google_breakpad::PageStdAllocator<unsigned long> >::vector(google_breakpad::PageStdAllocator<unsigned long> const&)
FUNC 22ea8 147 0 std::vector<unsigned long, google_breakpad::PageStdAllocator<unsigned long> >::reserve(unsigned long)
FUNC 22ff0 1b 0 std::_Vector_base<unsigned long, google_breakpad::PageStdAllocator<unsigned long> >::_Vector_impl::~_Vector_impl()
FUNC 2300c 52 0 std::_Vector_base<unsigned long, google_breakpad::PageStdAllocator<unsigned long> >::~_Vector_base()
FUNC 2305e e 0 std::_Vector_base<unsigned long, google_breakpad::PageStdAllocator<unsigned long> >::_M_get_Tp_allocator()
FUNC 2306c 46 0 void std::_Destroy<unsigned long*, google_breakpad::PageStdAllocator<unsigned long> >(unsigned long*, unsigned long*, google_breakpad::PageStdAllocator<unsigned long>&)
FUNC 230b2 27 0 std::vector<unsigned long, google_breakpad::PageStdAllocator<unsigned long> >::size() const
FUNC 230da 20e 0 std::vector<unsigned long, google_breakpad::PageStdAllocator<unsigned long> >::_M_default_append(unsigned long)
FUNC 232e8 45 0 std::vector<unsigned long, google_breakpad::PageStdAllocator<unsigned long> >::_M_erase_at_end(unsigned long*)
FUNC 2332e 31 0 std::vector<google_breakpad::MappingInfo*, google_breakpad::PageStdAllocator<google_breakpad::MappingInfo*> >::begin() const
FUNC 23360 31 0 std::vector<google_breakpad::MappingInfo*, google_breakpad::PageStdAllocator<google_breakpad::MappingInfo*> >::end() const
FUNC 23391 3c 0 bool __gnu_cxx::operator==<google_breakpad::MappingInfo* const*, std::vector<google_breakpad::MappingInfo*, google_breakpad::PageStdAllocator<google_breakpad::MappingInfo*> > >(__gnu_cxx::__normal_iterator<google_breakpad::MappingInfo* const*, std::vector<google_breakpad::MappingInfo*, google_breakpad::PageStdAllocator<google_breakpad::MappingInfo*> > > const&, __gnu_cxx::__normal_iterator<google_breakpad::MappingInfo* const*, std::vector<google_breakpad::MappingInfo*, google_breakpad::PageStdAllocator<google_breakpad::MappingInfo*> > > const&)
FUNC 233ce 29 0 std::vector<google_breakpad::MappingInfo*, google_breakpad::PageStdAllocator<google_breakpad::MappingInfo*> >::end()
FUNC 233f8 42 0 __gnu_cxx::__normal_iterator<google_breakpad::MappingInfo**, std::vector<google_breakpad::MappingInfo*, google_breakpad::PageStdAllocator<google_breakpad::MappingInfo*> > >::operator-(long) const
FUNC 2343a 11 0 __gnu_cxx::__normal_iterator<google_breakpad::MappingInfo**, std::vector<google_breakpad::MappingInfo*, google_breakpad::PageStdAllocator<google_breakpad::MappingInfo*> > >::operator*() const
FUNC 2344b 39 0 decltype (_S_construct({parm#1}, {parm#2}, (forward<google_breakpad::MappingInfo* const&>)({parm#3}))) std::allocator_traits<google_breakpad::PageStdAllocator<google_breakpad::MappingInfo*> >::construct<google_breakpad::MappingInfo*, google_breakpad::MappingInfo* const&>(google_breakpad::PageStdAllocator<google_breakpad::MappingInfo*>&, google_breakpad::MappingInfo**, google_breakpad::MappingInfo* const&)
FUNC 23484 1f1 0 void std::vector<google_breakpad::MappingInfo*, google_breakpad::PageStdAllocator<google_breakpad::MappingInfo*> >::_M_emplace_back_aux<google_breakpad::MappingInfo* const&>(google_breakpad::MappingInfo* const&)
FUNC 23676 1b 0 std::allocator<int>::allocator()
FUNC 23692 b 0 __gnu_cxx::new_allocator<int>::~new_allocator()
FUNC 2369e 26 0 std::_Vector_base<int, google_breakpad::PageStdAllocator<int> >::_Vector_base(google_breakpad::PageStdAllocator<int> const&)
FUNC 236c4 22 0 std::vector<int, google_breakpad::PageStdAllocator<int> >::max_size() const
FUNC 236e6 27 0 std::vector<int, google_breakpad::PageStdAllocator<int> >::capacity() const
FUNC 2370d 25 0 std::move_iterator<int*> std::__make_move_if_noexcept_iterator<int, std::move_iterator<int*> >(int*)
FUNC 23732 97 0 int* std::vector<int, google_breakpad::PageStdAllocator<int> >::_M_allocate_and_copy<std::move_iterator<int*> >(unsigned long, std::move_iterator<int*>, std::move_iterator<int*>)
FUNC 237ca 35 0 std::_Vector_base<int, google_breakpad::PageStdAllocator<int> >::_M_deallocate(int*, unsigned long)
FUNC 237ff e 0 int* std::__addressof<int>(int&)
FUNC 2380d 2b 0 void std::allocator_traits<google_breakpad::PageStdAllocator<int> >::destroy<int>(google_breakpad::PageStdAllocator<int>&, int*)
FUNC 23838 1b 0 std::allocator<google_breakpad::MappingInfo*>::allocator()
FUNC 23854 b 0 __gnu_cxx::new_allocator<google_breakpad::MappingInfo*>::~new_allocator()
FUNC 23860 26 0 std::_Vector_base<google_breakpad::MappingInfo*, google_breakpad::PageStdAllocator<google_breakpad::MappingInfo*> >::_Vector_base(google_breakpad::PageStdAllocator<google_breakpad::MappingInfo*> const&)
FUNC 23886 22 0 std::vector<google_breakpad::MappingInfo*, google_breakpad::PageStdAllocator<google_breakpad::MappingInfo*> >::max_size() const
FUNC 238a8 27 0 std::vector<google_breakpad::MappingInfo*, google_breakpad::PageStdAllocator<google_breakpad::MappingInfo*> >::capacity() const
FUNC 238cf 25 0 std::move_iterator<google_breakpad::MappingInfo**> std::__make_move_if_noexcept_iterator<google_breakpad::MappingInfo*, std::move_iterator<google_breakpad::MappingInfo**> >(google_breakpad::MappingInfo**)
FUNC 238f4 97 0 google_breakpad::MappingInfo** std::vector<google_breakpad::MappingInfo*, google_breakpad::PageStdAllocator<google_breakpad::MappingInfo*> >::_M_allocate_and_copy<std::move_iterator<google_breakpad::MappingInfo**> >(unsigned long, std::move_iterator<google_breakpad::MappingInfo**>, std::move_iterator<google_breakpad::MappingInfo**>)
FUNC 2398c 35 0 std::_Vector_base<google_breakpad::MappingInfo*, google_breakpad::PageStdAllocator<google_breakpad::MappingInfo*> >::_M_deallocate(google_breakpad::MappingInfo**, unsigned long)
FUNC 239c1 e 0 google_breakpad::MappingInfo** std::__addressof<google_breakpad::MappingInfo*>(google_breakpad::MappingInfo*&)
FUNC 239cf 2b 0 void std::allocator_traits<google_breakpad::PageStdAllocator<google_breakpad::MappingInfo*> >::destroy<google_breakpad::MappingInfo*>(google_breakpad::PageStdAllocator<google_breakpad::MappingInfo*>&, google_breakpad::MappingInfo**)
FUNC 239fa 1b 0 std::allocator<unsigned long>::allocator()
FUNC 23a16 b 0 __gnu_cxx::new_allocator<unsigned long>::~new_allocator()
FUNC 23a22 26 0 std::_Vector_base<unsigned long, google_breakpad::PageStdAllocator<unsigned long> >::_Vector_base(google_breakpad::PageStdAllocator<unsigned long> const&)
FUNC 23a48 22 0 std::vector<unsigned long, google_breakpad::PageStdAllocator<unsigned long> >::max_size() const
FUNC 23a6a 27 0 std::vector<unsigned long, google_breakpad::PageStdAllocator<unsigned long> >::capacity() const
FUNC 23a91 25 0 std::move_iterator<unsigned long*> std::__make_move_if_noexcept_iterator<unsigned long, std::move_iterator<unsigned long*> >(unsigned long*)
FUNC 23ab6 97 0 unsigned long* std::vector<unsigned long, google_breakpad::PageStdAllocator<unsigned long> >::_M_allocate_and_copy<std::move_iterator<unsigned long*> >(unsigned long, std::move_iterator<unsigned long*>, std::move_iterator<unsigned long*>)
FUNC 23b4e 35 0 std::_Vector_base<unsigned long, google_breakpad::PageStdAllocator<unsigned long> >::_M_deallocate(unsigned long*, unsigned long)
FUNC 23b83 e 0 unsigned long* std::__addressof<unsigned long>(unsigned long&)
FUNC 23b91 2b 0 void std::allocator_traits<google_breakpad::PageStdAllocator<unsigned long> >::destroy<unsigned long>(google_breakpad::PageStdAllocator<unsigned long>&, unsigned long*)
FUNC 23bbc 92 0 unsigned long* std::__uninitialized_default_n_a<unsigned long*, unsigned long, google_breakpad::PageStdAllocator<unsigned long> >(unsigned long*, unsigned long, google_breakpad::PageStdAllocator<unsigned long>&)
FUNC 23c4e c9 0 std::vector<unsigned long, google_breakpad::PageStdAllocator<unsigned long> >::_M_check_len(unsigned long, char const*) const
FUNC 23d18 33 0 std::_Vector_base<unsigned long, google_breakpad::PageStdAllocator<unsigned long> >::_M_allocate(unsigned long)
FUNC 23d4b 54 0 unsigned long* std::__uninitialized_move_if_noexcept_a<unsigned long*, unsigned long*, google_breakpad::PageStdAllocator<unsigned long> >(unsigned long*, unsigned long*, unsigned long*, google_breakpad::PageStdAllocator<unsigned long>&)
FUNC 23da0 1d 0 __gnu_cxx::__normal_iterator<google_breakpad::MappingInfo* const*, std::vector<google_breakpad::MappingInfo*, google_breakpad::PageStdAllocator<google_breakpad::MappingInfo*> > >::__normal_iterator(google_breakpad::MappingInfo* const* const&)
FUNC 23dbe e 0 __gnu_cxx::__normal_iterator<google_breakpad::MappingInfo* const*, std::vector<google_breakpad::MappingInfo*, google_breakpad::PageStdAllocator<google_breakpad::MappingInfo*> > >::base() const
FUNC 23dcc 1d 0 __gnu_cxx::__normal_iterator<google_breakpad::MappingInfo**, std::vector<google_breakpad::MappingInfo*, google_breakpad::PageStdAllocator<google_breakpad::MappingInfo*> > >::__normal_iterator(google_breakpad::MappingInfo** const&)
FUNC 23de9 39 0 std::enable_if<std::__and_<std::allocator_traits<google_breakpad::PageStdAllocator<google_breakpad::MappingInfo*> >::__construct_helper<google_breakpad::MappingInfo*, google_breakpad::MappingInfo* const&>::type>::value, void>::type std::allocator_traits<google_breakpad::PageStdAllocator<google_breakpad::MappingInfo*> >::_S_construct<google_breakpad::MappingInfo*, google_breakpad::MappingInfo* const&>(google_breakpad::PageStdAllocator<google_breakpad::MappingInfo*>&, google_breakpad::MappingInfo**, google_breakpad::MappingInfo* const&)
FUNC 23e22 c9 0 std::vector<google_breakpad::MappingInfo*, google_breakpad::PageStdAllocator<google_breakpad::MappingInfo*> >::_M_check_len(unsigned long, char const*) const
FUNC 23eec 33 0 std::_Vector_base<google_breakpad::MappingInfo*, google_breakpad::PageStdAllocator<google_breakpad::MappingInfo*> >::_M_allocate(unsigned long)
FUNC 23f1f 54 0 google_breakpad::MappingInfo** std::__uninitialized_move_if_noexcept_a<google_breakpad::MappingInfo**, google_breakpad::MappingInfo**, google_breakpad::PageStdAllocator<google_breakpad::MappingInfo*> >(google_breakpad::MappingInfo**, google_breakpad::MappingInfo**, google_breakpad::MappingInfo**, google_breakpad::PageStdAllocator<google_breakpad::MappingInfo*>&)
FUNC 23f74 b 0 __gnu_cxx::new_allocator<int>::new_allocator()
FUNC 23f80 54 0 google_breakpad::PageStdAllocator<int>::PageStdAllocator(google_breakpad::PageStdAllocator<int> const&)
FUNC 23fd4 4a 0 std::_Vector_base<int, google_breakpad::PageStdAllocator<int> >::_Vector_impl::_Vector_impl(google_breakpad::PageStdAllocator<int> const&)
FUNC 2401e 1f 0 std::allocator_traits<google_breakpad::PageStdAllocator<int> >::max_size(google_breakpad::PageStdAllocator<int> const&)
FUNC 2403e e 0 std::_Vector_base<int, google_breakpad::PageStdAllocator<int> >::_M_get_Tp_allocator() const
FUNC 2404c 1a 0 std::move_iterator<int*>::move_iterator(int*)
FUNC 24066 33 0 std::_Vector_base<int, google_breakpad::PageStdAllocator<int> >::_M_allocate(unsigned long)
FUNC 24099 e 0 int&& std::forward<int>(std::remove_reference<int>::type&)
FUNC 240a7 bf 0 int* std::__uninitialized_copy_a<std::move_iterator<int*>, int*, google_breakpad::PageStdAllocator<int> >(std::move_iterator<int*>, std::move_iterator<int*>, int*, google_breakpad::PageStdAllocator<int>&)
FUNC 24166 2e 0 std::allocator_traits<google_breakpad::PageStdAllocator<int> >::deallocate(google_breakpad::PageStdAllocator<int>&, int*, unsigned long)
FUNC 24194 29 0 decltype (({parm#1}.destroy)({parm#2})) std::allocator_traits<google_breakpad::PageStdAllocator<int> >::_S_destroy<google_breakpad::PageStdAllocator<int>, int>(google_breakpad::PageStdAllocator<int>&, int*, int)
FUNC 241be b 0 __gnu_cxx::new_allocator<google_breakpad::MappingInfo*>::new_allocator()
FUNC 241ca 54 0 google_breakpad::PageStdAllocator<google_breakpad::MappingInfo*>::PageStdAllocator(google_breakpad::PageStdAllocator<google_breakpad::MappingInfo*> const&)
FUNC 2421e 4a 0 std::_Vector_base<google_breakpad::MappingInfo*, google_breakpad::PageStdAllocator<google_breakpad::MappingInfo*> >::_Vector_impl::_Vector_impl(google_breakpad::PageStdAllocator<google_breakpad::MappingInfo*> const&)
FUNC 24268 1f 0 std::allocator_traits<google_breakpad::PageStdAllocator<google_breakpad::MappingInfo*> >::max_size(google_breakpad::PageStdAllocator<google_breakpad::MappingInfo*> const&)
FUNC 24288 e 0 std::_Vector_base<google_breakpad::MappingInfo*, google_breakpad::PageStdAllocator<google_breakpad::MappingInfo*> >::_M_get_Tp_allocator() const
FUNC 24296 1a 0 std::move_iterator<google_breakpad::MappingInfo**>::move_iterator(google_breakpad::MappingInfo**)
FUNC 242b0 e 0 google_breakpad::MappingInfo*&& std::forward<google_breakpad::MappingInfo*>(std::remove_reference<google_breakpad::MappingInfo*>::type&)
FUNC 242be bf 0 google_breakpad::MappingInfo** std::__uninitialized_copy_a<std::move_iterator<google_breakpad::MappingInfo**>, google_breakpad::MappingInfo**, google_breakpad::PageStdAllocator<google_breakpad::MappingInfo*> >(std::move_iterator<google_breakpad::MappingInfo**>, std::move_iterator<google_breakpad::MappingInfo**>, google_breakpad::MappingInfo**, google_breakpad::PageStdAllocator<google_breakpad::MappingInfo*>&)
FUNC 2437d 2e 0 std::allocator_traits<google_breakpad::PageStdAllocator<google_breakpad::MappingInfo*> >::deallocate(google_breakpad::PageStdAllocator<google_breakpad::MappingInfo*>&, google_breakpad::MappingInfo**, unsigned long)
FUNC 243ab 29 0 decltype (({parm#1}.destroy)({parm#2})) std::allocator_traits<google_breakpad::PageStdAllocator<google_breakpad::MappingInfo*> >::_S_destroy<google_breakpad::PageStdAllocator<google_breakpad::MappingInfo*>, google_breakpad::MappingInfo*>(google_breakpad::PageStdAllocator<google_breakpad::MappingInfo*>&, google_breakpad::MappingInfo**, int)
FUNC 243d4 b 0 __gnu_cxx::new_allocator<unsigned long>::new_allocator()
FUNC 243e0 54 0 google_breakpad::PageStdAllocator<unsigned long>::PageStdAllocator(google_breakpad::PageStdAllocator<unsigned long> const&)
FUNC 24434 4a 0 std::_Vector_base<unsigned long, google_breakpad::PageStdAllocator<unsigned long> >::_Vector_impl::_Vector_impl(google_breakpad::PageStdAllocator<unsigned long> const&)
FUNC 2447e 1f 0 std::allocator_traits<google_breakpad::PageStdAllocator<unsigned long> >::max_size(google_breakpad::PageStdAllocator<unsigned long> const&)
FUNC 2449e e 0 std::_Vector_base<unsigned long, google_breakpad::PageStdAllocator<unsigned long> >::_M_get_Tp_allocator() const
FUNC 244ac 1a 0 std::move_iterator<unsigned long*>::move_iterator(unsigned long*)
FUNC 244c6 e 0 unsigned long&& std::forward<unsigned long>(std::remove_reference<unsigned long>::type&)
FUNC 244d4 bf 0 unsigned long* std::__uninitialized_copy_a<std::move_iterator<unsigned long*>, unsigned long*, google_breakpad::PageStdAllocator<unsigned long> >(std::move_iterator<unsigned long*>, std::move_iterator<unsigned long*>, unsigned long*, google_breakpad::PageStdAllocator<unsigned long>&)
FUNC 24593 2e 0 std::allocator_traits<google_breakpad::PageStdAllocator<unsigned long> >::deallocate(google_breakpad::PageStdAllocator<unsigned long>&, unsigned long*, unsigned long)
FUNC 245c1 29 0 decltype (({parm#1}.destroy)({parm#2})) std::allocator_traits<google_breakpad::PageStdAllocator<unsigned long> >::_S_destroy<google_breakpad::PageStdAllocator<unsigned long>, unsigned long>(google_breakpad::PageStdAllocator<unsigned long>&, unsigned long*, int)
FUNC 245ea 26 0 decltype (_S_construct({parm#1}, {parm#2})) std::allocator_traits<google_breakpad::PageStdAllocator<unsigned long> >::construct<unsigned long>(google_breakpad::PageStdAllocator<unsigned long>&, unsigned long*)
FUNC 24610 2a 0 std::allocator_traits<google_breakpad::PageStdAllocator<unsigned long> >::allocate(google_breakpad::PageStdAllocator<unsigned long>&, unsigned long)
FUNC 2463a 45 0 void __gnu_cxx::new_allocator<google_breakpad::MappingInfo*>::construct<google_breakpad::MappingInfo*, google_breakpad::MappingInfo* const&>(google_breakpad::MappingInfo**, google_breakpad::MappingInfo* const&)
FUNC 2467f 2a 0 std::allocator_traits<google_breakpad::PageStdAllocator<google_breakpad::MappingInfo*> >::allocate(google_breakpad::PageStdAllocator<google_breakpad::MappingInfo*>&, unsigned long)
FUNC 246aa 26 0 std::allocator<int>::allocator(std::allocator<int> const&)
FUNC 246d0 1d 0 decltype (({parm#1}.max_size)()) std::allocator_traits<google_breakpad::PageStdAllocator<int> >::_S_max_size<google_breakpad::PageStdAllocator<int> const>(google_breakpad::PageStdAllocator<int> const&, int)
FUNC 246ed 2a 0 std::allocator_traits<google_breakpad::PageStdAllocator<int> >::allocate(google_breakpad::PageStdAllocator<int>&, unsigned long)
FUNC 24717 28 0 bool std::operator!=<int*>(std::move_iterator<int*> const&, std::move_iterator<int*> const&)
FUNC 24740 20 0 std::move_iterator<int*>::operator++()
FUNC 24760 11 0 std::move_iterator<int*>::operator*() const
FUNC 24771 39 0 decltype (_S_construct({parm#1}, {parm#2}, (forward<int>)({parm#3}))) std::allocator_traits<google_breakpad::PageStdAllocator<int> >::construct<int, int>(google_breakpad::PageStdAllocator<int>&, int*, int&&)
FUNC 247aa 13 0 google_breakpad::PageStdAllocator<int>::deallocate(int*, unsigned long)
FUNC 247be f 0 void __gnu_cxx::new_allocator<int>::destroy<int>(int*)
FUNC 247ce 26 0 std::allocator<google_breakpad::MappingInfo*>::allocator(std::allocator<google_breakpad::MappingInfo*> const&)
FUNC 247f4 1d 0 decltype (({parm#1}.max_size)()) std::allocator_traits<google_breakpad::PageStdAllocator<google_breakpad::MappingInfo*> >::_S_max_size<google_breakpad::PageStdAllocator<google_breakpad::MappingInfo*> const>(google_breakpad::PageStdAllocator<google_breakpad::MappingInfo*> const&, int)
FUNC 24811 28 0 bool std::operator!=<google_breakpad::MappingInfo**>(std::move_iterator<google_breakpad::MappingInfo**> const&, std::move_iterator<google_breakpad::MappingInfo**> const&)
FUNC 2483a 20 0 std::move_iterator<google_breakpad::MappingInfo**>::operator++()
FUNC 2485a 11 0 std::move_iterator<google_breakpad::MappingInfo**>::operator*() const
FUNC 2486b 39 0 decltype (_S_construct({parm#1}, {parm#2}, (forward<google_breakpad::MappingInfo*>)({parm#3}))) std::allocator_traits<google_breakpad::PageStdAllocator<google_breakpad::MappingInfo*> >::construct<google_breakpad::MappingInfo*, google_breakpad::MappingInfo*>(google_breakpad::PageStdAllocator<google_breakpad::MappingInfo*>&, google_breakpad::MappingInfo**, google_breakpad::MappingInfo*&&)
FUNC 248a4 13 0 google_breakpad::PageStdAllocator<google_breakpad::MappingInfo*>::deallocate(google_breakpad::MappingInfo**, unsigned long)
FUNC 248b8 f 0 void __gnu_cxx::new_allocator<google_breakpad::MappingInfo*>::destroy<google_breakpad::MappingInfo*>(google_breakpad::MappingInfo**)
FUNC 248c8 26 0 std::allocator<unsigned long>::allocator(std::allocator<unsigned long> const&)
FUNC 248ee 1d 0 decltype (({parm#1}.max_size)()) std::allocator_traits<google_breakpad::PageStdAllocator<unsigned long> >::_S_max_size<google_breakpad::PageStdAllocator<unsigned long> const>(google_breakpad::PageStdAllocator<unsigned long> const&, int)
FUNC 2490b 28 0 bool std::operator!=<unsigned long*>(std::move_iterator<unsigned long*> const&, std::move_iterator<unsigned long*> const&)
FUNC 24934 20 0 std::move_iterator<unsigned long*>::operator++()
FUNC 24954 11 0 std::move_iterator<unsigned long*>::operator*() const
FUNC 24965 39 0 decltype (_S_construct({parm#1}, {parm#2}, (forward<unsigned long>)({parm#3}))) std::allocator_traits<google_breakpad::PageStdAllocator<unsigned long> >::construct<unsigned long, unsigned long>(google_breakpad::PageStdAllocator<unsigned long>&, unsigned long*, unsigned long&&)
FUNC 2499e 13 0 google_breakpad::PageStdAllocator<unsigned long>::deallocate(unsigned long*, unsigned long)
FUNC 249b2 f 0 void __gnu_cxx::new_allocator<unsigned long>::destroy<unsigned long>(unsigned long*)
FUNC 249c1 26 0 std::enable_if<std::__and_<std::allocator_traits<google_breakpad::PageStdAllocator<unsigned long> >::__construct_helper<unsigned long>::type>::value, void>::type std::allocator_traits<google_breakpad::PageStdAllocator<unsigned long> >::_S_construct<unsigned long>(google_breakpad::PageStdAllocator<unsigned long>&, unsigned long*)
FUNC 249e8 50 0 google_breakpad::PageStdAllocator<unsigned long>::allocate(unsigned long, void const*)
FUNC 24a38 50 0 google_breakpad::PageStdAllocator<google_breakpad::MappingInfo*>::allocate(unsigned long, void const*)
FUNC 24a88 f 0 __gnu_cxx::new_allocator<int>::new_allocator(__gnu_cxx::new_allocator<int> const&)
FUNC 24a98 14 0 __gnu_cxx::new_allocator<int>::max_size() const
FUNC 24aac 50 0 google_breakpad::PageStdAllocator<int>::allocate(unsigned long, void const*)
FUNC 24afc 39 0 bool std::operator==<int*>(std::move_iterator<int*> const&, std::move_iterator<int*> const&)
FUNC 24b35 39 0 std::enable_if<std::__and_<std::allocator_traits<google_breakpad::PageStdAllocator<int> >::__construct_helper<int, int>::type>::value, void>::type std::allocator_traits<google_breakpad::PageStdAllocator<int> >::_S_construct<int, int>(google_breakpad::PageStdAllocator<int>&, int*, int&&)
FUNC 24b6e f 0 __gnu_cxx::new_allocator<google_breakpad::MappingInfo*>::new_allocator(__gnu_cxx::new_allocator<google_breakpad::MappingInfo*> const&)
FUNC 24b7e 14 0 __gnu_cxx::new_allocator<google_breakpad::MappingInfo*>::max_size() const
FUNC 24b92 39 0 bool std::operator==<google_breakpad::MappingInfo**>(std::move_iterator<google_breakpad::MappingInfo**> const&, std::move_iterator<google_breakpad::MappingInfo**> const&)
FUNC 24bcb 39 0 std::enable_if<std::__and_<std::allocator_traits<google_breakpad::PageStdAllocator<google_breakpad::MappingInfo*> >::__construct_helper<google_breakpad::MappingInfo*, google_breakpad::MappingInfo*>::type>::value, void>::type std::allocator_traits<google_breakpad::PageStdAllocator<google_breakpad::MappingInfo*> >::_S_construct<google_breakpad::MappingInfo*, google_breakpad::MappingInfo*>(google_breakpad::PageStdAllocator<google_breakpad::MappingInfo*>&, google_breakpad::MappingInfo**, google_breakpad::MappingInfo*&&)
FUNC 24c04 f 0 __gnu_cxx::new_allocator<unsigned long>::new_allocator(__gnu_cxx::new_allocator<unsigned long> const&)
FUNC 24c14 14 0 __gnu_cxx::new_allocator<unsigned long>::max_size() const
FUNC 24c28 39 0 bool std::operator==<unsigned long*>(std::move_iterator<unsigned long*> const&, std::move_iterator<unsigned long*> const&)
FUNC 24c61 39 0 std::enable_if<std::__and_<std::allocator_traits<google_breakpad::PageStdAllocator<unsigned long> >::__construct_helper<unsigned long, unsigned long>::type>::value, void>::type std::allocator_traits<google_breakpad::PageStdAllocator<unsigned long> >::_S_construct<unsigned long, unsigned long>(google_breakpad::PageStdAllocator<unsigned long>&, unsigned long*, unsigned long&&)
FUNC 24c9a 30 0 void __gnu_cxx::new_allocator<unsigned long>::construct<unsigned long>(unsigned long*)
FUNC 24cca 11 0 std::move_iterator<int*>::base() const
FUNC 24cdc 43 0 void __gnu_cxx::new_allocator<int>::construct<int, int>(int*, int&&)
FUNC 24d20 11 0 std::move_iterator<google_breakpad::MappingInfo**>::base() const
FUNC 24d32 45 0 void __gnu_cxx::new_allocator<google_breakpad::MappingInfo*>::construct<google_breakpad::MappingInfo*, google_breakpad::MappingInfo*>(google_breakpad::MappingInfo**, google_breakpad::MappingInfo*&&)
FUNC 24d78 11 0 std::move_iterator<unsigned long*>::base() const
FUNC 24d8a 45 0 void __gnu_cxx::new_allocator<unsigned long>::construct<unsigned long, unsigned long>(unsigned long*, unsigned long&&)
FUNC 24dd0 49 0 sys_close
FUNC 24e19 5a 0 sys_getdents
FUNC 24e73 5a 0 sys_open
FUNC 24ecd 68 0 sys_ptrace
FUNC 24f35 59 0 sys_read
FUNC 24f8e 68 0 sys_wait4
FUNC 24ff6 8e 0 sys_mmap
FUNC 25084 2a 0 sys_waitpid
FUNC 250ae 119 0 SuspendThread
FUNC 251c7 2d 0 ResumeThread
FUNC 251f4 47 0 google_breakpad::LinuxPtraceDumper::LinuxPtraceDumper(int)
FUNC 2523c 106 0 google_breakpad::LinuxPtraceDumper::BuildProcPath(char*, int, char const*) const
FUNC 25342 c9 0 google_breakpad::LinuxPtraceDumper::CopyFromProcess(void*, int, void const*, unsigned long)
FUNC 2540c aa 0 google_breakpad::LinuxPtraceDumper::ReadRegisterSet(google_breakpad::ThreadInfo*, int)
FUNC 254b6 a4 0 google_breakpad::LinuxPtraceDumper::ReadRegisters(google_breakpad::ThreadInfo*, int)
FUNC 2555a 332 0 google_breakpad::LinuxPtraceDumper::GetThreadInfoByIndex(unsigned long, google_breakpad::ThreadInfo*)
FUNC 2588c f 0 google_breakpad::LinuxPtraceDumper::IsPostMortem() const
FUNC 2589c 158 0 google_breakpad::LinuxPtraceDumper::ThreadsSuspend()
FUNC 259f4 95 0 google_breakpad::LinuxPtraceDumper::ThreadsResume()
FUNC 25a8a 1a9 0 google_breakpad::LinuxPtraceDumper::EnumerateThreads()
FUNC 25c34 22 0 google_breakpad::DirectoryReader::DirectoryReader(int)
FUNC 25c56 d1 0 google_breakpad::DirectoryReader::GetNextEntry(char const**)
FUNC 25d28 79 0 google_breakpad::DirectoryReader::PopEntry()
FUNC 25da2 21 0 std::vector<int, google_breakpad::PageStdAllocator<int> >::operator[](unsigned long)
FUNC 25dc4 8d 0 std::vector<int, google_breakpad::PageStdAllocator<int> >::resize(unsigned long)
FUNC 25e51 e 0 int const& std::forward<int const&>(std::remove_reference<int const&>::type&)
FUNC 25e60 6c 0 std::vector<int, google_breakpad::PageStdAllocator<int> >::push_back(int const&)
FUNC 25ecc 20e 0 std::vector<int, google_breakpad::PageStdAllocator<int> >::_M_default_append(unsigned long)
FUNC 260da 45 0 std::vector<int, google_breakpad::PageStdAllocator<int> >::_M_erase_at_end(int*)
FUNC 2611f 39 0 decltype (_S_construct({parm#1}, {parm#2}, (forward<int const&>)({parm#3}))) std::allocator_traits<google_breakpad::PageStdAllocator<int> >::construct<int, int const&>(google_breakpad::PageStdAllocator<int>&, int*, int const&)
FUNC 26158 1f1 0 void std::vector<int, google_breakpad::PageStdAllocator<int> >::_M_emplace_back_aux<int const&>(int const&)
FUNC 26349 92 0 int* std::__uninitialized_default_n_a<int*, unsigned long, google_breakpad::PageStdAllocator<int> >(int*, unsigned long, google_breakpad::PageStdAllocator<int>&)
FUNC 263dc c9 0 std::vector<int, google_breakpad::PageStdAllocator<int> >::_M_check_len(unsigned long, char const*) const
FUNC 264a5 54 0 int* std::__uninitialized_move_if_noexcept_a<int*, int*, google_breakpad::PageStdAllocator<int> >(int*, int*, int*, google_breakpad::PageStdAllocator<int>&)
FUNC 264f9 39 0 std::enable_if<std::__and_<std::allocator_traits<google_breakpad::PageStdAllocator<int> >::__construct_helper<int, int const&>::type>::value, void>::type std::allocator_traits<google_breakpad::PageStdAllocator<int> >::_S_construct<int, int const&>(google_breakpad::PageStdAllocator<int>&, int*, int const&)
FUNC 26532 26 0 decltype (_S_construct({parm#1}, {parm#2})) std::allocator_traits<google_breakpad::PageStdAllocator<int> >::construct<int>(google_breakpad::PageStdAllocator<int>&, int*)
FUNC 26558 43 0 void __gnu_cxx::new_allocator<int>::construct<int, int const&>(int*, int const&)
FUNC 2659b 26 0 std::enable_if<std::__and_<std::allocator_traits<google_breakpad::PageStdAllocator<int> >::__construct_helper<int>::type>::value, void>::type std::allocator_traits<google_breakpad::PageStdAllocator<int> >::_S_construct<int>(google_breakpad::PageStdAllocator<int>&, int*)
FUNC 265c2 2f 0 void __gnu_cxx::new_allocator<int>::construct<int>(int*)
FUNC 265f1 59 0 sys_write
FUNC 2664a 27 0 logger::write(char const*, unsigned long)
FUNC 26672 49 0 sys_close
FUNC 266bb 5a 0 sys_lseek
FUNC 26715 5a 0 sys_open
FUNC 2676f 59 0 sys_write
FUNC 267c8 34 0 google_breakpad::MinidumpFileWriter::MinidumpFileWriter()
FUNC 267fc 27 0 google_breakpad::MinidumpFileWriter::~MinidumpFileWriter()
FUNC 26824 66 0 google_breakpad::MinidumpFileWriter::Open(char const*)
FUNC 2688a 4d 0 google_breakpad::MinidumpFileWriter::SetFile(int)
FUNC 268d8 69 0 google_breakpad::MinidumpFileWriter::Close()
FUNC 26942 b3 0 google_breakpad::MinidumpFileWriter::CopyStringToMDString(wchar_t const*, unsigned int, google_breakpad::TypedMDRVA<MDString>*)
FUNC 269f6 ba 0 google_breakpad::MinidumpFileWriter::CopyStringToMDString(char const*, unsigned int, google_breakpad::TypedMDRVA<MDString>*)
FUNC 26ab0 30 0 google_breakpad::MinidumpFileWriter::WriteString(wchar_t const*, unsigned int, MDLocationDescriptor*)
FUNC 26ae0 30 0 google_breakpad::MinidumpFileWriter::WriteString(char const*, unsigned int, MDLocationDescriptor*)
FUNC 26b10 f8 0 google_breakpad::MinidumpFileWriter::WriteMemory(void const*, unsigned long, MDMemoryDescriptor*)
FUNC 26c08 11a 0 google_breakpad::MinidumpFileWriter::Allocate(unsigned long)
FUNC 26d22 114 0 google_breakpad::MinidumpFileWriter::Copy(unsigned int, void const*, long)
FUNC 26e36 7a 0 google_breakpad::UntypedMDRVA::Allocate(unsigned long)
FUNC 26eb0 c8 0 google_breakpad::UntypedMDRVA::Copy(unsigned int, void const*, unsigned long)
FUNC 26f78 12 0 google_breakpad::UntypedMDRVA::size() const
FUNC 26f8a b 0 google_breakpad::minidump_size<MDString>::size()
FUNC 26f96 12 0 google_breakpad::TypedMDRVA<MDString>::get()
FUNC 26fa8 84 0 google_breakpad::TypedMDRVA<MDString>::CopyIndexAfterObject(unsigned int, void const*, unsigned long)
FUNC 2702c 180 0 bool google_breakpad::MinidumpFileWriter::WriteStringCore<wchar_t>(wchar_t const*, unsigned int, MDLocationDescriptor*)
FUNC 271ac 17d 0 bool google_breakpad::MinidumpFileWriter::WriteStringCore<char>(char const*, unsigned int, MDLocationDescriptor*)
FUNC 2732a 46 0 google_breakpad::TypedMDRVA<MDString>::TypedMDRVA(google_breakpad::MinidumpFileWriter*)
FUNC 27370 27 0 google_breakpad::TypedMDRVA<MDString>::~TypedMDRVA()
FUNC 27398 71 0 google_breakpad::TypedMDRVA<MDString>::AllocateObjectAndArray(unsigned long, unsigned long)
FUNC 2740a 34 0 google_breakpad::TypedMDRVA<MDString>::Flush()
FUNC 2743e 35 0 my_strlen
FUNC 27473 5e 0 my_strcmp
FUNC 274d1 7e 0 my_strncmp
FUNC 2754f 99 0 my_strtoui
FUNC 275e8 4b 0 my_uint_len
FUNC 27633 82 0 my_uitos
FUNC 276b5 44 0 my_strchr
FUNC 276f9 41 0 my_strrchr
FUNC 2773a 53 0 my_memchr
FUNC 2778d bd 0 my_read_hex_ptr
FUNC 2784a 6a 0 my_read_decimal_ptr
FUNC 278b4 46 0 my_memset
FUNC 278fa 82 0 my_strlcpy
FUNC 2797c 80 0 my_strlcat
FUNC 279fc 4f 0 my_isspace
FUNC 27a4c 53 0 sys_munmap
FUNC 27a9f 8e 0 sys_mmap
FUNC 27b2e 63 0 google_breakpad::FileID::FileID(char const*)
FUNC 27b91 100 0 google_breakpad::ElfClassBuildIDNoteIdentifier
FUNC 27c91 1b0 0 google_breakpad::FindElfBuildIDNote
FUNC 27e41 116 0 google_breakpad::HashElfTextSection
FUNC 27f58 43 0 google_breakpad::FileID::ElfFileIdentifierFromMappedFile(void const*, google_breakpad::wasteful_vector<unsigned char>&)
FUNC 27f9c a2 0 google_breakpad::FileID::ElfFileIdentifier(google_breakpad::wasteful_vector<unsigned char>&)
FUNC 2803e 9f 0 google_breakpad::bytes_to_hex_string
FUNC 280de f9 0 google_breakpad::FileID::ConvertIdentifierToUUIDString[abi:cxx11](google_breakpad::wasteful_vector<unsigned char> const&)
FUNC 281d8 51 0 google_breakpad::FileID::ConvertIdentifierToString[abi:cxx11](google_breakpad::wasteful_vector<unsigned char> const&)
FUNC 2822a 1b 0 google_breakpad::wasteful_vector<google_breakpad::ElfSegment>::~wasteful_vector()
FUNC 28246 1b 0 google_breakpad::auto_wasteful_vector<google_breakpad::ElfSegment, 2u>::~auto_wasteful_vector()
FUNC 28262 1b 0 google_breakpad::PageStdAllocator<google_breakpad::ElfSegment>::~PageStdAllocator()
FUNC 2827e 81 0 google_breakpad::auto_wasteful_vector<google_breakpad::ElfSegment, 2u>::auto_wasteful_vector(google_breakpad::PageAllocator*)
FUNC 28300 45 0 std::vector<google_breakpad::ElfSegment, google_breakpad::PageStdAllocator<google_breakpad::ElfSegment> >::~vector()
FUNC 28346 29 0 std::vector<google_breakpad::ElfSegment, google_breakpad::PageStdAllocator<google_breakpad::ElfSegment> >::begin()
FUNC 28370 29 0 std::vector<google_breakpad::ElfSegment, google_breakpad::PageStdAllocator<google_breakpad::ElfSegment> >::end()
FUNC 28399 3c 0 bool __gnu_cxx::operator!=<google_breakpad::ElfSegment*, std::vector<google_breakpad::ElfSegment, google_breakpad::PageStdAllocator<google_breakpad::ElfSegment> > >(__gnu_cxx::__normal_iterator<google_breakpad::ElfSegment*, std::vector<google_breakpad::ElfSegment, google_breakpad::PageStdAllocator<google_breakpad::ElfSegment> > > const&, __gnu_cxx::__normal_iterator<google_breakpad::ElfSegment*, std::vector<google_breakpad::ElfSegment, google_breakpad::PageStdAllocator<google_breakpad::ElfSegment> > > const&)
FUNC 283d6 20 0 __gnu_cxx::__normal_iterator<google_breakpad::ElfSegment*, std::vector<google_breakpad::ElfSegment, google_breakpad::PageStdAllocator<google_breakpad::ElfSegment> > >::operator++()
FUNC 283f6 11 0 __gnu_cxx::__normal_iterator<google_breakpad::ElfSegment*, std::vector<google_breakpad::ElfSegment, google_breakpad::PageStdAllocator<google_breakpad::ElfSegment> > >::operator*() const
FUNC 28408 89 0 std::vector<unsigned char, google_breakpad::PageStdAllocator<unsigned char> >::resize(unsigned long)
FUNC 28492 1d 0 std::vector<unsigned char, google_breakpad::PageStdAllocator<unsigned char> >::operator[](unsigned long) const
FUNC 284b0 4a 0 google_breakpad::PageStdAllocator<google_breakpad::ElfSegment>::PageStdAllocator(google_breakpad::PageAllocator&, google_breakpad::ElfSegment*, unsigned long)
FUNC 284fa 1b 0 std::allocator<google_breakpad::ElfSegment>::~allocator()
FUNC 28516 26 0 std::allocator<google_breakpad::ElfSegment>::allocator(std::allocator<google_breakpad::ElfSegment> const&)
FUNC 2853c 26 0 google_breakpad::wasteful_vector<google_breakpad::ElfSegment>::wasteful_vector(google_breakpad::PageStdAllocator<google_breakpad::ElfSegment>)
FUNC 28562 146 0 std::vector<google_breakpad::ElfSegment, google_breakpad::PageStdAllocator<google_breakpad::ElfSegment> >::reserve(unsigned long)
FUNC 286a8 1b 0 std::_Vector_base<google_breakpad::ElfSegment, google_breakpad::PageStdAllocator<google_breakpad::ElfSegment> >::_Vector_impl::~_Vector_impl()
FUNC 286c4 52 0 std::_Vector_base<google_breakpad::ElfSegment, google_breakpad::PageStdAllocator<google_breakpad::ElfSegment> >::~_Vector_base()
FUNC 28716 e 0 std::_Vector_base<google_breakpad::ElfSegment, google_breakpad::PageStdAllocator<google_breakpad::ElfSegment> >::_M_get_Tp_allocator()
FUNC 28724 46 0 void std::_Destroy<google_breakpad::ElfSegment*, google_breakpad::PageStdAllocator<google_breakpad::ElfSegment> >(google_breakpad::ElfSegment*, google_breakpad::ElfSegment*, google_breakpad::PageStdAllocator<google_breakpad::ElfSegment>&)
FUNC 2876a 1d 0 __gnu_cxx::__normal_iterator<google_breakpad::ElfSegment*, std::vector<google_breakpad::ElfSegment, google_breakpad::PageStdAllocator<google_breakpad::ElfSegment> > >::__normal_iterator(google_breakpad::ElfSegment* const&)
FUNC 28788 e 0 __gnu_cxx::__normal_iterator<google_breakpad::ElfSegment*, std::vector<google_breakpad::ElfSegment, google_breakpad::PageStdAllocator<google_breakpad::ElfSegment> > >::base() const
FUNC 28796 1fe 0 std::vector<unsigned char, google_breakpad::PageStdAllocator<unsigned char> >::_M_default_append(unsigned long)
FUNC 28994 45 0 std::vector<unsigned char, google_breakpad::PageStdAllocator<unsigned char> >::_M_erase_at_end(unsigned char*)
FUNC 289da 1b 0 std::allocator<google_breakpad::ElfSegment>::allocator()
FUNC 289f6 b 0 __gnu_cxx::new_allocator<google_breakpad::ElfSegment>::~new_allocator()
FUNC 28a02 f 0 __gnu_cxx::new_allocator<google_breakpad::ElfSegment>::new_allocator(__gnu_cxx::new_allocator<google_breakpad::ElfSegment> const&)
FUNC 28a12 26 0 std::vector<google_breakpad::ElfSegment, google_breakpad::PageStdAllocator<google_breakpad::ElfSegment> >::vector(google_breakpad::PageStdAllocator<google_breakpad::ElfSegment> const&)
FUNC 28a38 22 0 std::vector<google_breakpad::ElfSegment, google_breakpad::PageStdAllocator<google_breakpad::ElfSegment> >::max_size() const
FUNC 28a5a 27 0 std::vector<google_breakpad::ElfSegment, google_breakpad::PageStdAllocator<google_breakpad::ElfSegment> >::capacity() const
FUNC 28a82 27 0 std::vector<google_breakpad::ElfSegment, google_breakpad::PageStdAllocator<google_breakpad::ElfSegment> >::size() const
FUNC 28aa9 25 0 std::move_iterator<google_breakpad::ElfSegment*> std::__make_move_if_noexcept_iterator<google_breakpad::ElfSegment, std::move_iterator<google_breakpad::ElfSegment*> >(google_breakpad::ElfSegment*)
FUNC 28ace 97 0 google_breakpad::ElfSegment* std::vector<google_breakpad::ElfSegment, google_breakpad::PageStdAllocator<google_breakpad::ElfSegment> >::_M_allocate_and_copy<std::move_iterator<google_breakpad::ElfSegment*> >(unsigned long, std::move_iterator<google_breakpad::ElfSegment*>, std::move_iterator<google_breakpad::ElfSegment*>)
FUNC 28b66 35 0 std::_Vector_base<google_breakpad::ElfSegment, google_breakpad::PageStdAllocator<google_breakpad::ElfSegment> >::_M_deallocate(google_breakpad::ElfSegment*, unsigned long)
FUNC 28b9b e 0 google_breakpad::ElfSegment* std::__addressof<google_breakpad::ElfSegment>(google_breakpad::ElfSegment&)
FUNC 28ba9 2b 0 void std::allocator_traits<google_breakpad::PageStdAllocator<google_breakpad::ElfSegment> >::destroy<google_breakpad::ElfSegment>(google_breakpad::PageStdAllocator<google_breakpad::ElfSegment>&, google_breakpad::ElfSegment*)
FUNC 28bd4 92 0 unsigned char* std::__uninitialized_default_n_a<unsigned char*, unsigned long, google_breakpad::PageStdAllocator<unsigned char> >(unsigned char*, unsigned long, google_breakpad::PageStdAllocator<unsigned char>&)
FUNC 28c66 b 0 __gnu_cxx::new_allocator<google_breakpad::ElfSegment>::new_allocator()
FUNC 28c72 26 0 std::_Vector_base<google_breakpad::ElfSegment, google_breakpad::PageStdAllocator<google_breakpad::ElfSegment> >::_Vector_base(google_breakpad::PageStdAllocator<google_breakpad::ElfSegment> const&)
FUNC 28c98 1f 0 std::allocator_traits<google_breakpad::PageStdAllocator<google_breakpad::ElfSegment> >::max_size(google_breakpad::PageStdAllocator<google_breakpad::ElfSegment> const&)
FUNC 28cb8 e 0 std::_Vector_base<google_breakpad::ElfSegment, google_breakpad::PageStdAllocator<google_breakpad::ElfSegment> >::_M_get_Tp_allocator() const
FUNC 28cc6 1a 0 std::move_iterator<google_breakpad::ElfSegment*>::move_iterator(google_breakpad::ElfSegment*)
FUNC 28ce0 33 0 std::_Vector_base<google_breakpad::ElfSegment, google_breakpad::PageStdAllocator<google_breakpad::ElfSegment> >::_M_allocate(unsigned long)
FUNC 28d13 e 0 google_breakpad::ElfSegment&& std::forward<google_breakpad::ElfSegment>(std::remove_reference<google_breakpad::ElfSegment>::type&)
FUNC 28d21 bf 0 google_breakpad::ElfSegment* std::__uninitialized_copy_a<std::move_iterator<google_breakpad::ElfSegment*>, google_breakpad::ElfSegment*, google_breakpad::PageStdAllocator<google_breakpad::ElfSegment> >(std::move_iterator<google_breakpad::ElfSegment*>, std::move_iterator<google_breakpad::ElfSegment*>, google_breakpad::ElfSegment*, google_breakpad::PageStdAllocator<google_breakpad::ElfSegment>&)
FUNC 28de0 2e 0 std::allocator_traits<google_breakpad::PageStdAllocator<google_breakpad::ElfSegment> >::deallocate(google_breakpad::PageStdAllocator<google_breakpad::ElfSegment>&, google_breakpad::ElfSegment*, unsigned long)
FUNC 28e0e 29 0 decltype (({parm#1}.destroy)({parm#2})) std::allocator_traits<google_breakpad::PageStdAllocator<google_breakpad::ElfSegment> >::_S_destroy<google_breakpad::PageStdAllocator<google_breakpad::ElfSegment>, google_breakpad::ElfSegment>(google_breakpad::PageStdAllocator<google_breakpad::ElfSegment>&, google_breakpad::ElfSegment*, int)
FUNC 28e37 26 0 decltype (_S_construct({parm#1}, {parm#2})) std::allocator_traits<google_breakpad::PageStdAllocator<unsigned char> >::construct<unsigned char>(google_breakpad::PageStdAllocator<unsigned char>&, unsigned char*)
FUNC 28e5e 54 0 google_breakpad::PageStdAllocator<google_breakpad::ElfSegment>::PageStdAllocator(google_breakpad::PageStdAllocator<google_breakpad::ElfSegment> const&)
FUNC 28eb2 4a 0 std::_Vector_base<google_breakpad::ElfSegment, google_breakpad::PageStdAllocator<google_breakpad::ElfSegment> >::_Vector_impl::_Vector_impl(google_breakpad::PageStdAllocator<google_breakpad::ElfSegment> const&)
FUNC 28efc 1d 0 decltype (({parm#1}.max_size)()) std::allocator_traits<google_breakpad::PageStdAllocator<google_breakpad::ElfSegment> >::_S_max_size<google_breakpad::PageStdAllocator<google_breakpad::ElfSegment> const>(google_breakpad::PageStdAllocator<google_breakpad::ElfSegment> const&, int)
FUNC 28f19 2a 0 std::allocator_traits<google_breakpad::PageStdAllocator<google_breakpad::ElfSegment> >::allocate(google_breakpad::PageStdAllocator<google_breakpad::ElfSegment>&, unsigned long)
FUNC 28f43 28 0 bool std::operator!=<google_breakpad::ElfSegment*>(std::move_iterator<google_breakpad::ElfSegment*> const&, std::move_iterator<google_breakpad::ElfSegment*> const&)
FUNC 28f6c 20 0 std::move_iterator<google_breakpad::ElfSegment*>::operator++()
FUNC 28f8c 11 0 std::move_iterator<google_breakpad::ElfSegment*>::operator*() const
FUNC 28f9d 39 0 decltype (_S_construct({parm#1}, {parm#2}, (forward<google_breakpad::ElfSegment>)({parm#3}))) std::allocator_traits<google_breakpad::PageStdAllocator<google_breakpad::ElfSegment> >::construct<google_breakpad::ElfSegment, google_breakpad::ElfSegment>(google_breakpad::PageStdAllocator<google_breakpad::ElfSegment>&, google_breakpad::ElfSegment*, google_breakpad::ElfSegment&&)
FUNC 28fd6 13 0 google_breakpad::PageStdAllocator<google_breakpad::ElfSegment>::deallocate(google_breakpad::ElfSegment*, unsigned long)
FUNC 28fea f 0 void __gnu_cxx::new_allocator<google_breakpad::ElfSegment>::destroy<google_breakpad::ElfSegment>(google_breakpad::ElfSegment*)
FUNC 28ff9 26 0 std::enable_if<std::__and_<std::allocator_traits<google_breakpad::PageStdAllocator<unsigned char> >::__construct_helper<unsigned char>::type>::value, void>::type std::allocator_traits<google_breakpad::PageStdAllocator<unsigned char> >::_S_construct<unsigned char>(google_breakpad::PageStdAllocator<unsigned char>&, unsigned char*)
FUNC 29020 14 0 __gnu_cxx::new_allocator<google_breakpad::ElfSegment>::max_size() const
FUNC 29034 50 0 google_breakpad::PageStdAllocator<google_breakpad::ElfSegment>::allocate(unsigned long, void const*)
FUNC 29084 39 0 bool std::operator==<google_breakpad::ElfSegment*>(std::move_iterator<google_breakpad::ElfSegment*> const&, std::move_iterator<google_breakpad::ElfSegment*> const&)
FUNC 290bd 39 0 std::enable_if<std::__and_<std::allocator_traits<google_breakpad::PageStdAllocator<google_breakpad::ElfSegment> >::__construct_helper<google_breakpad::ElfSegment, google_breakpad::ElfSegment>::type>::value, void>::type std::allocator_traits<google_breakpad::PageStdAllocator<google_breakpad::ElfSegment> >::_S_construct<google_breakpad::ElfSegment, google_breakpad::ElfSegment>(google_breakpad::PageStdAllocator<google_breakpad::ElfSegment>&, google_breakpad::ElfSegment*, google_breakpad::ElfSegment&&)
FUNC 290f6 2c 0 void __gnu_cxx::new_allocator<unsigned char>::construct<unsigned char>(unsigned char*)
FUNC 29122 11 0 std::move_iterator<google_breakpad::ElfSegment*>::base() const
FUNC 29134 53 0 void __gnu_cxx::new_allocator<google_breakpad::ElfSegment>::construct<google_breakpad::ElfSegment, google_breakpad::ElfSegment>(google_breakpad::ElfSegment*, google_breakpad::ElfSegment&&)
FUNC 29188 49 0 sys_close
FUNC 291d1 54 0 sys_fstat
FUNC 29225 53 0 sys_munmap
FUNC 29278 5a 0 sys_open
FUNC 292d2 8e 0 sys_mmap
FUNC 29360 1b 0 google_breakpad::MemoryMappedFile::MemoryMappedFile()
FUNC 2937c 3a 0 google_breakpad::MemoryMappedFile::MemoryMappedFile(char const*, unsigned long)
FUNC 293b6 1b 0 google_breakpad::MemoryMappedFile::~MemoryMappedFile()
FUNC 293d2 139 0 google_breakpad::MemoryMappedFile::Map(char const*, unsigned long)
FUNC 2950c 67 0 google_breakpad::MemoryMappedFile::Unmap()
FUNC 29574 22 0 google_breakpad::MemoryRange::MemoryRange()
FUNC 29596 38 0 google_breakpad::MemoryRange::Set(void const*, unsigned long)
FUNC 295ce 5b 0 sys_readlink
FUNC 29629 5e 0 google_breakpad::SafeReadLink(char const*, char*, unsigned long)
FUNC 29687 1a 0 CreateGUID(MDGUID*)
FUNC 296a1 d2 0 GUIDToString(MDGUID const*, char*, int)
FUNC 29773 4d 0 GUIDGenerator::BytesToUInt32(unsigned char const*)
FUNC 297c0 9f 0 GUIDGenerator::CreateGUID(MDGUID*)
FUNC 2985f 20 0 GUIDGenerator::InitOnce()
FUNC 2987f 27 0 GUIDGenerator::InitOnceImpl()
FUNC 298a6 85 0 GUIDGenerator::CreateGUIDFromDevUrandom(MDGUID*)
FUNC 2992b 4b 0 GUIDGenerator::CreateGUIDFromRand(MDGUID*)
FUNC 29976 8e 0 sys_mmap
FUNC 29a04 2b 0 google_breakpad::IsValidElf(void const*)
FUNC 29a2f 1d 0 google_breakpad::ElfClass(void const*)
FUNC 29a4c 14a 0 google_breakpad::FindElfSection(void const*, char const*, unsigned int, void const**, unsigned long*)
FUNC 29b96 df 0 google_breakpad::FindElfSegments(void const*, unsigned int, google_breakpad::wasteful_vector<google_breakpad::ElfSegment>*)
FUNC 29c75 1db 0 FindElfClassSection<google_breakpad::ElfClass32>
FUNC 29e50 1d4 0 FindElfClassSection<google_breakpad::ElfClass64>
FUNC 2a024 191 0 FindElfClassSegment<google_breakpad::ElfClass32>
FUNC 2a1b5 1b1 0 FindElfClassSegment<google_breakpad::ElfClass64>
FUNC 2a366 17 0 Elf32_Shdr const* google_breakpad::GetOffset<google_breakpad::ElfClass32, Elf32_Shdr>(google_breakpad::ElfClass32::Ehdr const*, google_breakpad::ElfClass32::Off)
FUNC 2a37d 17 0 char const* google_breakpad::GetOffset<google_breakpad::ElfClass32, char>(google_breakpad::ElfClass32::Ehdr const*, google_breakpad::ElfClass32::Off)
FUNC 2a394 184 0 google_breakpad::ElfClass32::Shdr const* google_breakpad::FindElfSectionByName<google_breakpad::ElfClass32>(char const*, google_breakpad::ElfClass32::Word, google_breakpad::ElfClass32::Shdr const*, char const*, char const*, int)
FUNC 2a518 19 0 Elf64_Shdr const* google_breakpad::GetOffset<google_breakpad::ElfClass64, Elf64_Shdr>(google_breakpad::ElfClass64::Ehdr const*, google_breakpad::ElfClass64::Off)
FUNC 2a531 19 0 char const* google_breakpad::GetOffset<google_breakpad::ElfClass64, char>(google_breakpad::ElfClass64::Ehdr const*, google_breakpad::ElfClass64::Off)
FUNC 2a54a 163 0 google_breakpad::ElfClass64::Shdr const* google_breakpad::FindElfSectionByName<google_breakpad::ElfClass64>(char const*, google_breakpad::ElfClass64::Word, google_breakpad::ElfClass64::Shdr const*, char const*, char const*, int)
FUNC 2a6ad 17 0 Elf32_Phdr const* google_breakpad::GetOffset<google_breakpad::ElfClass32, Elf32_Phdr>(google_breakpad::ElfClass32::Ehdr const*, google_breakpad::ElfClass32::Off)
FUNC 2a6c4 e 0 google_breakpad::ElfSegment const& std::forward<google_breakpad::ElfSegment const&>(std::remove_reference<google_breakpad::ElfSegment const&>::type&)
FUNC 2a6d2 6c 0 std::vector<google_breakpad::ElfSegment, google_breakpad::PageStdAllocator<google_breakpad::ElfSegment> >::push_back(google_breakpad::ElfSegment const&)
FUNC 2a73e 19 0 Elf64_Phdr const* google_breakpad::GetOffset<google_breakpad::ElfClass64, Elf64_Phdr>(google_breakpad::ElfClass64::Ehdr const*, google_breakpad::ElfClass64::Off)
FUNC 2a757 39 0 decltype (_S_construct({parm#1}, {parm#2}, (forward<google_breakpad::ElfSegment const&>)({parm#3}))) std::allocator_traits<google_breakpad::PageStdAllocator<google_breakpad::ElfSegment> >::construct<google_breakpad::ElfSegment, google_breakpad::ElfSegment const&>(google_breakpad::PageStdAllocator<google_breakpad::ElfSegment>&, google_breakpad::ElfSegment*, google_breakpad::ElfSegment const&)
FUNC 2a790 1ee 0 void std::vector<google_breakpad::ElfSegment, google_breakpad::PageStdAllocator<google_breakpad::ElfSegment> >::_M_emplace_back_aux<google_breakpad::ElfSegment const&>(google_breakpad::ElfSegment const&)
FUNC 2a97e 39 0 std::enable_if<std::__and_<std::allocator_traits<google_breakpad::PageStdAllocator<google_breakpad::ElfSegment> >::__construct_helper<google_breakpad::ElfSegment, google_breakpad::ElfSegment const&>::type>::value, void>::type std::allocator_traits<google_breakpad::PageStdAllocator<google_breakpad::ElfSegment> >::_S_construct<google_breakpad::ElfSegment, google_breakpad::ElfSegment const&>(google_breakpad::PageStdAllocator<google_breakpad::ElfSegment>&, google_breakpad::ElfSegment*, google_breakpad::ElfSegment const&)
FUNC 2a9b8 c9 0 std::vector<google_breakpad::ElfSegment, google_breakpad::PageStdAllocator<google_breakpad::ElfSegment> >::_M_check_len(unsigned long, char const*) const
FUNC 2aa81 54 0 google_breakpad::ElfSegment* std::__uninitialized_move_if_noexcept_a<google_breakpad::ElfSegment*, google_breakpad::ElfSegment*, google_breakpad::PageStdAllocator<google_breakpad::ElfSegment> >(google_breakpad::ElfSegment*, google_breakpad::ElfSegment*, google_breakpad::ElfSegment*, google_breakpad::PageStdAllocator<google_breakpad::ElfSegment>&)
FUNC 2aad6 53 0 void __gnu_cxx::new_allocator<google_breakpad::ElfSegment>::construct<google_breakpad::ElfSegment, google_breakpad::ElfSegment const&>(google_breakpad::ElfSegment*, google_breakpad::ElfSegment const&)
FUNC 2ab29 122 0 google_breakpad::UTF8ToUTF16(char const*, std::vector<unsigned short, std::allocator<unsigned short> >*)
FUNC 2ac4b b6 0 google_breakpad::UTF8ToUTF16Char(char const*, int, unsigned short*)
FUNC 2ad01 126 0 google_breakpad::UTF32ToUTF16(wchar_t const*, std::vector<unsigned short, std::allocator<unsigned short> >*)
FUNC 2ae27 8f 0 google_breakpad::UTF32ToUTF16Char(wchar_t, unsigned short*)
FUNC 2aeb6 1e 0 google_breakpad::Swap
FUNC 2aed4 2c3 0 google_breakpad::UTF16ToUTF8[abi:cxx11](std::vector<unsigned short, std::allocator<unsigned short> > const&, bool)
FUNC 2b198 25 0 std::vector<unsigned short, std::allocator<unsigned short> >::clear()
FUNC 2b1be 25 0 std::vector<unsigned short, std::allocator<unsigned short> >::begin()
FUNC 2b1e4 29 0 __gnu_cxx::__normal_iterator<unsigned short const*, std::vector<unsigned short, std::allocator<unsigned short> > >::__normal_iterator<unsigned short*>(__gnu_cxx::__normal_iterator<unsigned short*, __gnu_cxx::__enable_if<std::__are_same<unsigned short*, unsigned short*>::__value, std::vector<unsigned short, std::allocator<unsigned short> > >::__type> const&)
FUNC 2b20e 9e 0 std::vector<unsigned short, std::allocator<unsigned short> >::insert(__gnu_cxx::__normal_iterator<unsigned short const*, std::vector<unsigned short, std::allocator<unsigned short> > >, unsigned long, unsigned short const&)
FUNC 2b2ac 1f 0 std::vector<unsigned short, std::allocator<unsigned short> >::operator[](unsigned long)
FUNC 2b2cc 25 0 std::vector<unsigned short, std::allocator<unsigned short> >::capacity() const
FUNC 2b2f2 8b 0 std::vector<unsigned short, std::allocator<unsigned short> >::resize(unsigned long)
FUNC 2b37e 1f 0 std::vector<unsigned short, std::allocator<unsigned short> >::operator[](unsigned long) const
FUNC 2b39e 1a 0 google_breakpad::scoped_array<unsigned short>::scoped_array(unsigned short*)
FUNC 2b3b8 2a 0 google_breakpad::scoped_array<unsigned short>::~scoped_array()
FUNC 2b3e2 25 0 std::vector<unsigned short, std::allocator<unsigned short> >::size() const
FUNC 2b408 46 0 google_breakpad::scoped_array<unsigned short>::reset(unsigned short*)
FUNC 2b44e 11 0 google_breakpad::scoped_array<unsigned short>::get() const
FUNC 2b460 30 0 std::vector<unsigned short, std::allocator<unsigned short> >::begin() const
FUNC 2b490 31 0 std::vector<unsigned short, std::allocator<unsigned short> >::end() const
FUNC 2b4c1 3c 0 bool __gnu_cxx::operator!=<unsigned short const*, std::vector<unsigned short, std::allocator<unsigned short> > >(__gnu_cxx::__normal_iterator<unsigned short const*, std::vector<unsigned short, std::allocator<unsigned short> > > const&, __gnu_cxx::__normal_iterator<unsigned short const*, std::vector<unsigned short, std::allocator<unsigned short> > > const&)
FUNC 2b4fe 20 0 __gnu_cxx::__normal_iterator<unsigned short const*, std::vector<unsigned short, std::allocator<unsigned short> > >::operator++()
FUNC 2b51e 11 0 __gnu_cxx::__normal_iterator<unsigned short const*, std::vector<unsigned short, std::allocator<unsigned short> > >::operator*() const
FUNC 2b530 1a 0 google_breakpad::scoped_array<unsigned char>::scoped_array(unsigned char*)
FUNC 2b54a 2a 0 google_breakpad::scoped_array<unsigned char>::~scoped_array()
FUNC 2b574 11 0 google_breakpad::scoped_array<unsigned char>::get() const
FUNC 2b586 45 0 std::vector<unsigned short, std::allocator<unsigned short> >::_M_erase_at_end(unsigned short*)
FUNC 2b5cc 1d 0 __gnu_cxx::__normal_iterator<unsigned short*, std::vector<unsigned short, std::allocator<unsigned short> > >::__normal_iterator(unsigned short* const&)
FUNC 2b5ea e 0 __gnu_cxx::__normal_iterator<unsigned short*, std::vector<unsigned short, std::allocator<unsigned short> > >::base() const
FUNC 2b5f8 30 0 std::vector<unsigned short, std::allocator<unsigned short> >::cbegin() const
FUNC 2b628 42 0 __gnu_cxx::__normal_iterator<unsigned short const*, std::vector<unsigned short, std::allocator<unsigned short> > >::difference_type __gnu_cxx::operator-<unsigned short const*, std::vector<unsigned short, std::allocator<unsigned short> > >(__gnu_cxx::__normal_iterator<unsigned short const*, std::vector<unsigned short, std::allocator<unsigned short> > > const&, __gnu_cxx::__normal_iterator<unsigned short const*, std::vector<unsigned short, std::allocator<unsigned short> > > const&)
FUNC 2b66a 46d 0 std::vector<unsigned short, std::allocator<unsigned short> >::_M_fill_insert(__gnu_cxx::__normal_iterator<unsigned short*, std::vector<unsigned short, std::allocator<unsigned short> > >, unsigned long, unsigned short const&)
FUNC 2bad8 3e 0 __gnu_cxx::__normal_iterator<unsigned short*, std::vector<unsigned short, std::allocator<unsigned short> > >::operator+(long) const
FUNC 2bb16 203 0 std::vector<unsigned short, std::allocator<unsigned short> >::_M_default_append(unsigned long)
FUNC 2bd1a 1d 0 __gnu_cxx::__normal_iterator<unsigned short const*, std::vector<unsigned short, std::allocator<unsigned short> > >::__normal_iterator(unsigned short const* const&)
FUNC 2bd38 e 0 __gnu_cxx::__normal_iterator<unsigned short const*, std::vector<unsigned short, std::allocator<unsigned short> > >::base() const
FUNC 2bd46 e 0 std::_Vector_base<unsigned short, std::allocator<unsigned short> >::_M_get_Tp_allocator()
FUNC 2bd54 2a 0 void std::_Destroy<unsigned short*, unsigned short>(unsigned short*, unsigned short*, std::allocator<unsigned short>&)
FUNC 2bd7e 29 0 std::vector<unsigned short, std::allocator<unsigned short> >::end()
FUNC 2bda7 42 0 __gnu_cxx::__normal_iterator<unsigned short*, std::vector<unsigned short, std::allocator<unsigned short> > >::difference_type __gnu_cxx::operator-<unsigned short*, std::vector<unsigned short, std::allocator<unsigned short> > >(__gnu_cxx::__normal_iterator<unsigned short*, std::vector<unsigned short, std::allocator<unsigned short> > > const&, __gnu_cxx::__normal_iterator<unsigned short*, std::vector<unsigned short, std::allocator<unsigned short> > > const&)
FUNC 2bde9 54 0 unsigned short* std::__uninitialized_move_a<unsigned short*, unsigned short*, std::allocator<unsigned short> >(unsigned short*, unsigned short*, unsigned short*, std::allocator<unsigned short>&)
FUNC 2be3d 4c 0 unsigned short* std::move_backward<unsigned short*, unsigned short*>(unsigned short*, unsigned short*, unsigned short*)
FUNC 2be89 4d 0 void std::fill<unsigned short*, unsigned short>(unsigned short*, unsigned short*, unsigned short const&)
FUNC 2bed6 31 0 unsigned short* std::__uninitialized_fill_n_a<unsigned short*, unsigned long, unsigned short, unsigned short>(unsigned short*, unsigned long, unsigned short const&, std::allocator<unsigned short>&)
FUNC 2bf08 c9 0 std::vector<unsigned short, std::allocator<unsigned short> >::_M_check_len(unsigned long, char const*) const
FUNC 2bfd2 33 0 std::_Vector_base<unsigned short, std::allocator<unsigned short> >::_M_allocate(unsigned long)
FUNC 2c005 54 0 unsigned short* std::__uninitialized_move_if_noexcept_a<unsigned short*, unsigned short*, std::allocator<unsigned short> >(unsigned short*, unsigned short*, unsigned short*, std::allocator<unsigned short>&)
FUNC 2c05a 35 0 std::_Vector_base<unsigned short, std::allocator<unsigned short> >::_M_deallocate(unsigned short*, unsigned long)
FUNC 2c08f 29 0 unsigned short* std::__uninitialized_default_n_a<unsigned short*, unsigned long, unsigned short>(unsigned short*, unsigned long, std::allocator<unsigned short>&)
FUNC 2c0b8 26 0 void std::_Destroy<unsigned short*>(unsigned short*, unsigned short*)
FUNC 2c0de 25 0 std::move_iterator<unsigned short*> std::make_move_iterator<unsigned short*>(unsigned short*)
FUNC 2c103 31 0 unsigned short* std::__uninitialized_copy_a<std::move_iterator<unsigned short*>, unsigned short*, unsigned short>(std::move_iterator<unsigned short*>, std::move_iterator<unsigned short*>, unsigned short*, std::allocator<unsigned short>&)
FUNC 2c134 e 0 unsigned short* std::__miter_base<unsigned short*>(unsigned short*)
FUNC 2c142 58 0 unsigned short* std::__copy_move_backward_a2<true, unsigned short*, unsigned short*>(unsigned short*, unsigned short*, unsigned short*)
FUNC 2c19a e 0 unsigned short* std::__niter_base<unsigned short*>(unsigned short*)
FUNC 2c1a8 3a 0 __gnu_cxx::__enable_if<std::__is_scalar<unsigned short>::__value, void>::__type std::__fill_a<unsigned short*, unsigned short>(unsigned short*, unsigned short*, unsigned short const&)
FUNC 2c1e2 31 0 unsigned short* std::uninitialized_fill_n<unsigned short*, unsigned long, unsigned short>(unsigned short*, unsigned long, unsigned short const&)
FUNC 2c214 22 0 std::vector<unsigned short, std::allocator<unsigned short> >::max_size() const
FUNC 2c236 2a 0 std::allocator_traits<std::allocator<unsigned short> >::allocate(std::allocator<unsigned short>&, unsigned long)
FUNC 2c260 25 0 std::move_iterator<unsigned short*> std::__make_move_if_noexcept_iterator<unsigned short, std::move_iterator<unsigned short*> >(unsigned short*)
FUNC 2c285 2e 0 std::allocator_traits<std::allocator<unsigned short> >::deallocate(std::allocator<unsigned short>&, unsigned short*, unsigned long)
FUNC 2c2b3 29 0 unsigned short* std::__uninitialized_default_n<unsigned short*, unsigned long>(unsigned short*, unsigned long)
FUNC 2c2dc f 0 void std::_Destroy_aux<true>::__destroy<unsigned short*>(unsigned short*, unsigned short*)
FUNC 2c2ec 1a 0 std::move_iterator<unsigned short*>::move_iterator(unsigned short*)
FUNC 2c306 31 0 unsigned short* std::uninitialized_copy<std::move_iterator<unsigned short*>, unsigned short*>(std::move_iterator<unsigned short*>, std::move_iterator<unsigned short*>, unsigned short*)
FUNC 2c337 31 0 unsigned short* std::__copy_move_backward_a<true, unsigned short*, unsigned short*>(unsigned short*, unsigned short*, unsigned short*)
FUNC 2c368 2d 0 unsigned short* std::__uninitialized_fill_n<true>::__uninit_fill_n<unsigned short*, unsigned long, unsigned short>(unsigned short*, unsigned long, unsigned short const&)
FUNC 2c395 1a 0 std::allocator_traits<std::allocator<unsigned short> >::max_size(std::allocator<unsigned short> const&)
FUNC 2c3b0 e 0 std::_Vector_base<unsigned short, std::allocator<unsigned short> >::_M_get_Tp_allocator() const
FUNC 2c3be 41 0 __gnu_cxx::new_allocator<unsigned short>::allocate(unsigned long, void const*)
FUNC 2c400 23 0 __gnu_cxx::new_allocator<unsigned short>::deallocate(unsigned short*, unsigned long)
FUNC 2c423 2f 0 unsigned short* std::__uninitialized_default_n_1<true>::__uninit_default_n<unsigned short*, unsigned long>(unsigned short*, unsigned long)
FUNC 2c452 2d 0 unsigned short* std::__uninitialized_copy<true>::__uninit_copy<std::move_iterator<unsigned short*>, unsigned short*>(std::move_iterator<unsigned short*>, std::move_iterator<unsigned short*>, unsigned short*)
FUNC 2c47f 71 0 unsigned short* std::__copy_move_backward<true, true, std::random_access_iterator_tag>::__copy_move_b<unsigned short>(unsigned short const*, unsigned short const*, unsigned short*)
FUNC 2c4f0 38 0 unsigned short* std::fill_n<unsigned short*, unsigned long, unsigned short>(unsigned short*, unsigned long, unsigned short const&)
FUNC 2c528 14 0 __gnu_cxx::new_allocator<unsigned short>::max_size() const
FUNC 2c53c 4c 0 unsigned short* std::copy<std::move_iterator<unsigned short*>, unsigned short*>(std::move_iterator<unsigned short*>, std::move_iterator<unsigned short*>, unsigned short*)
FUNC 2c588 47 0 __gnu_cxx::__enable_if<std::__is_scalar<unsigned short>::__value, unsigned short*>::__type std::__fill_n_a<unsigned short*, unsigned long, unsigned short>(unsigned short*, unsigned long, unsigned short const&)
FUNC 2c5cf 22 0 decltype (__miter_base(({parm#1}.base)())) std::__miter_base<unsigned short*>(std::move_iterator<unsigned short*>)
FUNC 2c5f1 58 0 unsigned short* std::__copy_move_a2<true, unsigned short*, unsigned short*>(unsigned short*, unsigned short*, unsigned short*)
FUNC 2c64a 11 0 std::move_iterator<unsigned short*>::base() const
FUNC 2c65b 31 0 unsigned short* std::__copy_move_a<true, unsigned short*, unsigned short*>(unsigned short*, unsigned short*, unsigned short*)
FUNC 2c68c 5c 0 unsigned short* std::__copy_move<true, true, std::random_access_iterator_tag>::__copy_m<unsigned short>(unsigned short const*, unsigned short const*, unsigned short*)
FUNC 2c6e8 181 0 ConvertUTF32toUTF16
FUNC 2c869 179 0 ConvertUTF16toUTF32
FUNC 2c9e2 2a9 0 ConvertUTF16toUTF8
FUNC 2cc8b 169 0 isLegalUTF8
FUNC 2cdf4 5e 0 isLegalUTF8Sequence
FUNC 2ce52 2e9 0 ConvertUTF8toUTF16
FUNC 2d13b 1fa 0 ConvertUTF32toUTF8
FUNC 2d335 256 0 ConvertUTF8toUTF32
FUNC 2d58c 15 0 google_breakpad::ThreadInfo::GetInstructionPointer() const
FUNC 2d5a2 37e 0 google_breakpad::ThreadInfo::FillCPUContext(MDRawContextAMD64*) const
FUNC 2d920 6c 0 google_breakpad::ThreadInfo::GetGeneralPurposeRegisters(void**, unsigned long*)
FUNC 2d98c 6f 0 google_breakpad::ThreadInfo::GetFloatingPointRegisters(void**, unsigned long*)
FUNC 2d9fc 15 0 google_breakpad::UContextReader::GetStackPointer(ucontext const*)
FUNC 2da12 15 0 google_breakpad::UContextReader::GetInstructionPointer(ucontext const*)
FUNC 2da28 32a 0 google_breakpad::UContextReader::FillCPUContext(MDRawContextAMD64*, ucontext const*, _libc_fpstate const*)
FUNC 2dd52 8e 0 sys_mmap
FUNC 2dde0 13b 0 MicrodumpWriter::MicrodumpWriter
FUNC 2df1c 2e 0 MicrodumpWriter::~MicrodumpWriter
FUNC 2df4a ab 0 MicrodumpWriter::Init
FUNC 2dff6 cc 0 MicrodumpWriter::Dump
FUNC 2e0c2 42 0 MicrodumpWriter::LogLine
FUNC 2e104 2f 0 MicrodumpWriter::LogAppend
FUNC 2e134 26 0 MicrodumpWriter::LogAppend
FUNC 2e15a 55 0 MicrodumpWriter::LogAppend
FUNC 2e1b0 31 0 MicrodumpWriter::LogCommitLine
FUNC 2e1e2 1ef 0 MicrodumpWriter::CaptureCrashingThreadStack
FUNC 2e3d2 67 0 MicrodumpWriter::DumpProductInformation
FUNC 2e43a 67 0 MicrodumpWriter::DumpProcessType
FUNC 2e4a2 b8 0 MicrodumpWriter::DumpCrashReason
FUNC 2e55a 1e7 0 MicrodumpWriter::DumpOSInformation
FUNC 2e742 67 0 MicrodumpWriter::DumpGPUInformation
FUNC 2e7aa 1a9 0 MicrodumpWriter::DumpThreadStack
FUNC 2e954 98 0 MicrodumpWriter::DumpCPUState
FUNC 2e9ec dd 0 MicrodumpWriter::HaveMappingInfo
FUNC 2eaca 3bc 0 MicrodumpWriter::DumpModule
FUNC 2ee86 170 0 MicrodumpWriter::DumpMappings
FUNC 2eff6 35 0 MicrodumpWriter::Alloc
FUNC 2f02b 185 0 google_breakpad::WriteMicrodump(int, void const*, unsigned long, std::__cxx11::list<google_breakpad::MappingEntry, std::allocator<google_breakpad::MappingEntry> > const&, bool, unsigned long, bool, google_breakpad::MicrodumpExtraInfo const&)
FUNC 2f1b0 66 0 MicrodumpWriter::LogAppend<unsigned char>
FUNC 2f216 60 0 MicrodumpWriter::LogAppend<int>
FUNC 2f276 63 0 MicrodumpWriter::LogAppend<long unsigned int>
FUNC 2f2da 60 0 MicrodumpWriter::LogAppend<unsigned int>
FUNC 2f33a 6b 0 MicrodumpWriter::LogAppend<short unsigned int>
FUNC 2f3a6 24 0 buggyFunc()
FUNC 2f3ca 115 0 isSingleInstanceRunning(QString)
FUNC 2f4df 8c 0 startSingleInstanceServer(QString)
FUNC 2f5e0 eab 0 main
FUNC 3048c 41 0 QtPrivate::RefCount::ref()
FUNC 304ce 29 0 QString::operator=(QString&&)
FUNC 304f8 25 0 QString::operator+=(QString const&)
FUNC 3051d 49 0 QString::fromUtf8(char const*, int)
FUNC 30566 47 0 QString::QString(char const*)
FUNC 305ae 1a 0 QString::QString(QStringDataPtr)
FUNC 305c8 14 0 QString::length() const
FUNC 305dc 1d 0 QString::constData() const
FUNC 305fa 30 0 QString::QString(QString const&)
FUNC 3062a 34 0 QString::~QString()
FUNC 3065e 97 0 operator+(QString const&, char const*)
FUNC 306f5 67 0 operator+(char const*, QString const&)
FUNC 3075c b 0 QtSharedPointer::ExternalRefCountData::~ExternalRefCountData()
FUNC 30768 20 0 QtSharedPointer::ExternalRefCountData::destroy()
FUNC 30788 1b 0 QtSharedPointer::ExternalRefCountData::operator delete(void*)
FUNC 307a4 17 0 QFlags<QIODevice::OpenModeFlag>::QFlags(QIODevice::OpenModeFlag)
FUNC 307bc 35 0 QDebug::maybeSpace()
FUNC 307f2 7d 0 QDebug::operator<<(char const*)
FUNC 30870 53 0 QDebug::operator<<(QString const&)
FUNC 308c4 17 0 QFlags<QLocalServer::SocketOption>::QFlags(QLocalServer::SocketOption)
FUNC 308dc 61 0 CuteMessageLogger::CuteMessageLogger(Logger*, Logger::LogLevel, char const*, int, char const*)
FUNC 3093e 46 0 AutomationStudio::setCoreApplication(QCoreApplication*)
FUNC 30984 1a 0 QBasicAtomicInteger<int>::ref()
FUNC 3099e 26 0 void qSwap<QTypedArrayData<unsigned short>*>(QTypedArrayData<unsigned short>*&, QTypedArrayData<unsigned short>*&)
FUNC 309c4 1a 0 QTypedArrayData<unsigned short>::data()
FUNC 309de 25 0 QTypedArrayData<unsigned short>::deallocate(QArrayData*)
FUNC 30a04 e 0 QStaticStringData<21>::data_ptr() const
FUNC 30a12 1b 0 QSharedPointer<AutomationStudio>::~QSharedPointer()
FUNC 30a2e 1a 0 QSharedPointer<AutomationStudio>::operator->() const
FUNC 30a48 e 0 QStaticStringData<13>::data_ptr() const
FUNC 30a56 1f 0 bool QAtomicOps<int>::ref<int>(std::atomic<int>&)
FUNC 30a75 e 0 std::remove_reference<QTypedArrayData<unsigned short>*&>::type&& std::move<QTypedArrayData<unsigned short>*&>(QTypedArrayData<unsigned short>*&)
FUNC 30a83 52 0 std::enable_if<std::__and_<std::is_move_constructible<QTypedArrayData<unsigned short>*>, std::is_move_assignable<QTypedArrayData<unsigned short>*> >::value, void>::type std::swap<QTypedArrayData<unsigned short>*>(QTypedArrayData<unsigned short>*&, QTypedArrayData<unsigned short>*&)
FUNC 30ad6 1f 0 QSharedPointer<AutomationStudio>::deref()
FUNC 30af6 11 0 QSharedPointer<AutomationStudio>::data() const
FUNC 30b08 1a 0 std::__atomic_base<int>::operator++()
FUNC 30b22 6d 0 QSharedPointer<AutomationStudio>::deref(QtSharedPointer::ExternalRefCountData*)
FUNC 30c52 416 0 AutomationStudio::AutomationStudio(QQmlApplicationEngine*, QObject*)
FUNC 31068 99 0 AutomationStudio::~AutomationStudio()
FUNC 31102 2b 0 AutomationStudio::~AutomationStudio()
FUNC 3112e 77 0 AutomationStudio::create(int, char const* const*, QQmlApplicationEngine*, QObject*)
FUNC 311a6 119 0 AutomationStudio::solveImportPaths()
FUNC 312c0 636 0 AutomationStudio::loadPlugins()
FUNC 318f6 2a 0 AutomationStudio::loadQml(QUrl const&)
FUNC 31920 399 0 AutomationStudio::loadInternalPlugins()
FUNC 31cb9 e 0 std::move<AutomationStudio::AutomationStudio(QQmlApplicationEngine*, QObject*)::<lambda()>&>
FUNC 31cc7 bd 0 QObject::connect<void (Settings::*)(), AutomationStudio::AutomationStudio(QQmlApplicationEngine*, QObject*)::<lambda()> >
FUNC 31d84 40 0 QtPrivate::QFunctorSlotObject<AutomationStudio::AutomationStudio(QQmlApplicationEngine*, QObject*)::<lambda()>, 0, QtPrivate::List<>, void>::QFunctorSlotObject
FUNC 31dc4 1b 0 QtPrivate::QFunctorSlotObject<AutomationStudio::AutomationStudio(QQmlApplicationEngine*, QObject*)::<lambda()>, 0, QtPrivate::List<>, void>::~QFunctorSlotObject
FUNC 31ddf 70 0 QtPrivate::QFunctorSlotObject<AutomationStudio::AutomationStudio(QQmlApplicationEngine*, QObject*)::<lambda()>, 0, QtPrivate::List<>, void>::impl
FUNC 31e4f 2a 0 QtPrivate::Functor<AutomationStudio::AutomationStudio(QQmlApplicationEngine*, QObject*)::<lambda()>, 0>::call<QtPrivate::List<>, void>
FUNC 31e79 35 0 QtPrivate::FunctorCall<QtPrivate::IndexesList<>, QtPrivate::List<>, void, AutomationStudio::AutomationStudio(QQmlApplicationEngine*, QObject*)::<lambda()> >::call
FUNC 31eae 49 0 __static_initialization_and_destruction_0
FUNC 31ef7 15 0 _GLOBAL__sub_I_automationstudio.cpp
FUNC 31f0c 17 0 QFlag::QFlag(int)
FUNC 31f24 10 0 QFlag::operator int() const
FUNC 31f34 17 0 QFlag::QFlag(unsigned int)
FUNC 31f4c 10 0 QFlag::operator unsigned int() const
FUNC 31f5c 17 0 std::__atomic_base<int>::__atomic_base(int)
FUNC 31f74 23 0 std::atomic<int>::atomic(int)
FUNC 31f98 23 0 QBasicAtomicInteger<int>::QBasicAtomicInteger(int)
FUNC 31fbc 23 0 QAtomicInteger<int>::QAtomicInteger(int)
FUNC 31fe0 23 0 QAtomicInt::QAtomicInt(int)
FUNC 32004 35 0 QtPrivate::RefCount::isShared() const
FUNC 3203a 22 0 QFlags<QArrayData::AllocationOption>::operator|=(QArrayData::AllocationOption)
FUNC 3205c 38 0 QArrayData::detachFlags() const
FUNC 32094 d 0 QArrayData::sharedNull()
FUNC 320a2 26 0 QFlags<QArrayData::AllocationOption>::QFlags(QFlag)
FUNC 320c8 3e 0 QFlags<QArrayData::AllocationOption>::operator|(QArrayData::AllocationOption) const
FUNC 32106 1e 0 QByteArray::QByteArray()
FUNC 32124 14 0 QByteArray::size() const
FUNC 32138 28 0 unsigned int const& qMax<unsigned int>(unsigned int const&, unsigned int const&)
FUNC 32160 c9 0 QByteArray::reserve(int)
FUNC 3222a 1e 0 QString::QString()
FUNC 32248 28 0 int const& qMax<int>(int const&, int const&)
FUNC 32270 30 0 QtPrivate::QSlotObjectBase::QSlotObjectBase(void (*)(int, QtPrivate::QSlotObjectBase*, QObject*, void**, bool*))
FUNC 322a0 b 0 QtPrivate::QSlotObjectBase::~QSlotObjectBase()
FUNC 322ac 1e 0 QListData::dispose()
FUNC 322ca 22 0 QListData::size() const
FUNC 322ec 34 0 QListData::at(int) const
FUNC 32320 28 0 QListData::begin() const
FUNC 32348 28 0 QListData::end() const
FUNC 32370 b 0 QListSpecialMethods<QString>::~QListSpecialMethods()
FUNC 3237c 1b 0 QStringList::QStringList()
FUNC 32398 1b 0 QStringList::~QStringList()
FUNC 323b4 26 0 QStringList::QStringList(QStringList&&)
FUNC 323da 29 0 QStringList::operator<<(QString const&)
FUNC 32403 b 0 QtPrivate::ConnectionTypes<QtPrivate::List<>, true>::types()
FUNC 3240e b 0 std::__atomic_base<int>::__atomic_base()
FUNC 3241a 1b 0 std::atomic<int>::atomic()
FUNC 32436 1b 0 QBasicAtomicInteger<int>::QBasicAtomicInteger()
FUNC 32452 61 0 QtSharedPointer::ExternalRefCountData::ExternalRefCountData(void (*)(QtSharedPointer::ExternalRefCountData*))
FUNC 324b4 2d 0 QDebug::QDebug(QDebug const&)
FUNC 324e1 10 0 QCoreApplication::instance()
FUNC 324f2 12 0 AutomationStudio::coreApplication() const
FUNC 32504 9d 0 AutomationStudio::setReleaseVersion(QString)
FUNC 325a2 9d 0 AutomationStudio::setBuildInfo(QString)
FUNC 32640 12 0 AutomationStudio::dir() const
FUNC 32652 17 0 QFlags<QDir::Filter>::QFlags(QDir::Filter)
FUNC 3266a 26 0 QFlags<QDir::Filter>::QFlags(QFlag)
FUNC 32690 17 0 QFlags<QDir::SortFlag>::QFlags(QDir::SortFlag)
FUNC 326a8 3e 0 QFlags<QDir::Filter>::operator|(QDir::Filter) const
FUNC 326e6 32 0 operator|(QDir::Filter, QDir::Filter)
FUNC 32718 1b 0 QtPrivate::QForeachContainer<QStringList>::~QForeachContainer()
FUNC 32734 23 0 QBasicAtomicInteger<int>::store(int)
FUNC 32757 b 0 QTypedArrayData<char>::sharedNull()
FUNC 32762 b 0 QTypedArrayData<unsigned short>::sharedNull()
FUNC 3276e b 0 QListSpecialMethods<QString>::QListSpecialMethods()
FUNC 3277a 29 0 QList<QString>::QList()
FUNC 327a4 47 0 QList<QString>::~QList()
FUNC 327ec f8 0 QList<QString>::append(QString const&)
FUNC 328e4 3b 0 QList<QString>::QList(QList<QString>&&)
FUNC 32920 1a 0 QBasicAtomicInteger<int>::loadAcquire() const
FUNC 3293a 23 0 QBasicAtomicInteger<int>::storeRelease(int)
FUNC 3295e 36 0 QList<QString>::operator[](int)
FUNC 32994 3a 0 QSharedPointer<AutomationStudio>::QSharedPointer<AutomationStudio>(AutomationStudio*)
FUNC 329ce 15e 0 QList<QString>::removeAll(QString const&)
FUNC 32b2c e 0 QStringList&& std::forward<QStringList>(std::remove_reference<QStringList>::type&)
FUNC 32b3a 34 0 QtPrivate::QForeachContainer<std::decay<QStringList>::type> QtPrivate::qMakeForeachContainer<QStringList>(QStringList&&)
FUNC 32b6e e 0 std::remove_reference<QStringList&>::type&& std::move<QStringList&>(QStringList&)
FUNC 32b7c e 0 std::add_const<QStringList>::type& qAsConst<QStringList>(QStringList&)
FUNC 32b8a 22 0 QList<QString>::const_iterator::operator!=(QList<QString>::const_iterator const&) const
FUNC 32bac 20 0 QList<QString>::const_iterator::operator++()
FUNC 32bcc 1d 0 QList<QString>::const_iterator::operator*() const
FUNC 32bea 1f 0 QQmlPrivate::RegisterType::~RegisterType()
FUNC 32c09 367 0 int qmlRegisterUncreatableType<AutomationStudio>(char const*, int, int, char const*, QString const&)
FUNC 32f70 367 0 int qmlRegisterUncreatableType<QCoreApplication>(char const*, int, int, char const*, QString const&)
FUNC 332d7 367 0 int qmlRegisterUncreatableType<Settings>(char const*, int, int, char const*, QString const&)
FUNC 3363e 367 0 int qmlRegisterUncreatableType<Utilities>(char const*, int, int, char const*, QString const&)
FUNC 339a5 367 0 int qmlRegisterUncreatableType<SystemSettings>(char const*, int, int, char const*, QString const&)
FUNC 33d0c 367 0 int qmlRegisterUncreatableType<SocketIO>(char const*, int, int, char const*, QString const&)
FUNC 34073 367 0 int qmlRegisterUncreatableType<AppUpdater>(char const*, int, int, char const*, QString const&)
FUNC 343da 45 0 void QAtomicOps<int>::store<int>(std::atomic<int>&, int)
FUNC 34420 5e 0 QList<QString>::dealloc(QListData::Data*)
FUNC 3447e 1d5 0 QList<QString>::detach_helper_grow(int, int)
FUNC 34654 3c 0 QList<QString>::node_construct(QList<QString>::Node*, QString const&)
FUNC 34690 1f 0 QList<QString>::node_destruct(QList<QString>::Node*)
FUNC 346b0 5e 0 QList<QString>::node_copy(QList<QString>::Node*, QList<QString>::Node*, QList<QString>::Node*)
FUNC 3470e 36 0 int QAtomicOps<int>::loadAcquire<int>(std::atomic<int> const&)
FUNC 34744 22 0 QFlags<QMetaType::TypeFlag>::operator|=(QMetaType::TypeFlag)
FUNC 34766 45 0 void QAtomicOps<int>::storeRelease<int>(std::atomic<int>&, int)
FUNC 347ac 2e 0 QList<QString>::detach()
FUNC 347da e 0 QList<QString>::Node::t()
FUNC 347e8 8d 0 void QSharedPointer<AutomationStudio>::internalConstruct<AutomationStudio, QtSharedPointer::NormalDeleter>(AutomationStudio*, QtSharedPointer::NormalDeleter)
FUNC 34876 eb 0 QList<QString>::indexOf(QString const&, int) const
FUNC 34962 80 0 QtPrivate::QForeachContainer<QStringList>::QForeachContainer(QStringList&&)
FUNC 349e2 34 0 QList<QString>::begin() const
FUNC 34a16 34 0 QList<QString>::end() const
FUNC 34a4a 7f 0 QVarLengthArray<char, 48>::QVarLengthArray(int)
FUNC 34aca 34 0 QVarLengthArray<char, 48>::~QVarLengthArray()
FUNC 34afe 12 0 QVarLengthArray<char, 48>::data()
FUNC 34b10 1d 0 QVarLengthArray<char, 48>::operator[](int)
FUNC 34b2e 7f 0 QVarLengthArray<char, 64>::QVarLengthArray(int)
FUNC 34bae 34 0 QVarLengthArray<char, 64>::~QVarLengthArray()
FUNC 34be2 12 0 QVarLengthArray<char, 64>::data()
FUNC 34bf4 1d 0 QVarLengthArray<char, 64>::operator[](int)
FUNC 34c12 12 0 QVarLengthArray<char, 48>::constData() const
FUNC 34c24 b 0 QMetaTypeId2<AutomationStudio*>::qt_metatype_id()
FUNC 34c2f b 0 QtPrivate::QMetaTypeIdHelper<AutomationStudio*, true>::qt_metatype_id()
FUNC 34c3a c9 0 int qRegisterNormalizedMetaType<AutomationStudio*>(QByteArray const&, AutomationStudio**, QtPrivate::MetaTypeDefinedHelper<AutomationStudio*, QMetaTypeId2<AutomationStudio*>::Defined&&(!QMetaTypeId2<AutomationStudio*>::IsBuiltIn)>::DefinedType)
FUNC 34d04 12 0 QVarLengthArray<char, 64>::constData() const
FUNC 34d16 b 0 QtPrivate::QMetaTypeIdHelper<QQmlListProperty<AutomationStudio>, false>::qt_metatype_id()
FUNC 34d21 c9 0 int qRegisterNormalizedMetaType<QQmlListProperty<AutomationStudio> >(QByteArray const&, QQmlListProperty<AutomationStudio>*, QtPrivate::MetaTypeDefinedHelper<QQmlListProperty<AutomationStudio>, QMetaTypeId2<QQmlListProperty<AutomationStudio> >::Defined&&(!QMetaTypeId2<QQmlListProperty<AutomationStudio> >::IsBuiltIn)>::DefinedType)
FUNC 34dea b 0 QObject* (*QQmlPrivate::attachedPropertiesFunc<AutomationStudio>())(QObject*)
FUNC 34df5 b 0 QMetaObject const* QQmlPrivate::attachedPropertiesMetaObject<AutomationStudio>()
FUNC 34e00 b 0 QQmlPrivate::StaticCastSelector<AutomationStudio, QQmlParserStatus>::cast()
FUNC 34e0b b 0 QQmlPrivate::StaticCastSelector<AutomationStudio, QQmlPropertyValueSource>::cast()
FUNC 34e16 b 0 QQmlPrivate::StaticCastSelector<AutomationStudio, QQmlPropertyValueInterceptor>::cast()
FUNC 34e21 b 0 QMetaTypeId2<QCoreApplication*>::qt_metatype_id()
FUNC 34e2c b 0 QtPrivate::QMetaTypeIdHelper<QCoreApplication*, true>::qt_metatype_id()
FUNC 34e37 c9 0 int qRegisterNormalizedMetaType<QCoreApplication*>(QByteArray const&, QCoreApplication**, QtPrivate::MetaTypeDefinedHelper<QCoreApplication*, QMetaTypeId2<QCoreApplication*>::Defined&&(!QMetaTypeId2<QCoreApplication*>::IsBuiltIn)>::DefinedType)
FUNC 34f00 b 0 QtPrivate::QMetaTypeIdHelper<QQmlListProperty<QCoreApplication>, false>::qt_metatype_id()
FUNC 34f0b c9 0 int qRegisterNormalizedMetaType<QQmlListProperty<QCoreApplication> >(QByteArray const&, QQmlListProperty<QCoreApplication>*, QtPrivate::MetaTypeDefinedHelper<QQmlListProperty<QCoreApplication>, QMetaTypeId2<QQmlListProperty<QCoreApplication> >::Defined&&(!QMetaTypeId2<QQmlListProperty<QCoreApplication> >::IsBuiltIn)>::DefinedType)
FUNC 34fd4 b 0 QObject* (*QQmlPrivate::attachedPropertiesFunc<QCoreApplication>())(QObject*)
FUNC 34fdf b 0 QMetaObject const* QQmlPrivate::attachedPropertiesMetaObject<QCoreApplication>()
FUNC 34fea b 0 QQmlPrivate::StaticCastSelector<QCoreApplication, QQmlParserStatus>::cast()
FUNC 34ff5 b 0 QQmlPrivate::StaticCastSelector<QCoreApplication, QQmlPropertyValueSource>::cast()
FUNC 35000 b 0 QQmlPrivate::StaticCastSelector<QCoreApplication, QQmlPropertyValueInterceptor>::cast()
FUNC 3500b b 0 QMetaTypeId2<Settings*>::qt_metatype_id()
FUNC 35016 b 0 QtPrivate::QMetaTypeIdHelper<Settings*, true>::qt_metatype_id()
FUNC 35021 c9 0 int qRegisterNormalizedMetaType<Settings*>(QByteArray const&, Settings**, QtPrivate::MetaTypeDefinedHelper<Settings*, QMetaTypeId2<Settings*>::Defined&&(!QMetaTypeId2<Settings*>::IsBuiltIn)>::DefinedType)
FUNC 350ea b 0 QtPrivate::QMetaTypeIdHelper<QQmlListProperty<Settings>, false>::qt_metatype_id()
FUNC 350f5 c9 0 int qRegisterNormalizedMetaType<QQmlListProperty<Settings> >(QByteArray const&, QQmlListProperty<Settings>*, QtPrivate::MetaTypeDefinedHelper<QQmlListProperty<Settings>, QMetaTypeId2<QQmlListProperty<Settings> >::Defined&&(!QMetaTypeId2<QQmlListProperty<Settings> >::IsBuiltIn)>::DefinedType)
FUNC 351be b 0 QObject* (*QQmlPrivate::attachedPropertiesFunc<Settings>())(QObject*)
FUNC 351c9 b 0 QMetaObject const* QQmlPrivate::attachedPropertiesMetaObject<Settings>()
FUNC 351d4 b 0 QQmlPrivate::StaticCastSelector<Settings, QQmlParserStatus>::cast()
FUNC 351df b 0 QQmlPrivate::StaticCastSelector<Settings, QQmlPropertyValueSource>::cast()
FUNC 351ea b 0 QQmlPrivate::StaticCastSelector<Settings, QQmlPropertyValueInterceptor>::cast()
FUNC 351f5 b 0 QMetaTypeId2<Utilities*>::qt_metatype_id()
FUNC 35200 b 0 QtPrivate::QMetaTypeIdHelper<Utilities*, true>::qt_metatype_id()
FUNC 3520b c9 0 int qRegisterNormalizedMetaType<Utilities*>(QByteArray const&, Utilities**, QtPrivate::MetaTypeDefinedHelper<Utilities*, QMetaTypeId2<Utilities*>::Defined&&(!QMetaTypeId2<Utilities*>::IsBuiltIn)>::DefinedType)
FUNC 352d4 b 0 QtPrivate::QMetaTypeIdHelper<QQmlListProperty<Utilities>, false>::qt_metatype_id()
FUNC 352df c9 0 int qRegisterNormalizedMetaType<QQmlListProperty<Utilities> >(QByteArray const&, QQmlListProperty<Utilities>*, QtPrivate::MetaTypeDefinedHelper<QQmlListProperty<Utilities>, QMetaTypeId2<QQmlListProperty<Utilities> >::Defined&&(!QMetaTypeId2<QQmlListProperty<Utilities> >::IsBuiltIn)>::DefinedType)
FUNC 353a8 b 0 QObject* (*QQmlPrivate::attachedPropertiesFunc<Utilities>())(QObject*)
FUNC 353b3 b 0 QMetaObject const* QQmlPrivate::attachedPropertiesMetaObject<Utilities>()
FUNC 353be b 0 QQmlPrivate::StaticCastSelector<Utilities, QQmlParserStatus>::cast()
FUNC 353c9 b 0 QQmlPrivate::StaticCastSelector<Utilities, QQmlPropertyValueSource>::cast()
FUNC 353d4 b 0 QQmlPrivate::StaticCastSelector<Utilities, QQmlPropertyValueInterceptor>::cast()
FUNC 353df b 0 QMetaTypeId2<SystemSettings*>::qt_metatype_id()
FUNC 353ea b 0 QtPrivate::QMetaTypeIdHelper<SystemSettings*, true>::qt_metatype_id()
FUNC 353f5 c9 0 int qRegisterNormalizedMetaType<SystemSettings*>(QByteArray const&, SystemSettings**, QtPrivate::MetaTypeDefinedHelper<SystemSettings*, QMetaTypeId2<SystemSettings*>::Defined&&(!QMetaTypeId2<SystemSettings*>::IsBuiltIn)>::DefinedType)
FUNC 354be b 0 QtPrivate::QMetaTypeIdHelper<QQmlListProperty<SystemSettings>, false>::qt_metatype_id()
FUNC 354c9 c9 0 int qRegisterNormalizedMetaType<QQmlListProperty<SystemSettings> >(QByteArray const&, QQmlListProperty<SystemSettings>*, QtPrivate::MetaTypeDefinedHelper<QQmlListProperty<SystemSettings>, QMetaTypeId2<QQmlListProperty<SystemSettings> >::Defined&&(!QMetaTypeId2<QQmlListProperty<SystemSettings> >::IsBuiltIn)>::DefinedType)
FUNC 35592 b 0 QObject* (*QQmlPrivate::attachedPropertiesFunc<SystemSettings>())(QObject*)
FUNC 3559d b 0 QMetaObject const* QQmlPrivate::attachedPropertiesMetaObject<SystemSettings>()
FUNC 355a8 b 0 QQmlPrivate::StaticCastSelector<SystemSettings, QQmlParserStatus>::cast()
FUNC 355b3 b 0 QQmlPrivate::StaticCastSelector<SystemSettings, QQmlPropertyValueSource>::cast()
FUNC 355be b 0 QQmlPrivate::StaticCastSelector<SystemSettings, QQmlPropertyValueInterceptor>::cast()
FUNC 355c9 b 0 QMetaTypeId2<SocketIO*>::qt_metatype_id()
FUNC 355d4 b 0 QtPrivate::QMetaTypeIdHelper<SocketIO*, true>::qt_metatype_id()
FUNC 355df c9 0 int qRegisterNormalizedMetaType<SocketIO*>(QByteArray const&, SocketIO**, QtPrivate::MetaTypeDefinedHelper<SocketIO*, QMetaTypeId2<SocketIO*>::Defined&&(!QMetaTypeId2<SocketIO*>::IsBuiltIn)>::DefinedType)
FUNC 356a8 b 0 QtPrivate::QMetaTypeIdHelper<QQmlListProperty<SocketIO>, false>::qt_metatype_id()
FUNC 356b3 c9 0 int qRegisterNormalizedMetaType<QQmlListProperty<SocketIO> >(QByteArray const&, QQmlListProperty<SocketIO>*, QtPrivate::MetaTypeDefinedHelper<QQmlListProperty<SocketIO>, QMetaTypeId2<QQmlListProperty<SocketIO> >::Defined&&(!QMetaTypeId2<QQmlListProperty<SocketIO> >::IsBuiltIn)>::DefinedType)
FUNC 3577c b 0 QObject* (*QQmlPrivate::attachedPropertiesFunc<SocketIO>())(QObject*)
FUNC 35787 b 0 QMetaObject const* QQmlPrivate::attachedPropertiesMetaObject<SocketIO>()
FUNC 35792 b 0 QQmlPrivate::StaticCastSelector<SocketIO, QQmlParserStatus>::cast()
FUNC 3579d b 0 QQmlPrivate::StaticCastSelector<SocketIO, QQmlPropertyValueSource>::cast()
FUNC 357a8 b 0 QQmlPrivate::StaticCastSelector<SocketIO, QQmlPropertyValueInterceptor>::cast()
FUNC 357b3 b 0 QMetaTypeId2<AppUpdater*>::qt_metatype_id()
FUNC 357be b 0 QtPrivate::QMetaTypeIdHelper<AppUpdater*, true>::qt_metatype_id()
FUNC 357c9 c9 0 int qRegisterNormalizedMetaType<AppUpdater*>(QByteArray const&, AppUpdater**, QtPrivate::MetaTypeDefinedHelper<AppUpdater*, QMetaTypeId2<AppUpdater*>::Defined&&(!QMetaTypeId2<AppUpdater*>::IsBuiltIn)>::DefinedType)
FUNC 35892 b 0 QtPrivate::QMetaTypeIdHelper<QQmlListProperty<AppUpdater>, false>::qt_metatype_id()
FUNC 3589d c9 0 int qRegisterNormalizedMetaType<QQmlListProperty<AppUpdater> >(QByteArray const&, QQmlListProperty<AppUpdater>*, QtPrivate::MetaTypeDefinedHelper<QQmlListProperty<AppUpdater>, QMetaTypeId2<QQmlListProperty<AppUpdater> >::Defined&&(!QMetaTypeId2<QQmlListProperty<AppUpdater> >::IsBuiltIn)>::DefinedType)
FUNC 35966 b 0 QObject* (*QQmlPrivate::attachedPropertiesFunc<AppUpdater>())(QObject*)
FUNC 35971 b 0 QMetaObject const* QQmlPrivate::attachedPropertiesMetaObject<AppUpdater>()
FUNC 3597c b 0 QQmlPrivate::StaticCastSelector<AppUpdater, QQmlParserStatus>::cast()
FUNC 35987 b 0 QQmlPrivate::StaticCastSelector<AppUpdater, QQmlPropertyValueSource>::cast()
FUNC 35992 b 0 QQmlPrivate::StaticCastSelector<AppUpdater, QQmlPropertyValueInterceptor>::cast()
FUNC 3599e 34 0 QList<QString>::node_destruct(QList<QString>::Node*, QList<QString>::Node*)
FUNC 359d2 97 0 QList<QString>::detach_helper(int)
FUNC 35a6a 27 0 QList<QString>::detach_helper()
FUNC 35a91 27 0 QtSharedPointer::ExternalRefCountWithCustomDeleter<AutomationStudio, QtSharedPointer::NormalDeleter>::deleter(QtSharedPointer::ExternalRefCountData*)
FUNC 35ab8 87 0 QtSharedPointer::ExternalRefCountWithCustomDeleter<AutomationStudio, QtSharedPointer::NormalDeleter>::create(AutomationStudio*, QtSharedPointer::NormalDeleter, void (*)(QtSharedPointer::ExternalRefCountData*))
FUNC 35b40 59 0 QSharedPointer<AutomationStudio>::enableSharedFromThis(...)
FUNC 35b9a 1a 0 QList<QString>::const_iterator::const_iterator(QList<QString>::Node*)
FUNC 35bb4 e8 0 QMetaTypeIdQObject<AutomationStudio*, 8>::qt_metatype_id()
FUNC 35c9c b 0 QtMetaTypePrivate::QMetaTypeFunctionHelper<AutomationStudio*, true>::Destruct(void*)
FUNC 35ca7 4c 0 QtMetaTypePrivate::QMetaTypeFunctionHelper<AutomationStudio*, true>::Construct(void*, void const*)
FUNC 35cf3 d 0 QtPrivate::MetaObjectForType<AutomationStudio*, void>::value()
FUNC 35d00 e 0 QtPrivate::SequentialContainerConverterHelper<AutomationStudio*, false>::registerConverter(int)
FUNC 35d0e e 0 QtPrivate::AssociativeContainerConverterHelper<AutomationStudio*, false>::registerConverter(int)
FUNC 35d1c e 0 QtPrivate::IsPair<AutomationStudio*>::registerConverter(int)
FUNC 35d2a e 0 QtPrivate::MetaTypeSmartPointerHelper<AutomationStudio*, void>::registerConverter(int)
FUNC 35d38 b 0 QtMetaTypePrivate::QMetaTypeFunctionHelper<QQmlListProperty<AutomationStudio>, true>::Destruct(void*)
FUNC 35d43 a1 0 QtMetaTypePrivate::QMetaTypeFunctionHelper<QQmlListProperty<AutomationStudio>, true>::Construct(void*, void const*)
FUNC 35de4 b 0 QtPrivate::MetaObjectForType<QQmlListProperty<AutomationStudio>, void>::value()
FUNC 35def e 0 QtPrivate::SequentialContainerConverterHelper<QQmlListProperty<AutomationStudio>, false>::registerConverter(int)
FUNC 35dfd e 0 QtPrivate::AssociativeContainerConverterHelper<QQmlListProperty<AutomationStudio>, false>::registerConverter(int)
FUNC 35e0b e 0 QtPrivate::IsPair<QQmlListProperty<AutomationStudio> >::registerConverter(int)
FUNC 35e19 e 0 QtPrivate::MetaTypeSmartPointerHelper<QQmlListProperty<AutomationStudio>, void>::registerConverter(int)
FUNC 35e27 b 0 QQmlPrivate::AttachedPropertySelector<AutomationStudio, 0>::func()
FUNC 35e32 b 0 QQmlPrivate::AttachedPropertySelector<AutomationStudio, 0>::metaObject()
FUNC 35e3d b 0 QQmlPrivate::StaticCastSelectorClass<AutomationStudio, QQmlParserStatus, 1>::cast()
FUNC 35e48 b 0 QQmlPrivate::StaticCastSelectorClass<AutomationStudio, QQmlPropertyValueSource, 1>::cast()
FUNC 35e53 b 0 QQmlPrivate::StaticCastSelectorClass<AutomationStudio, QQmlPropertyValueInterceptor, 1>::cast()
FUNC 35e5e e8 0 QMetaTypeIdQObject<QCoreApplication*, 8>::qt_metatype_id()
FUNC 35f46 b 0 QtMetaTypePrivate::QMetaTypeFunctionHelper<QCoreApplication*, true>::Destruct(void*)
FUNC 35f51 4c 0 QtMetaTypePrivate::QMetaTypeFunctionHelper<QCoreApplication*, true>::Construct(void*, void const*)
FUNC 35f9d d 0 QtPrivate::MetaObjectForType<QCoreApplication*, void>::value()
FUNC 35faa e 0 QtPrivate::SequentialContainerConverterHelper<QCoreApplication*, false>::registerConverter(int)
FUNC 35fb8 e 0 QtPrivate::AssociativeContainerConverterHelper<QCoreApplication*, false>::registerConverter(int)
FUNC 35fc6 e 0 QtPrivate::IsPair<QCoreApplication*>::registerConverter(int)
FUNC 35fd4 e 0 QtPrivate::MetaTypeSmartPointerHelper<QCoreApplication*, void>::registerConverter(int)
FUNC 35fe2 b 0 QtMetaTypePrivate::QMetaTypeFunctionHelper<QQmlListProperty<QCoreApplication>, true>::Destruct(void*)
FUNC 35fed a1 0 QtMetaTypePrivate::QMetaTypeFunctionHelper<QQmlListProperty<QCoreApplication>, true>::Construct(void*, void const*)
FUNC 3608e b 0 QtPrivate::MetaObjectForType<QQmlListProperty<QCoreApplication>, void>::value()
FUNC 36099 e 0 QtPrivate::SequentialContainerConverterHelper<QQmlListProperty<QCoreApplication>, false>::registerConverter(int)
FUNC 360a7 e 0 QtPrivate::AssociativeContainerConverterHelper<QQmlListProperty<QCoreApplication>, false>::registerConverter(int)
FUNC 360b5 e 0 QtPrivate::IsPair<QQmlListProperty<QCoreApplication> >::registerConverter(int)
FUNC 360c3 e 0 QtPrivate::MetaTypeSmartPointerHelper<QQmlListProperty<QCoreApplication>, void>::registerConverter(int)
FUNC 360d1 b 0 QQmlPrivate::AttachedPropertySelector<QCoreApplication, 0>::func()
FUNC 360dc b 0 QQmlPrivate::AttachedPropertySelector<QCoreApplication, 0>::metaObject()
FUNC 360e7 b 0 QQmlPrivate::StaticCastSelectorClass<QCoreApplication, QQmlParserStatus, 1>::cast()
FUNC 360f2 b 0 QQmlPrivate::StaticCastSelectorClass<QCoreApplication, QQmlPropertyValueSource, 1>::cast()
FUNC 360fd b 0 QQmlPrivate::StaticCastSelectorClass<QCoreApplication, QQmlPropertyValueInterceptor, 1>::cast()
FUNC 36108 e8 0 QMetaTypeIdQObject<Settings*, 8>::qt_metatype_id()
FUNC 361f0 b 0 QtMetaTypePrivate::QMetaTypeFunctionHelper<Settings*, true>::Destruct(void*)
FUNC 361fb 4c 0 QtMetaTypePrivate::QMetaTypeFunctionHelper<Settings*, true>::Construct(void*, void const*)
FUNC 36247 d 0 QtPrivate::MetaObjectForType<Settings*, void>::value()
FUNC 36254 e 0 QtPrivate::SequentialContainerConverterHelper<Settings*, false>::registerConverter(int)
FUNC 36262 e 0 QtPrivate::AssociativeContainerConverterHelper<Settings*, false>::registerConverter(int)
FUNC 36270 e 0 QtPrivate::IsPair<Settings*>::registerConverter(int)
FUNC 3627e e 0 QtPrivate::MetaTypeSmartPointerHelper<Settings*, void>::registerConverter(int)
FUNC 3628c b 0 QtMetaTypePrivate::QMetaTypeFunctionHelper<QQmlListProperty<Settings>, true>::Destruct(void*)
FUNC 36297 a1 0 QtMetaTypePrivate::QMetaTypeFunctionHelper<QQmlListProperty<Settings>, true>::Construct(void*, void const*)
FUNC 36338 b 0 QtPrivate::MetaObjectForType<QQmlListProperty<Settings>, void>::value()
FUNC 36343 e 0 QtPrivate::SequentialContainerConverterHelper<QQmlListProperty<Settings>, false>::registerConverter(int)
FUNC 36351 e 0 QtPrivate::AssociativeContainerConverterHelper<QQmlListProperty<Settings>, false>::registerConverter(int)
FUNC 3635f e 0 QtPrivate::IsPair<QQmlListProperty<Settings> >::registerConverter(int)
FUNC 3636d e 0 QtPrivate::MetaTypeSmartPointerHelper<QQmlListProperty<Settings>, void>::registerConverter(int)
FUNC 3637b b 0 QQmlPrivate::AttachedPropertySelector<Settings, 0>::func()
FUNC 36386 b 0 QQmlPrivate::AttachedPropertySelector<Settings, 0>::metaObject()
FUNC 36391 b 0 QQmlPrivate::StaticCastSelectorClass<Settings, QQmlParserStatus, 1>::cast()
FUNC 3639c b 0 QQmlPrivate::StaticCastSelectorClass<Settings, QQmlPropertyValueSource, 1>::cast()
FUNC 363a7 b 0 QQmlPrivate::StaticCastSelectorClass<Settings, QQmlPropertyValueInterceptor, 1>::cast()
FUNC 363b2 e8 0 QMetaTypeIdQObject<Utilities*, 8>::qt_metatype_id()
FUNC 3649a b 0 QtMetaTypePrivate::QMetaTypeFunctionHelper<Utilities*, true>::Destruct(void*)
FUNC 364a5 4c 0 QtMetaTypePrivate::QMetaTypeFunctionHelper<Utilities*, true>::Construct(void*, void const*)
FUNC 364f1 d 0 QtPrivate::MetaObjectForType<Utilities*, void>::value()
FUNC 364fe e 0 QtPrivate::SequentialContainerConverterHelper<Utilities*, false>::registerConverter(int)
FUNC 3650c e 0 QtPrivate::AssociativeContainerConverterHelper<Utilities*, false>::registerConverter(int)
FUNC 3651a e 0 QtPrivate::IsPair<Utilities*>::registerConverter(int)
FUNC 36528 e 0 QtPrivate::MetaTypeSmartPointerHelper<Utilities*, void>::registerConverter(int)
FUNC 36536 b 0 QtMetaTypePrivate::QMetaTypeFunctionHelper<QQmlListProperty<Utilities>, true>::Destruct(void*)
FUNC 36541 a1 0 QtMetaTypePrivate::QMetaTypeFunctionHelper<QQmlListProperty<Utilities>, true>::Construct(void*, void const*)
FUNC 365e2 b 0 QtPrivate::MetaObjectForType<QQmlListProperty<Utilities>, void>::value()
FUNC 365ed e 0 QtPrivate::SequentialContainerConverterHelper<QQmlListProperty<Utilities>, false>::registerConverter(int)
FUNC 365fb e 0 QtPrivate::AssociativeContainerConverterHelper<QQmlListProperty<Utilities>, false>::registerConverter(int)
FUNC 36609 e 0 QtPrivate::IsPair<QQmlListProperty<Utilities> >::registerConverter(int)
FUNC 36617 e 0 QtPrivate::MetaTypeSmartPointerHelper<QQmlListProperty<Utilities>, void>::registerConverter(int)
FUNC 36625 b 0 QQmlPrivate::AttachedPropertySelector<Utilities, 0>::func()
FUNC 36630 b 0 QQmlPrivate::AttachedPropertySelector<Utilities, 0>::metaObject()
FUNC 3663b b 0 QQmlPrivate::StaticCastSelectorClass<Utilities, QQmlParserStatus, 1>::cast()
FUNC 36646 b 0 QQmlPrivate::StaticCastSelectorClass<Utilities, QQmlPropertyValueSource, 1>::cast()
FUNC 36651 b 0 QQmlPrivate::StaticCastSelectorClass<Utilities, QQmlPropertyValueInterceptor, 1>::cast()
FUNC 3665c e8 0 QMetaTypeIdQObject<SystemSettings*, 8>::qt_metatype_id()
FUNC 36744 b 0 QtMetaTypePrivate::QMetaTypeFunctionHelper<SystemSettings*, true>::Destruct(void*)
FUNC 3674f 4c 0 QtMetaTypePrivate::QMetaTypeFunctionHelper<SystemSettings*, true>::Construct(void*, void const*)
FUNC 3679b d 0 QtPrivate::MetaObjectForType<SystemSettings*, void>::value()
FUNC 367a8 e 0 QtPrivate::SequentialContainerConverterHelper<SystemSettings*, false>::registerConverter(int)
FUNC 367b6 e 0 QtPrivate::AssociativeContainerConverterHelper<SystemSettings*, false>::registerConverter(int)
FUNC 367c4 e 0 QtPrivate::IsPair<SystemSettings*>::registerConverter(int)
FUNC 367d2 e 0 QtPrivate::MetaTypeSmartPointerHelper<SystemSettings*, void>::registerConverter(int)
FUNC 367e0 b 0 QtMetaTypePrivate::QMetaTypeFunctionHelper<QQmlListProperty<SystemSettings>, true>::Destruct(void*)
FUNC 367eb a1 0 QtMetaTypePrivate::QMetaTypeFunctionHelper<QQmlListProperty<SystemSettings>, true>::Construct(void*, void const*)
FUNC 3688c b 0 QtPrivate::MetaObjectForType<QQmlListProperty<SystemSettings>, void>::value()
FUNC 36897 e 0 QtPrivate::SequentialContainerConverterHelper<QQmlListProperty<SystemSettings>, false>::registerConverter(int)
FUNC 368a5 e 0 QtPrivate::AssociativeContainerConverterHelper<QQmlListProperty<SystemSettings>, false>::registerConverter(int)
FUNC 368b3 e 0 QtPrivate::IsPair<QQmlListProperty<SystemSettings> >::registerConverter(int)
FUNC 368c1 e 0 QtPrivate::MetaTypeSmartPointerHelper<QQmlListProperty<SystemSettings>, void>::registerConverter(int)
FUNC 368cf b 0 QQmlPrivate::AttachedPropertySelector<SystemSettings, 0>::func()
FUNC 368da b 0 QQmlPrivate::AttachedPropertySelector<SystemSettings, 0>::metaObject()
FUNC 368e5 b 0 QQmlPrivate::StaticCastSelectorClass<SystemSettings, QQmlParserStatus, 1>::cast()
FUNC 368f0 b 0 QQmlPrivate::StaticCastSelectorClass<SystemSettings, QQmlPropertyValueSource, 1>::cast()
FUNC 368fb b 0 QQmlPrivate::StaticCastSelectorClass<SystemSettings, QQmlPropertyValueInterceptor, 1>::cast()
FUNC 36906 e8 0 QMetaTypeIdQObject<SocketIO*, 8>::qt_metatype_id()
FUNC 369ee b 0 QtMetaTypePrivate::QMetaTypeFunctionHelper<SocketIO*, true>::Destruct(void*)
FUNC 369f9 4c 0 QtMetaTypePrivate::QMetaTypeFunctionHelper<SocketIO*, true>::Construct(void*, void const*)
FUNC 36a45 d 0 QtPrivate::MetaObjectForType<SocketIO*, void>::value()
FUNC 36a52 e 0 QtPrivate::SequentialContainerConverterHelper<SocketIO*, false>::registerConverter(int)
FUNC 36a60 e 0 QtPrivate::AssociativeContainerConverterHelper<SocketIO*, false>::registerConverter(int)
FUNC 36a6e e 0 QtPrivate::IsPair<SocketIO*>::registerConverter(int)
FUNC 36a7c e 0 QtPrivate::MetaTypeSmartPointerHelper<SocketIO*, void>::registerConverter(int)
FUNC 36a8a b 0 QtMetaTypePrivate::QMetaTypeFunctionHelper<QQmlListProperty<SocketIO>, true>::Destruct(void*)
FUNC 36a95 a1 0 QtMetaTypePrivate::QMetaTypeFunctionHelper<QQmlListProperty<SocketIO>, true>::Construct(void*, void const*)
FUNC 36b36 b 0 QtPrivate::MetaObjectForType<QQmlListProperty<SocketIO>, void>::value()
FUNC 36b41 e 0 QtPrivate::SequentialContainerConverterHelper<QQmlListProperty<SocketIO>, false>::registerConverter(int)
FUNC 36b4f e 0 QtPrivate::AssociativeContainerConverterHelper<QQmlListProperty<SocketIO>, false>::registerConverter(int)
FUNC 36b5d e 0 QtPrivate::IsPair<QQmlListProperty<SocketIO> >::registerConverter(int)
FUNC 36b6b e 0 QtPrivate::MetaTypeSmartPointerHelper<QQmlListProperty<SocketIO>, void>::registerConverter(int)
FUNC 36b79 b 0 QQmlPrivate::AttachedPropertySelector<SocketIO, 0>::func()
FUNC 36b84 b 0 QQmlPrivate::AttachedPropertySelector<SocketIO, 0>::metaObject()
FUNC 36b8f b 0 QQmlPrivate::StaticCastSelectorClass<SocketIO, QQmlParserStatus, 1>::cast()
FUNC 36b9a b 0 QQmlPrivate::StaticCastSelectorClass<SocketIO, QQmlPropertyValueSource, 1>::cast()
FUNC 36ba5 b 0 QQmlPrivate::StaticCastSelectorClass<SocketIO, QQmlPropertyValueInterceptor, 1>::cast()
FUNC 36bb0 e8 0 QMetaTypeIdQObject<AppUpdater*, 8>::qt_metatype_id()
FUNC 36c98 b 0 QtMetaTypePrivate::QMetaTypeFunctionHelper<AppUpdater*, true>::Destruct(void*)
FUNC 36ca3 4c 0 QtMetaTypePrivate::QMetaTypeFunctionHelper<AppUpdater*, true>::Construct(void*, void const*)
FUNC 36cef d 0 QtPrivate::MetaObjectForType<AppUpdater*, void>::value()
FUNC 36cfc e 0 QtPrivate::SequentialContainerConverterHelper<AppUpdater*, false>::registerConverter(int)
FUNC 36d0a e 0 QtPrivate::AssociativeContainerConverterHelper<AppUpdater*, false>::registerConverter(int)
FUNC 36d18 e 0 QtPrivate::IsPair<AppUpdater*>::registerConverter(int)
FUNC 36d26 e 0 QtPrivate::MetaTypeSmartPointerHelper<AppUpdater*, void>::registerConverter(int)
FUNC 36d34 b 0 QtMetaTypePrivate::QMetaTypeFunctionHelper<QQmlListProperty<AppUpdater>, true>::Destruct(void*)
FUNC 36d3f a1 0 QtMetaTypePrivate::QMetaTypeFunctionHelper<QQmlListProperty<AppUpdater>, true>::Construct(void*, void const*)
FUNC 36de0 b 0 QtPrivate::MetaObjectForType<QQmlListProperty<AppUpdater>, void>::value()
FUNC 36deb e 0 QtPrivate::SequentialContainerConverterHelper<QQmlListProperty<AppUpdater>, false>::registerConverter(int)
FUNC 36df9 e 0 QtPrivate::AssociativeContainerConverterHelper<QQmlListProperty<AppUpdater>, false>::registerConverter(int)
FUNC 36e07 e 0 QtPrivate::IsPair<QQmlListProperty<AppUpdater> >::registerConverter(int)
FUNC 36e15 e 0 QtPrivate::MetaTypeSmartPointerHelper<QQmlListProperty<AppUpdater>, void>::registerConverter(int)
FUNC 36e23 b 0 QQmlPrivate::AttachedPropertySelector<AppUpdater, 0>::func()
FUNC 36e2e b 0 QQmlPrivate::AttachedPropertySelector<AppUpdater, 0>::metaObject()
FUNC 36e39 b 0 QQmlPrivate::StaticCastSelectorClass<AppUpdater, QQmlParserStatus, 1>::cast()
FUNC 36e44 b 0 QQmlPrivate::StaticCastSelectorClass<AppUpdater, QQmlPropertyValueSource, 1>::cast()
FUNC 36e4f b 0 QQmlPrivate::StaticCastSelectorClass<AppUpdater, QQmlPropertyValueInterceptor, 1>::cast()
FUNC 36e5a 38 0 QtSharedPointer::CustomDeleter<AutomationStudio, QtSharedPointer::NormalDeleter>::execute()
FUNC 36e92 1a 0 QtSharedPointer::CustomDeleter<AutomationStudio, QtSharedPointer::NormalDeleter>::CustomDeleter(AutomationStudio*, QtSharedPointer::NormalDeleter)
FUNC 36eac 6a 0 QQmlListProperty<AutomationStudio>::QQmlListProperty()
FUNC 36f16 6a 0 QQmlListProperty<QCoreApplication>::QQmlListProperty()
FUNC 36f80 6a 0 QQmlListProperty<Settings>::QQmlListProperty()
FUNC 36fea 6a 0 QQmlListProperty<Utilities>::QQmlListProperty()
FUNC 37054 6a 0 QQmlListProperty<SystemSettings>::QQmlListProperty()
FUNC 370be 6a 0 QQmlListProperty<SocketIO>::QQmlListProperty()
FUNC 37128 6a 0 QQmlListProperty<AppUpdater>::QQmlListProperty()
FUNC 37192 1a 0 QtPrivate::ApplyReturnValue<void>::ApplyReturnValue(void*)
FUNC 371ac 1f 0 __gthread_active_p
FUNC 371cb 1a 0 __gnu_cxx::__exchange_and_add
FUNC 371e5 18 0 __gnu_cxx::__atomic_add
FUNC 371fd 2a 0 __gnu_cxx::__exchange_and_add_single
FUNC 37227 1f 0 __gnu_cxx::__atomic_add_single
FUNC 37246 43 0 __gnu_cxx::__exchange_and_add_dispatch
FUNC 37289 44 0 __gnu_cxx::__atomic_add_dispatch
FUNC 37c86 a70 0 Settings::Settings(QObject*, QString)
FUNC 389c8 4a7 0 Settings::registerApp()
FUNC 38e70 16b 0 Settings::~Settings()
FUNC 38fdc 2b 0 Settings::~Settings()
FUNC 39008 9b4 0 Settings::load()
FUNC 399bc 826 0 Settings::save()
FUNC 3a1e2 b 0 Settings::updateBaseSettings()
FUNC 3a1ee 8ee 0 Settings::loadBaseSettings()
FUNC 3aadc 1f 0 Settings::initSocketIO()
FUNC 3aafc 69 0 Settings::backupConfigs()
FUNC 3ab66 47 0 Settings::setBasefileLoaded(bool)
FUNC 3abae b3 0 Settings::check_new_firmware()
FUNC 3ac62 e5 0 Settings::update_new_firmware()
FUNC 3ad48 2e 0 Settings::Serialize(QJsonObject&)
FUNC 3ad7c 206 0 Settings::DeSerialize(QJsonObject&)
FUNC 3af8b e 0 std::move<Settings::Settings(QObject*, QString)::<lambda()>&>
FUNC 3af99 bd 0 QObject::connect<void (AppUpdater::*)(), Settings::Settings(QObject*, QString)::<lambda()> >
FUNC 3b056 e 0 std::move<Settings::Settings(QObject*, QString)::<lambda(QString)>&>
FUNC 3b064 bd 0 QObject::connect<void (SocketIO::*)(QString), Settings::Settings(QObject*, QString)::<lambda(QString)> >
FUNC 3b121 e 0 std::move<Settings::Settings(QObject*, QString)::<lambda()>::<lambda(const sio::message::list&)>&>
FUNC 3b130 99 0 std::function<void(const sio::message::list&)>::function<Settings::Settings(QObject*, QString)::<lambda()>::<lambda(const sio::message::list&)> >
FUNC 3b1c9 e 0 std::move<Settings::Settings(QObject*, QString)::<lambda()>&>
FUNC 3b1d7 bd 0 QObject::connect<void (SocketIO::*)(), Settings::Settings(QObject*, QString)::<lambda()> >
FUNC 3b294 e 0 std::move<Settings::registerApp()::<lambda(const sio::message::list&)>&>
FUNC 3b2a2 99 0 std::function<void(const sio::message::list&)>::function<Settings::registerApp()::<lambda(const sio::message::list&)> >
FUNC 3b33c 40 0 QtPrivate::QFunctorSlotObject<Settings::Settings(QObject*, QString)::<lambda()>, 0, QtPrivate::List<>, void>::QFunctorSlotObject
FUNC 3b37c 40 0 QtPrivate::QFunctorSlotObject<Settings::Settings(QObject*, QString)::<lambda(QString)>, 1, QtPrivate::List<QString>, void>::QFunctorSlotObject
FUNC 3b3bc f 0 std::_Function_base::_Base_manager<Settings::Settings(QObject*, QString)::<lambda()>::<lambda(const sio::message::list&)> >::_M_not_empty_function<Settings::Settings(QObject*, QString)::<lambda()>::<lambda(const sio::message::list&)> >
FUNC 3b3cb 3f 0 std::_Function_base::_Base_manager<Settings::Settings(QObject*, QString)::<lambda()>::<lambda(const sio::message::list&)> >::_M_init_functor
FUNC 3b40a 3f 0 std::_Function_handler<void(const sio::message::list&), Settings::Settings(QObject*, QString)::<lambda()>::<lambda(const sio::message::list&)> >::_M_invoke
FUNC 3b449 ae 0 std::_Function_base::_Base_manager<Settings::Settings(QObject*, QString)::<lambda()>::<lambda(const sio::message::list&)> >::_M_manager
FUNC 3b4f8 40 0 QtPrivate::QFunctorSlotObject<Settings::Settings(QObject*, QString)::<lambda()>, 0, QtPrivate::List<>, void>::QFunctorSlotObject
FUNC 3b538 f 0 std::_Function_base::_Base_manager<Settings::registerApp()::<lambda(const sio::message::list&)> >::_M_not_empty_function<Settings::registerApp()::<lambda(const sio::message::list&)> >
FUNC 3b547 3f 0 std::_Function_base::_Base_manager<Settings::registerApp()::<lambda(const sio::message::list&)> >::_M_init_functor
FUNC 3b586 3f 0 std::_Function_handler<void(const sio::message::list&), Settings::registerApp()::<lambda(const sio::message::list&)> >::_M_invoke
FUNC 3b5c5 ae 0 std::_Function_base::_Base_manager<Settings::registerApp()::<lambda(const sio::message::list&)> >::_M_manager
FUNC 3b674 1b 0 QtPrivate::QFunctorSlotObject<Settings::Settings(QObject*, QString)::<lambda()>, 0, QtPrivate::List<>, void>::~QFunctorSlotObject
FUNC 3b68f 70 0 QtPrivate::QFunctorSlotObject<Settings::Settings(QObject*, QString)::<lambda()>, 0, QtPrivate::List<>, void>::impl
FUNC 3b700 1b 0 QtPrivate::QFunctorSlotObject<Settings::Settings(QObject*, QString)::<lambda(QString)>, 1, QtPrivate::List<QString>, void>::~QFunctorSlotObject
FUNC 3b71b 70 0 QtPrivate::QFunctorSlotObject<Settings::Settings(QObject*, QString)::<lambda(QString)>, 1, QtPrivate::List<QString>, void>::impl
FUNC 3b78b 4c 0 std::_Function_base::_Base_manager<Settings::Settings(QObject*, QString)::<lambda()>::<lambda(const sio::message::list&)> >::_M_init_functor
FUNC 3b7d7 2a 0 std::_Function_base::_Base_manager<Settings::Settings(QObject*, QString)::<lambda()>::<lambda(const sio::message::list&)> >::_M_get_pointer
FUNC 3b802 1a 0 std::_Any_data::_M_access<Settings::Settings(QObject*, QString)::<lambda()>::<lambda(const sio::message::list&)>*>
FUNC 3b81c 4c 0 std::_Function_base::_Base_manager<Settings::Settings(QObject*, QString)::<lambda()>::<lambda(const sio::message::list&)> >::_M_clone
FUNC 3b868 1b 0 std::_Function_base::_Base_manager<Settings::Settings(QObject*, QString)::<lambda()>::<lambda(const sio::message::list&)> >::_M_destroy
FUNC 3b884 1b 0 QtPrivate::QFunctorSlotObject<Settings::Settings(QObject*, QString)::<lambda()>, 0, QtPrivate::List<>, void>::~QFunctorSlotObject
FUNC 3b89f 70 0 QtPrivate::QFunctorSlotObject<Settings::Settings(QObject*, QString)::<lambda()>, 0, QtPrivate::List<>, void>::impl
FUNC 3b90f 4c 0 std::_Function_base::_Base_manager<Settings::registerApp()::<lambda(const sio::message::list&)> >::_M_init_functor
FUNC 3b95b 2a 0 std::_Function_base::_Base_manager<Settings::registerApp()::<lambda(const sio::message::list&)> >::_M_get_pointer
FUNC 3b986 1a 0 std::_Any_data::_M_access<Settings::registerApp()::<lambda(const sio::message::list&)>*>
FUNC 3b9a0 4c 0 std::_Function_base::_Base_manager<Settings::registerApp()::<lambda(const sio::message::list&)> >::_M_clone
FUNC 3b9ec 1b 0 std::_Function_base::_Base_manager<Settings::registerApp()::<lambda(const sio::message::list&)> >::_M_destroy
FUNC 3ba07 2a 0 QtPrivate::Functor<Settings::Settings(QObject*, QString)::<lambda()>, 0>::call<QtPrivate::List<>, void>
FUNC 3ba31 2a 0 QtPrivate::Functor<Settings::Settings(QObject*, QString)::<lambda(QString)>, 1>::call<QtPrivate::List<QString>, void>
FUNC 3ba5c 1a 0 std::_Any_data::_M_access<Settings::Settings(QObject*, QString)::<lambda()>::<lambda(const sio::message::list&)> >
FUNC 3ba76 e 0 std::__addressof<const Settings::Settings(QObject*, QString)::<lambda()>::<lambda(const sio::message::list&)> >
FUNC 3ba84 1a 0 std::_Any_data::_M_access<Settings::Settings(QObject*, QString)::<lambda()>::<lambda(const sio::message::list&)> >
FUNC 3ba9e 2a 0 QtPrivate::Functor<Settings::Settings(QObject*, QString)::<lambda()>, 0>::call<QtPrivate::List<>, void>
FUNC 3bac8 1a 0 std::_Any_data::_M_access<Settings::registerApp()::<lambda(const sio::message::list&)> >
FUNC 3bae2 e 0 std::__addressof<const Settings::registerApp()::<lambda(const sio::message::list&)> >
FUNC 3baf0 1a 0 std::_Any_data::_M_access<Settings::registerApp()::<lambda(const sio::message::list&)> >
FUNC 3bb0a 35 0 QtPrivate::FunctorCall<QtPrivate::IndexesList<>, QtPrivate::List<>, void, Settings::Settings(QObject*, QString)::<lambda()> >::call
FUNC 3bb3f 83 0 QtPrivate::FunctorCall<QtPrivate::IndexesList<0>, QtPrivate::List<QString>, void, Settings::Settings(QObject*, QString)::<lambda(QString)> >::call
FUNC 3bbc2 35 0 QtPrivate::FunctorCall<QtPrivate::IndexesList<>, QtPrivate::List<>, void, Settings::Settings(QObject*, QString)::<lambda()> >::call
FUNC 3bbf7 49 0 __static_initialization_and_destruction_0
FUNC 3bc40 15 0 _GLOBAL__sub_I_settings.cpp
FUNC 3bc56 1a 0 QChar::QChar(int)
FUNC 3bc70 4f 0 qstrnlen(char const*, unsigned int)
FUNC 3bcc0 14 0 QString::size() const
FUNC 3bcd4 5f 0 QString::QString(QByteArray const&)
FUNC 3bd34 19 0 QString::isEmpty() const
FUNC 3bd4e 53 0 QString::operator==(char const*) const
FUNC 3bda1 62 0 operator+(QString const&, QString const&)
FUNC 3be04 4a 0 QString::fromStdString(std::__cxx11::basic_string<char, std::char_traits<char>, std::allocator<char> > const&)
FUNC 3be4e e 0 std::_Any_data::_M_access()
FUNC 3be5c e 0 std::_Any_data::_M_access() const
FUNC 3be6a 17 0 std::_Function_base::_Function_base()
FUNC 3be82 36 0 std::_Function_base::~_Function_base()
FUNC 3beb8 82 0 QJsonValue::QJsonValue(char const*)
FUNC 3bf3a 64 0 QJsonValueRef::toBool() const
FUNC 3bf9e 6b 0 QJsonValueRef::toString() const
FUNC 3c00a 48 0 QIODevice::write(QByteArray const&)
FUNC 3c052 25 0 JsonSerializable::JsonSerializable()
FUNC 3c078 12 0 Project::isDefault() const
FUNC 3c08a 2d 0 AppUpdater::serverUrl() const
FUNC 3c0b8 11 0 sio::message::get_flag() const
FUNC 3c0ca 1f 0 std::__shared_ptr<sio::message, (__gnu_cxx::_Lock_policy)2>::~__shared_ptr()
FUNC 3c0ea 1b 0 std::shared_ptr<sio::message>::~shared_ptr()
FUNC 3c106 1a 0 sio::message::list::size() const
FUNC 3c120 25 0 sio::message::list::at(unsigned long) const
FUNC 3c146 9d 0 SocketIO::setServerUrl(QString)
FUNC 3c1e4 12 0 User::isDefault() const
FUNC 3c1f6 2d 0 Settings::source() const
FUNC 3c224 15 0 Settings::appUpdater() const
FUNC 3c23a 30 0 Settings::appID() const
FUNC 3c26a 9d 0 Settings::setSource(QString)
FUNC 3c308 47 0 Settings::setLoaded(bool)
FUNC 3c350 46 0 Settings::setCurrentUser(User*)
FUNC 3c396 47 0 Settings::setAppRegistred(bool)
FUNC 3c3de a6 0 Settings::setAppID(QString)
FUNC 3c484 bb 0 Settings::setSelectedProject(Project*)
FUNC 3c540 50 0 Settings::setUseRemoteSettings(bool)
FUNC 3c590 a6 0 Settings::setRemoteSettingsBaseLocation(QString)
FUNC 3c636 50 0 Settings::setNewFirmwareAvailable(bool)
FUNC 3c686 50 0 Settings::setSelectingProject(bool)
FUNC 3c6d6 15 0 Settings::useRemoteSettings() const
FUNC 3c6ec 30 0 Settings::remoteSettingsBaseLocation() const
FUNC 3c71c 1b 0 QtPrivate::QForeachContainer<QList<QNetworkInterface> >::~QForeachContainer()
FUNC 3c738 1b 0 std::function<void (sio::message::list const&)>::~function()
FUNC 3c754 3c 0 std::__shared_ptr<sio::message, (__gnu_cxx::_Lock_policy)2>::__shared_ptr(std::__shared_ptr<sio::message, (__gnu_cxx::_Lock_policy)2> const&)
FUNC 3c790 26 0 std::shared_ptr<sio::message>::shared_ptr(std::shared_ptr<sio::message> const&)
FUNC 3c7b6 2a 0 std::__shared_count<(__gnu_cxx::_Lock_policy)2>::~__shared_count()
FUNC 3c7e0 3c 0 std::__shared_count<(__gnu_cxx::_Lock_policy)2>::__shared_count(std::__shared_count<(__gnu_cxx::_Lock_policy)2> const&)
FUNC 3c81c 26 0 std::vector<std::shared_ptr<sio::message>, std::allocator<std::shared_ptr<sio::message> > >::size() const
FUNC 3c842 20 0 std::vector<std::shared_ptr<sio::message>, std::allocator<std::shared_ptr<sio::message> > >::operator[](unsigned long) const
FUNC 3c862 11 0 std::__shared_ptr<sio::message, (__gnu_cxx::_Lock_policy)2>::operator->() const
FUNC 3c874 47 0 QList<QNetworkInterface>::~QList()
FUNC 3c8bb e 0 QList<QNetworkInterface>&& std::forward<QList<QNetworkInterface> >(std::remove_reference<QList<QNetworkInterface> >::type&)
FUNC 3c8c9 34 0 QtPrivate::QForeachContainer<std::decay<QList<QNetworkInterface> >::type> QtPrivate::qMakeForeachContainer<QList<QNetworkInterface> >(QList<QNetworkInterface>&&)
FUNC 3c8fd e 0 std::remove_reference<QList<QNetworkInterface>&>::type&& std::move<QList<QNetworkInterface>&>(QList<QNetworkInterface>&)
FUNC 3c90b e 0 std::add_const<QList<QNetworkInterface> >::type& qAsConst<QList<QNetworkInterface> >(QList<QNetworkInterface>&)
FUNC 3c91a 22 0 QList<QNetworkInterface>::const_iterator::operator!=(QList<QNetworkInterface>::const_iterator const&) const
FUNC 3c93c 20 0 QList<QNetworkInterface>::const_iterator::operator++()
FUNC 3c95c 1d 0 QList<QNetworkInterface>::const_iterator::operator*() const
FUNC 3c97a b 0 std::unary_function<sio::message::list const&, void>::unary_function()
FUNC 3c986 1b 0 std::_Maybe_unary_or_binary_function<void, sio::message::list const&>::_Maybe_unary_or_binary_function()
FUNC 3c9a2 2b 0 std::function<void (sio::message::list const&)>::function(decltype(nullptr))
FUNC 3c9ce 1a 0 QList<QString>::length() const
FUNC 3c9e8 7b 0 std::_Sp_counted_base<(__gnu_cxx::_Lock_policy)2>::_M_release()
FUNC 3ca64 24 0 std::_Sp_counted_base<(__gnu_cxx::_Lock_policy)2>::_M_add_ref_copy()
FUNC 3ca88 b 0 QListSpecialMethods<QNetworkInterface>::~QListSpecialMethods()
FUNC 3ca94 5e 0 QList<QNetworkInterface>::dealloc(QListData::Data*)
FUNC 3caf2 80 0 QtPrivate::QForeachContainer<QList<QNetworkInterface> >::QForeachContainer(QList<QNetworkInterface>&&)
FUNC 3cb72 34 0 QList<QNetworkInterface>::begin() const
FUNC 3cba6 34 0 QList<QNetworkInterface>::end() const
FUNC 3cbda b 0 QListSpecialMethods<QNetworkInterface>::QListSpecialMethods()
FUNC 3cbe6 3b 0 QList<QNetworkInterface>::QList(QList<QNetworkInterface>&&)
FUNC 3cc22 e 0 QList<QNetworkInterface>::Node::t()
FUNC 3cc30 d 0 QtPrivate::ConnectionTypes<QtPrivate::List<QString>, true>::types()
FUNC 3cc3d e 0 sio::message::list const& std::forward<sio::message::list const&>(std::remove_reference<sio::message::list const&>::type&)
FUNC 3cc4c 1a 0 std::type_info const*& std::_Any_data::_M_access<std::type_info const*>()
FUNC 3cc66 34 0 QList<QNetworkInterface>::node_destruct(QList<QNetworkInterface>::Node*, QList<QNetworkInterface>::Node*)
FUNC 3cc9a 1a 0 QList<QNetworkInterface>::const_iterator::const_iterator(QList<QNetworkInterface>::Node*)
FUNC 3ccb4 2a 0 qInitResources_application_qmlcache()
FUNC 3ccde 2a 0 qCleanupResources_application_qmlcache()
FUNC 3cd08 14 0 initializer::initializer
FUNC 3cd1c 14 0 initializer::~initializer
FUNC 3cd30 46 0 __static_initialization_and_destruction_0
FUNC 3cd76 15 0 _GLOBAL__sub_I_qrc_application_qmlcache.cpp
FUNC 3cdce 1b 0 Registry::~Registry
FUNC 3ce6b 91 0 Q_QGS_unitRegistry::innerFunction
FUNC 3cf70 122 0 Registry::Registry
FUNC 3d092 1b3 0 Registry::lookupCachedUnit
FUNC 3d245 1c 0 qInitResources_application()
FUNC 3d262 14 0 qInitResources_application_ctor_class_::qInitResources_application_ctor_class_
FUNC 3d276 10 0 qCleanupResources_application()
FUNC 3d286 2a 0 QGlobalStatic<(anonymous namespace)::Registry, (anonymous namespace)::(anonymous namespace)::Q_QGS_unitRegistry::innerFunction, (anonymous namespace)::(anonymous namespace)::Q_QGS_unitRegistry::guard>::operator()
FUNC 3d2b0 20 0 QGlobalStatic<(anonymous namespace)::Registry, (anonymous namespace)::(anonymous namespace)::Q_QGS_unitRegistry::innerFunction, (anonymous namespace)::(anonymous namespace)::Q_QGS_unitRegistry::guard>::isDestroyed
FUNC 3d2d0 2c 0 __static_initialization_and_destruction_0
FUNC 3d2fc 15 0 _GLOBAL__sub_I_qmlcache_loader.cpp
FUNC 3d312 1a 0 QLatin1Char::QLatin1Char(char)
FUNC 3d32c 14 0 QLatin1Char::unicode() const
FUNC 3d340 28 0 QChar::QChar(QLatin1Char)
FUNC 3d368 41 0 QLatin1String::QLatin1String(char const*)
FUNC 3d3aa 27 0 QString::prepend(QChar)
FUNC 3d3d2 36 0 QString::operator!=(QLatin1String) const
FUNC 3d408 46 0 QHashData::willGrow()
FUNC 3d44e 17 0 QFlags<QUrl::ComponentFormattingOption>::QFlags(QUrl::ComponentFormattingOption)
FUNC 3d466 3f 0 QHash<QString, QQmlPrivate::CachedQmlUnit const*>::~QHash()
FUNC 3d4a6 19 0 QHash<QString, QQmlPrivate::CachedQmlUnit const*>::QHash()
FUNC 3d4c0 e 0 QStaticStringData<9>::data_ptr() const
FUNC 3d4ce df 0 QHash<QString, QQmlPrivate::CachedQmlUnit const*>::insert(QString const&, QQmlPrivate::CachedQmlUnit const* const&)
FUNC 3d5ae e 0 QStaticStringData<17>::data_ptr() const
FUNC 3d5bc 71 0 QHash<QString, QQmlPrivate::CachedQmlUnit const*>::value(QString const&, QQmlPrivate::CachedQmlUnit const* const&) const
FUNC 3d62e 29 0 QHash<QString, QQmlPrivate::CachedQmlUnit const*>::freeData(QHashData*)
FUNC 3d658 32 0 QHash<QString, QQmlPrivate::CachedQmlUnit const*>::detach()
FUNC 3d68a 73 0 QHash<QString, QQmlPrivate::CachedQmlUnit const*>::findNode(QString const&, unsigned int*) const
FUNC 3d6fe ae 0 QHash<QString, QQmlPrivate::CachedQmlUnit const*>::findNode(QString const&, unsigned int) const
FUNC 3d7ac 9b 0 QHash<QString, QQmlPrivate::CachedQmlUnit const*>::createNode(unsigned int, QString const&, QQmlPrivate::CachedQmlUnit const* const&, QHashNode<QString, QQmlPrivate::CachedQmlUnit const*>**)
FUNC 3d848 1a 0 QHash<QString, QQmlPrivate::CachedQmlUnit const*>::iterator::iterator(void*)
FUNC 3d862 1f 0 QHashNode<QString, QQmlPrivate::CachedQmlUnit const*>::~QHashNode()
FUNC 3d882 23 0 QHash<QString, QQmlPrivate::CachedQmlUnit const*>::deleteNode2(QHashData::Node*)
FUNC 3d8a6 7a 0 QHash<QString, QQmlPrivate::CachedQmlUnit const*>::detach_helper()
FUNC 3d920 48 0 QHashNode<QString, QQmlPrivate::CachedQmlUnit const*>::same_key(unsigned int, QString const&) const
FUNC 3d968 2d 0 QHash<QString, QQmlPrivate::CachedQmlUnit const*>::alignOfNode()
FUNC 3d996 59 0 QHashNode<QString, QQmlPrivate::CachedQmlUnit const*>::QHashNode(QString const&, QQmlPrivate::CachedQmlUnit const* const&, unsigned int, QHashNode<QString, QQmlPrivate::CachedQmlUnit const*>*)
FUNC 3d9ef e 0 QHash<QString, QQmlPrivate::CachedQmlUnit const*>::concrete(QHashData::Node*)
FUNC 3d9fe 63 0 QHash<QString, QQmlPrivate::CachedQmlUnit const*>::duplicateNode(QHashData::Node*, void*)
FUNC 3da62 867 0 AutomationStudio::qt_static_metacall(QObject*, QMetaObject::Call, int, void**)
FUNC 3e2ca 48 0 AutomationStudio::metaObject() const
FUNC 3e312 50 0 AutomationStudio::qt_metacast(char const*)
FUNC 3e362 103 0 AutomationStudio::qt_metacall(QMetaObject::Call, int, void**)
FUNC 3e466 4a 0 AutomationStudio::systemSettingsChanged(SystemSettings*)
FUNC 3e4b0 4a 0 AutomationStudio::coreApplicationChanged(QCoreApplication*)
FUNC 3e4fa 4a 0 AutomationStudio::releaseVersionChanged(QString)
FUNC 3e544 4a 0 AutomationStudio::buildInfoChanged(QString)
FUNC 3e58e 12 0 AutomationStudio::systemSettings() const
FUNC 3e5a0 12 0 AutomationStudio::utilities() const
FUNC 3e5b2 2d 0 AutomationStudio::releaseVersion() const
FUNC 3e5e0 2d 0 AutomationStudio::buildInfo() const
FUNC 3e60e 12 0 AutomationStudio::settings()
FUNC 3e620 b 0 int qMetaTypeId<SystemSettings*>()
FUNC 3e62b b 0 int qRegisterMetaType<SystemSettings*>()
FUNC 3e636 b 0 int qMetaTypeId<QCoreApplication*>()
FUNC 3e641 b 0 int qRegisterMetaType<QCoreApplication*>()
FUNC 3e64c b 0 int qMetaTypeId<Utilities*>()
FUNC 3e657 b 0 int qRegisterMetaType<Utilities*>()
FUNC 3e662 11 0 QScopedPointer<QObjectData, QScopedPointerDeleter<QObjectData> >::operator->() const
FUNC 3e674 2270 0 Settings::qt_static_metacall(QObject*, QMetaObject::Call, int, void**)
FUNC 408e4 48 0 Settings::metaObject() const
FUNC 4092c 92 0 Settings::qt_metacast(char const*)
FUNC 409be 103 0 Settings::qt_metacall(QMetaObject::Call, int, void**)
FUNC 40ac2 4a 0 Settings::sourceChanged(QString)
FUNC 40b0c 4b 0 Settings::loadedChanged(bool)
FUNC 40b58 4a 0 Settings::usersChanged(UsersListModel*)
FUNC 40ba2 4a 0 Settings::currentUserChanged(User*)
FUNC 40bec 4a 0 Settings::selectedLanguageChanged(QString)
FUNC 40c36 4b 0 Settings::useVirtualKeyboardChanged(bool)
FUNC 40c82 4b 0 Settings::basefileLoadedChanged(bool)
FUNC 40cce 4a 0 Settings::socketIOServerChanged(QString)
FUNC 40d18 4a 0 Settings::socketIOChanged(SocketIO*)
FUNC 40d62 4b 0 Settings::appRegistredChanged(bool)
FUNC 40dae 4a 0 Settings::doUpdate(QString)
FUNC 40df8 2c 0 Settings::updateDone()
FUNC 40e24 4a 0 Settings::appIDChanged(QString)
FUNC 40e6e 4a 0 Settings::appUpdaterChanged(AppUpdater*)
FUNC 40eb8 4a 0 Settings::projectsFileChanged(QString)
FUNC 40f02 4a 0 Settings::projectsChanged(ProjectsListModel*)
FUNC 40f4c 4b 0 Settings::basefileErrorChanged(bool)
FUNC 40f98 4a 0 Settings::selectedProjectChanged(Project*)
FUNC 40fe2 4b 0 Settings::useKeyboardChanged(bool)
FUNC 4102e 4b 0 Settings::useRemoteSettingsChanged(bool)
FUNC 4107a 4a 0 Settings::remoteSettingsBaseLocationChanged(QString)
FUNC 410c4 4b 0 Settings::newFirmwareAvailableChanged(bool)
FUNC 41110 4b 0 Settings::upgradingFirmwareChanged(bool)
FUNC 4115c 4b 0 Settings::selectingProjectChanged(bool)
FUNC 411a7 49 0 __static_initialization_and_destruction_0
FUNC 411f0 15 0 _GLOBAL__sub_I_moc_settings.cpp
FUNC 41206 12 0 Settings::loaded() const
FUNC 41218 2d 0 Settings::sysInfo() const
FUNC 41246 2d 0 Settings::cpuType() const
FUNC 41274 12 0 Settings::users() const
FUNC 41286 12 0 Settings::currentUser() const
FUNC 41298 2d 0 Settings::selectedLanguage() const
FUNC 412c6 12 0 Settings::useVirtualKeyboard() const
FUNC 412d8 12 0 Settings::basefileLoaded() const
FUNC 412ea 12 0 Settings::socketIO() const
FUNC 412fc 12 0 Settings::appRegistred() const
FUNC 4130e 9d 0 Settings::setSelectedanguage(QString)
FUNC 413ac 47 0 Settings::setUseVirtualKeyboard(bool)
FUNC 413f4 46 0 Settings::setSocketIO(SocketIO*)
FUNC 4143a a6 0 Settings::setProjectsFile(QString)
FUNC 414e0 4f 0 Settings::setProjects(ProjectsListModel*)
FUNC 41530 36 0 Settings::setUsers(UsersListModel*)
FUNC 41566 4f 0 Settings::setAppUpdater(AppUpdater*)
FUNC 415b6 50 0 Settings::setUseKeyboard(bool)
FUNC 41606 50 0 Settings::setUpgradingFirmware(bool)
FUNC 41656 15 0 Settings::projects() const
FUNC 4166c 15 0 Settings::basefileError() const
FUNC 41682 15 0 Settings::selectedProject() const
FUNC 41698 15 0 Settings::useKeyboard() const
FUNC 416ae 15 0 Settings::newFirmwareAvailable() const
FUNC 416c4 15 0 Settings::upgradingFirmware() const
FUNC 416da 15 0 Settings::selectingProject() const
FUNC 416ef e 0 std::remove_reference<bool&>::type&& std::move<bool&>(bool&)
FUNC 416fd b 0 QMetaTypeId2<UsersListModel*>::qt_metatype_id()
FUNC 41708 b 0 int qMetaTypeId<UsersListModel*>()
FUNC 41713 b 0 int qRegisterMetaType<UsersListModel*>()
FUNC 4171e b 0 QMetaTypeId2<User*>::qt_metatype_id()
FUNC 41729 b 0 int qMetaTypeId<User*>()
FUNC 41734 b 0 int qRegisterMetaType<User*>()
FUNC 4173f b 0 int qMetaTypeId<SocketIO*>()
FUNC 4174a b 0 int qRegisterMetaType<SocketIO*>()
FUNC 41755 b 0 int qMetaTypeId<AppUpdater*>()
FUNC 41760 b 0 int qRegisterMetaType<AppUpdater*>()
FUNC 4176b b 0 QMetaTypeId2<ProjectsListModel*>::qt_metatype_id()
FUNC 41776 b 0 int qMetaTypeId<ProjectsListModel*>()
FUNC 41781 b 0 int qRegisterMetaType<ProjectsListModel*>()
FUNC 4178c b 0 QMetaTypeId2<Project*>::qt_metatype_id()
FUNC 41797 b 0 int qMetaTypeId<Project*>()
FUNC 417a2 b 0 int qRegisterMetaType<Project*>()
FUNC 417ad e8 0 QMetaTypeIdQObject<UsersListModel*, 8>::qt_metatype_id()
FUNC 41895 e8 0 QMetaTypeIdQObject<User*, 8>::qt_metatype_id()
FUNC 4197d e8 0 QMetaTypeIdQObject<ProjectsListModel*, 8>::qt_metatype_id()
FUNC 41a65 e8 0 QMetaTypeIdQObject<Project*, 8>::qt_metatype_id()
FUNC 41b4d b 0 QtPrivate::QMetaTypeIdHelper<UsersListModel*, true>::qt_metatype_id()
FUNC 41b58 c9 0 int qRegisterNormalizedMetaType<UsersListModel*>(QByteArray const&, UsersListModel**, QtPrivate::MetaTypeDefinedHelper<UsersListModel*, QMetaTypeId2<UsersListModel*>::Defined&&(!QMetaTypeId2<UsersListModel*>::IsBuiltIn)>::DefinedType)
FUNC 41c21 b 0 QtPrivate::QMetaTypeIdHelper<User*, true>::qt_metatype_id()
FUNC 41c2c c9 0 int qRegisterNormalizedMetaType<User*>(QByteArray const&, User**, QtPrivate::MetaTypeDefinedHelper<User*, QMetaTypeId2<User*>::Defined&&(!QMetaTypeId2<User*>::IsBuiltIn)>::DefinedType)
FUNC 41cf5 b 0 QtPrivate::QMetaTypeIdHelper<ProjectsListModel*, true>::qt_metatype_id()
FUNC 41d00 c9 0 int qRegisterNormalizedMetaType<ProjectsListModel*>(QByteArray const&, ProjectsListModel**, QtPrivate::MetaTypeDefinedHelper<ProjectsListModel*, QMetaTypeId2<ProjectsListModel*>::Defined&&(!QMetaTypeId2<ProjectsListModel*>::IsBuiltIn)>::DefinedType)
FUNC 41dc9 b 0 QtPrivate::QMetaTypeIdHelper<Project*, true>::qt_metatype_id()
FUNC 41dd4 c9 0 int qRegisterNormalizedMetaType<Project*>(QByteArray const&, Project**, QtPrivate::MetaTypeDefinedHelper<Project*, QMetaTypeId2<Project*>::Defined&&(!QMetaTypeId2<Project*>::IsBuiltIn)>::DefinedType)
FUNC 41e9d b 0 QtMetaTypePrivate::QMetaTypeFunctionHelper<UsersListModel*, true>::Destruct(void*)
FUNC 41ea8 4c 0 QtMetaTypePrivate::QMetaTypeFunctionHelper<UsersListModel*, true>::Construct(void*, void const*)
FUNC 41ef4 d 0 QtPrivate::MetaObjectForType<UsersListModel*, void>::value()
FUNC 41f01 e 0 QtPrivate::SequentialContainerConverterHelper<UsersListModel*, false>::registerConverter(int)
FUNC 41f0f e 0 QtPrivate::AssociativeContainerConverterHelper<UsersListModel*, false>::registerConverter(int)
FUNC 41f1d e 0 QtPrivate::IsPair<UsersListModel*>::registerConverter(int)
FUNC 41f2b e 0 QtPrivate::MetaTypeSmartPointerHelper<UsersListModel*, void>::registerConverter(int)
FUNC 41f39 b 0 QtMetaTypePrivate::QMetaTypeFunctionHelper<User*, true>::Destruct(void*)
FUNC 41f44 4c 0 QtMetaTypePrivate::QMetaTypeFunctionHelper<User*, true>::Construct(void*, void const*)
FUNC 41f90 d 0 QtPrivate::MetaObjectForType<User*, void>::value()
FUNC 41f9d e 0 QtPrivate::SequentialContainerConverterHelper<User*, false>::registerConverter(int)
FUNC 41fab e 0 QtPrivate::AssociativeContainerConverterHelper<User*, false>::registerConverter(int)
FUNC 41fb9 e 0 QtPrivate::IsPair<User*>::registerConverter(int)
FUNC 41fc7 e 0 QtPrivate::MetaTypeSmartPointerHelper<User*, void>::registerConverter(int)
FUNC 41fd5 b 0 QtMetaTypePrivate::QMetaTypeFunctionHelper<ProjectsListModel*, true>::Destruct(void*)
FUNC 41fe0 4c 0 QtMetaTypePrivate::QMetaTypeFunctionHelper<ProjectsListModel*, true>::Construct(void*, void const*)
FUNC 4202c d 0 QtPrivate::MetaObjectForType<ProjectsListModel*, void>::value()
FUNC 42039 e 0 QtPrivate::SequentialContainerConverterHelper<ProjectsListModel*, false>::registerConverter(int)
FUNC 42047 e 0 QtPrivate::AssociativeContainerConverterHelper<ProjectsListModel*, false>::registerConverter(int)
FUNC 42055 e 0 QtPrivate::IsPair<ProjectsListModel*>::registerConverter(int)
FUNC 42063 e 0 QtPrivate::MetaTypeSmartPointerHelper<ProjectsListModel*, void>::registerConverter(int)
FUNC 42071 b 0 QtMetaTypePrivate::QMetaTypeFunctionHelper<Project*, true>::Destruct(void*)
FUNC 4207c 4c 0 QtMetaTypePrivate::QMetaTypeFunctionHelper<Project*, true>::Construct(void*, void const*)
FUNC 420c8 d 0 QtPrivate::MetaObjectForType<Project*, void>::value()
FUNC 420d5 e 0 QtPrivate::SequentialContainerConverterHelper<Project*, false>::registerConverter(int)
FUNC 420e3 e 0 QtPrivate::AssociativeContainerConverterHelper<Project*, false>::registerConverter(int)
FUNC 420f1 e 0 QtPrivate::IsPair<Project*>::registerConverter(int)
FUNC 420ff e 0 QtPrivate::MetaTypeSmartPointerHelper<Project*, void>::registerConverter(int)
FUNC 4210e 36a 0 qcm::ContainerModel::qt_static_metacall(QObject*, QMetaObject::Call, int, void**)
FUNC 42478 48 0 qcm::ContainerModel::metaObject() const
FUNC 424c0 50 0 qcm::ContainerModel::qt_metacast(char const*)
FUNC 42510 fa 0 qcm::ContainerModel::qt_metacall(QMetaObject::Call, int, void**)
FUNC 4260a 2c 0 qcm::ContainerModel::lengthChanged()
FUNC 42636 30 0 QByteArray::QByteArray(QByteArray const&)
FUNC 42666 12 0 qHash(int, unsigned int)
FUNC 42678 1b 0 QVariant::QVariant()
FUNC 42694 42 0 QVariant::Private::Private()
FUNC 426d6 38 0 QModelIndex::QModelIndex()
FUNC 4270e 38 0 QModelIndex::isValid() const
FUNC 42746 3d 0 qcm::ContainerModel::~ContainerModel()
FUNC 42784 2b 0 qcm::ContainerModel::~ContainerModel()
FUNC 427b0 13 0 qcm::ContainerModel::rowCount(QModelIndex const&) const
FUNC 427c4 29 0 qcm::ContainerModel::data(QModelIndex const&, int) const
FUNC 427ee 96 0 qcm::ContainerModel::roleNames() const
FUNC 42884 107 0 qcm::ContainerModel::itemDisplayPropertyChanged()
FUNC 4298c 3e 0 qcm::ContainerModel::getLength() const
FUNC 429ca 13 0 qcm::ContainerModel::append(QObject*) const
FUNC 429de f 0 qcm::ContainerModel::remove(QObject*) const
FUNC 429ee 12 0 qcm::ContainerModel::at(int) const
FUNC 42a00 37 0 qcm::ContainerModel::contains(QObject*) const
FUNC 42a38 13 0 qcm::ContainerModel::indexOf(QObject*) const
FUNC 42a4c f 0 qcm::ContainerModel::clear() const
FUNC 42a5b e 0 std::remove_reference<int&>::type&& std::move<int&>(int&)
FUNC 42a69 e 0 std::remove_reference<QObject*&>::type&& std::move<QObject*&>(QObject*&)
FUNC 42a78 1e 0 QVector<int>::QVector()
FUNC 42a96 3b 0 QVector<int>::~QVector()
FUNC 42ad2 19 0 QHash<int, QByteArray>::QHash()
FUNC 42aec 3f 0 QHash<int, QByteArray>::~QHash()
FUNC 42b2c e5 0 QHash<int, QByteArray>::operator[](int const&)
FUNC 42c11 b 0 QTypedArrayData<int>::sharedNull()
FUNC 42c1c 5f 0 QVector<int>::freeData(QTypedArrayData<int>*)
FUNC 42c7c 29 0 QHash<int, QByteArray>::freeData(QHashData*)
FUNC 42ca6 32 0 QHash<int, QByteArray>::detach()
FUNC 42cd8 74 0 QHash<int, QByteArray>::findNode(int const&, unsigned int*) const
FUNC 42d4c ae 0 QHash<int, QByteArray>::findNode(int const&, unsigned int) const
FUNC 42dfa 9b 0 QHash<int, QByteArray>::createNode(unsigned int, int const&, QByteArray const&, QHashNode<int, QByteArray>**)
FUNC 42e96 13 0 QVector<int>::destruct(int*, int*)
FUNC 42eaa 1e 0 QTypedArrayData<int>::begin(int*)
FUNC 42ec8 31 0 QTypedArrayData<int>::end(int*)
FUNC 42ef9 25 0 QTypedArrayData<int>::deallocate(QArrayData*)
FUNC 42f1e 1f 0 QHashNode<int, QByteArray>::~QHashNode()
FUNC 42f3e 23 0 QHash<int, QByteArray>::deleteNode2(QHashData::Node*)
FUNC 42f62 7a 0 QHash<int, QByteArray>::detach_helper()
FUNC 42fdc 3a 0 QHashNode<int, QByteArray>::same_key(unsigned int, int const&) const
FUNC 43016 2d 0 QHash<int, QByteArray>::alignOfNode()
FUNC 43044 57 0 QHashNode<int, QByteArray>::QHashNode(int const&, QByteArray const&, unsigned int, QHashNode<int, QByteArray>*)
FUNC 4309c 1a 0 QTypedArrayData<int>::data()
FUNC 430b6 e 0 QHash<int, QByteArray>::concrete(QHashData::Node*)
FUNC 430c4 63 0 QHash<int, QByteArray>::duplicateNode(QHashData::Node*, void*)
FUNC 43128 85 0 qcm::AbstractContainer::qt_static_metacall(QObject*, QMetaObject::Call, int, void**)
FUNC 431ae 48 0 qcm::AbstractContainer::metaObject() const
FUNC 431f6 50 0 qcm::AbstractContainer::qt_metacast(char const*)
FUNC 43246 ad 0 qcm::AbstractContainer::qt_metacall(QMetaObject::Call, int, void**)
FUNC 432f3 59 0 QMetaTypeId<qcm::ContainerModel*>::qt_metatype_id()
FUNC 4334c 1b 0 QPointer<qcm::ContainerModel>::~QPointer()
FUNC 43368 3d 0 qcm::AbstractContainer::~AbstractContainer()
FUNC 433a6 2b 0 qcm::AbstractContainer::~AbstractContainer()
FUNC 433d2 4f 0 qcm::AbstractContainer::getModel()
FUNC 43422 b 0 qcm::AbstractContainer::createModel()
FUNC 4342d b 0 QMetaTypeId2<qcm::ContainerModel*>::qt_metatype_id()
FUNC 43438 b 0 int qMetaTypeId<qcm::ContainerModel*>()
FUNC 43443 b 0 int qRegisterMetaType<qcm::ContainerModel*>()
FUNC 4344e 70 0 int qRegisterMetaType<qcm::ContainerModel*>(char const*, qcm::ContainerModel**, QtPrivate::MetaTypeDefinedHelper<qcm::ContainerModel*, QMetaTypeId2<qcm::ContainerModel*>::Defined&&(!QMetaTypeId2<qcm::ContainerModel*>::IsBuiltIn)>::DefinedType)
FUNC 434be 63 0 QWeakPointer<QObject>::~QWeakPointer()
FUNC 43522 1a 0 QPointer<qcm::ContainerModel>::operator qcm::ContainerModel*() const
FUNC 4353c 1a 0 QPointer<qcm::ContainerModel>::data() const
FUNC 43556 b 0 QtPrivate::QMetaTypeIdHelper<qcm::ContainerModel*, true>::qt_metatype_id()
FUNC 43561 c9 0 int qRegisterNormalizedMetaType<qcm::ContainerModel*>(QByteArray const&, qcm::ContainerModel**, QtPrivate::MetaTypeDefinedHelper<qcm::ContainerModel*, QMetaTypeId2<qcm::ContainerModel*>::Defined&&(!QMetaTypeId2<qcm::ContainerModel*>::IsBuiltIn)>::DefinedType)
FUNC 4362a 40 0 QWeakPointer<QObject>::data() const
FUNC 4366a b 0 QtMetaTypePrivate::QMetaTypeFunctionHelper<qcm::ContainerModel*, true>::Destruct(void*)
FUNC 43675 4c 0 QtMetaTypePrivate::QMetaTypeFunctionHelper<qcm::ContainerModel*, true>::Construct(void*, void const*)
FUNC 436c1 d 0 QtPrivate::MetaObjectForType<qcm::ContainerModel*, void>::value()
FUNC 436ce e 0 QtPrivate::SequentialContainerConverterHelper<qcm::ContainerModel*, false>::registerConverter(int)
FUNC 436dc e 0 QtPrivate::AssociativeContainerConverterHelper<qcm::ContainerModel*, false>::registerConverter(int)
FUNC 436ea e 0 QtPrivate::IsPair<qcm::ContainerModel*>::registerConverter(int)
FUNC 436f8 e 0 QtPrivate::MetaTypeSmartPointerHelper<qcm::ContainerModel*, void>::registerConverter(int)
PUBLIC 11338 0 _init
PUBLIC 12480 0 _start
PUBLIC 124b0 0 deregister_tm_clones
PUBLIC 124f0 0 register_tm_clones
PUBLIC 12540 0 __do_global_dtors_aux
PUBLIC 12580 0 frame_dummy
PUBLIC 125b0 0 Breakpad::DumpCallback(google_breakpad::MinidumpDescriptor const&, void*, bool)
PUBLIC 125dc 0 Breakpad::CrashHandlerPrivate::InitCrashHandler(QString const&)
PUBLIC 126f0 0 Breakpad::CrashHandler::instance()
PUBLIC 12784 0 Breakpad::CrashHandler::CrashHandler()
PUBLIC 127b6 0 Breakpad::CrashHandler::~CrashHandler()
PUBLIC 127ec 0 Breakpad::CrashHandler::setReportCrashesToSystem(bool)
PUBLIC 1280a 0 Breakpad::CrashHandler::writeMinidump()
PUBLIC 128a0 0 Breakpad::CrashHandler::Init(QString const&)
PUBLIC 128ca 0 QMessageLogContext::QMessageLogContext(char const*, int, char const*, char const*)
PUBLIC 1291c 0 QMessageLogger::QMessageLogger(char const*, int, char const*)
PUBLIC 12954 0 std::operator&(std::memory_order, std::__memory_order_modifier)
PUBLIC 12968 0 QtPrivate::RefCount::deref()
PUBLIC 129ac 0 QArrayData::data()
PUBLIC 129c8 0 QByteArray::length() const
PUBLIC 129dc 0 QByteArray::~QByteArray()
PUBLIC 12a10 0 QByteArray::constData() const
PUBLIC 12a2e 0 QByteArray::toStdString[abi:cxx11]() const
PUBLIC 12ab2 0 QString::toUtf8() const &
PUBLIC 12adc 0 QString::toStdString[abi:cxx11]() const
PUBLIC 12b48 0 google_breakpad::MicrodumpExtraInfo::MicrodumpExtraInfo()
PUBLIC 12b82 0 google_breakpad::MinidumpDescriptor::MinidumpDescriptor(std::__cxx11::basic_string<char, std::char_traits<char>, std::allocator<char> > const&)
PUBLIC 12c48 0 Breakpad::CrashHandlerPrivate::CrashHandlerPrivate()
PUBLIC 12c62 0 Breakpad::CrashHandlerPrivate::~CrashHandlerPrivate()
PUBLIC 12c9c 0 google_breakpad::MinidumpDescriptor::~MinidumpDescriptor()
PUBLIC 12ccc 0 QBasicAtomicInteger<int>::load() const
PUBLIC 12ce6 0 QBasicAtomicInteger<int>::deref()
PUBLIC 12d00 0 QTypedArrayData<char>::deallocate(QArrayData*)
PUBLIC 12d26 0 QTypedArrayData<char>::data()
PUBLIC 12d40 0 int QAtomicOps<int>::load<int>(std::atomic<int> const&)
PUBLIC 12d76 0 bool QAtomicOps<int>::deref<int>(std::atomic<int>&)
PUBLIC 12d96 0 std::__atomic_base<int>::operator--()
PUBLIC 12db6 0 sys_close
PUBLIC 12dff 0 sys_read
PUBLIC 12e58 0 sys_sendmsg
PUBLIC 12eb2 0 sys_pipe
PUBLIC 12efe 0 google_breakpad::(anonymous namespace)::CrashGenerationClientImpl::CrashGenerationClientImpl(int)
PUBLIC 12f34 0 google_breakpad::(anonymous namespace)::CrashGenerationClientImpl::~CrashGenerationClientImpl()
PUBLIC 12f5e 0 google_breakpad::(anonymous namespace)::CrashGenerationClientImpl::~CrashGenerationClientImpl()
PUBLIC 12f8a 0 google_breakpad::(anonymous namespace)::CrashGenerationClientImpl::RequestDump(void const*, unsigned long)
PUBLIC 1313c 0 google_breakpad::CrashGenerationClient::TryCreate(int)
PUBLIC 1317a 0 google_breakpad::CrashGenerationClient::CrashGenerationClient()
PUBLIC 13198 0 google_breakpad::CrashGenerationClient::~CrashGenerationClient()
PUBLIC 131b6 0 google_breakpad::CrashGenerationClient::~CrashGenerationClient()
PUBLIC 131e2 0 sys_clone
PUBLIC 132ae 0 sys_close
PUBLIC 132f7 0 sys_getpid
PUBLIC 13334 0 sys__gettid
PUBLIC 13371 0 sys_munmap
PUBLIC 133c4 0 sys_prctl
PUBLIC 13436 0 sys_read
PUBLIC 1348f 0 sys_sigaltstack
PUBLIC 134e5 0 sys_tgkill
PUBLIC 1353d 0 sys_write
PUBLIC 13596 0 sys_wait4
PUBLIC 135fe 0 sys_mmap
PUBLIC 1368c 0 sys_pipe
PUBLIC 136d7 0 sys_gettid
PUBLIC 136f9 0 sys_waitpid
PUBLIC 13723 0 google_breakpad::(anonymous namespace)::InstallAlternateStackLocked()
PUBLIC 137fc 0 google_breakpad::(anonymous namespace)::RestoreAlternateStackLocked()
PUBLIC 138ad 0 google_breakpad::(anonymous namespace)::InstallDefaultHandler(int)
PUBLIC 138ca 0 google_breakpad::ExceptionHandler::ExceptionHandler(google_breakpad::MinidumpDescriptor const&, bool (*)(void*), bool (*)(google_breakpad::MinidumpDescriptor const&, void*, bool), void*, bool, int)
PUBLIC 13af4 0 google_breakpad::ExceptionHandler::~ExceptionHandler()
PUBLIC 13c1a 0 google_breakpad::ExceptionHandler::InstallHandlersLocked()
PUBLIC 13d7a 0 google_breakpad::ExceptionHandler::RestoreHandlersLocked()
PUBLIC 13e26 0 google_breakpad::ExceptionHandler::SignalHandler(int, siginfo_t*, void*)
PUBLIC 14052 0 google_breakpad::ExceptionHandler::ThreadEntry(void*)
PUBLIC 140ce 0 google_breakpad::ExceptionHandler::HandleSignal(int, siginfo_t*, void*)
PUBLIC 14298 0 google_breakpad::ExceptionHandler::SimulateSignalDelivery(int)
PUBLIC 14304 0 google_breakpad::ExceptionHandler::GenerateDump(google_breakpad::ExceptionHandler::CrashContext*)
PUBLIC 146a0 0 google_breakpad::ExceptionHandler::SendContinueSignalToChild()
PUBLIC 1474c 0 google_breakpad::ExceptionHandler::WaitForContinueSignal()
PUBLIC 147f8 0 google_breakpad::ExceptionHandler::DoDump(int, void const*, unsigned long)
PUBLIC 149b4 0 google_breakpad::ExceptionHandler::WriteMinidump(std::__cxx11::basic_string<char, std::char_traits<char>, std::allocator<char> > const&, bool (*)(google_breakpad::MinidumpDescriptor const&, void*, bool), void*)
PUBLIC 14a98 0 google_breakpad::ExceptionHandler::WriteMinidump()
PUBLIC 14c42 0 google_breakpad::ExceptionHandler::AddMappingInfo(std::__cxx11::basic_string<char, std::char_traits<char>, std::allocator<char> > const&, unsigned char const*, unsigned long, unsigned long, unsigned long)
PUBLIC 14d2e 0 google_breakpad::ExceptionHandler::RegisterAppMemory(void*, unsigned long)
PUBLIC 14de4 0 google_breakpad::ExceptionHandler::UnregisterAppMemory(void*)
PUBLIC 14e98 0 google_breakpad::ExceptionHandler::WriteMinidumpForChild(int, int, std::__cxx11::basic_string<char, std::char_traits<char>, std::allocator<char> > const&, bool (*)(google_breakpad::MinidumpDescriptor const&, void*, bool), void*)
PUBLIC 14f90 0 google_breakpad::SetFirstChanceExceptionHandler(bool (*)(int, void*, void*))
PUBLIC 14fa6 0 operator new(unsigned long, void*)
PUBLIC 14fb8 0 google_breakpad::MinidumpDescriptor::IsFD() const
PUBLIC 14fce 0 google_breakpad::MinidumpDescriptor::fd() const
PUBLIC 14fe0 0 google_breakpad::MinidumpDescriptor::path() const
PUBLIC 14ff2 0 google_breakpad::MinidumpDescriptor::IsMicrodumpOnConsole() const
PUBLIC 15008 0 google_breakpad::MinidumpDescriptor::size_limit() const
PUBLIC 1501a 0 google_breakpad::MinidumpDescriptor::address_within_principal_mapping() const
PUBLIC 1502c 0 google_breakpad::MinidumpDescriptor::skip_dump_if_principal_mapping_not_referenced()
PUBLIC 1503e 0 google_breakpad::MinidumpDescriptor::sanitize_stacks() const
PUBLIC 15050 0 google_breakpad::MinidumpDescriptor::microdump_extra_info()
PUBLIC 15096 0 google_breakpad::PageAllocator::PageAllocator()
PUBLIC 150e4 0 google_breakpad::PageAllocator::~PageAllocator()
PUBLIC 15100 0 google_breakpad::PageAllocator::Alloc(unsigned long)
PUBLIC 15278 0 google_breakpad::PageAllocator::GetNPages(unsigned long)
PUBLIC 15316 0 google_breakpad::PageAllocator::FreeAll()
PUBLIC 15370 0 google_breakpad::AppMemory::operator==(void const*) const
PUBLIC 1538c 0 google_breakpad::ExceptionHandler::IsOutOfProcess() const
PUBLIC 153b0 0 std::__cxx11::list<google_breakpad::MappingEntry, std::allocator<google_breakpad::MappingEntry> >::~list()
PUBLIC 153cc 0 std::__cxx11::list<google_breakpad::AppMemory, std::allocator<google_breakpad::AppMemory> >::~list()
PUBLIC 153e8 0 google_breakpad::scoped_ptr<google_breakpad::CrashGenerationClient>::reset(google_breakpad::CrashGenerationClient*)
PUBLIC 1543c 0 google_breakpad::scoped_ptr<google_breakpad::CrashGenerationClient>::get() const
PUBLIC 1544e 0 google_breakpad::scoped_ptr<google_breakpad::CrashGenerationClient>::scoped_ptr(google_breakpad::CrashGenerationClient*)
PUBLIC 15468 0 google_breakpad::scoped_ptr<google_breakpad::CrashGenerationClient>::~scoped_ptr()
PUBLIC 154a0 0 std::__cxx11::list<google_breakpad::MappingEntry, std::allocator<google_breakpad::MappingEntry> >::list()
PUBLIC 154bc 0 std::__cxx11::_List_base<google_breakpad::MappingEntry, std::allocator<google_breakpad::MappingEntry> >::_List_impl::~_List_impl()
PUBLIC 154d8 0 std::__cxx11::_List_base<google_breakpad::MappingEntry, std::allocator<google_breakpad::MappingEntry> >::~_List_base()
PUBLIC 15500 0 std::__cxx11::list<google_breakpad::AppMemory, std::allocator<google_breakpad::AppMemory> >::list()
PUBLIC 1551c 0 std::__cxx11::_List_base<google_breakpad::AppMemory, std::allocator<google_breakpad::AppMemory> >::_List_impl::~_List_impl()
PUBLIC 15538 0 std::__cxx11::_List_base<google_breakpad::AppMemory, std::allocator<google_breakpad::AppMemory> >::~_List_base()
PUBLIC 15560 0 std::vector<google_breakpad::ExceptionHandler*, std::allocator<google_breakpad::ExceptionHandler*> >::vector()
PUBLIC 1557b 0 std::remove_reference<google_breakpad::ExceptionHandler*&>::type&& std::move<google_breakpad::ExceptionHandler*&>(google_breakpad::ExceptionHandler*&)
PUBLIC 1558a 0 std::vector<google_breakpad::ExceptionHandler*, std::allocator<google_breakpad::ExceptionHandler*> >::push_back(google_breakpad::ExceptionHandler*&&)
PUBLIC 155bc 0 std::vector<google_breakpad::ExceptionHandler*, std::allocator<google_breakpad::ExceptionHandler*> >::begin()
PUBLIC 155e2 0 std::vector<google_breakpad::ExceptionHandler*, std::allocator<google_breakpad::ExceptionHandler*> >::end()
PUBLIC 1560b 0 __gnu_cxx::__normal_iterator<google_breakpad::ExceptionHandler**, std::vector<google_breakpad::ExceptionHandler*, std::allocator<google_breakpad::ExceptionHandler*> > > std::find<__gnu_cxx::__normal_iterator<google_breakpad::ExceptionHandler**, std::vector<google_breakpad::ExceptionHandler*, std::allocator<google_breakpad::ExceptionHandler*> > >, google_breakpad::ExceptionHandler*>(__gnu_cxx::__normal_iterator<google_breakpad::ExceptionHandler**, std::vector<google_breakpad::ExceptionHandler*, std::allocator<google_breakpad::ExceptionHandler*> > >, __gnu_cxx::__normal_iterator<google_breakpad::ExceptionHandler**, std::vector<google_breakpad::ExceptionHandler*, std::allocator<google_breakpad::ExceptionHandler*> > >, google_breakpad::ExceptionHandler* const&)
PUBLIC 15644 0 __gnu_cxx::__normal_iterator<google_breakpad::ExceptionHandler* const*, std::vector<google_breakpad::ExceptionHandler*, std::allocator<google_breakpad::ExceptionHandler*> > >::__normal_iterator<google_breakpad::ExceptionHandler**>(__gnu_cxx::__normal_iterator<google_breakpad::ExceptionHandler**, __gnu_cxx::__enable_if<std::__are_same<google_breakpad::ExceptionHandler**, google_breakpad::ExceptionHandler**>::__value, std::vector<google_breakpad::ExceptionHandler*, std::allocator<google_breakpad::ExceptionHandler*> > >::__type> const&)
PUBLIC 1566e 0 std::vector<google_breakpad::ExceptionHandler*, std::allocator<google_breakpad::ExceptionHandler*> >::erase(__gnu_cxx::__normal_iterator<google_breakpad::ExceptionHandler* const*, std::vector<google_breakpad::ExceptionHandler*, std::allocator<google_breakpad::ExceptionHandler*> > >)
PUBLIC 156de 0 std::vector<google_breakpad::ExceptionHandler*, std::allocator<google_breakpad::ExceptionHandler*> >::empty() const
PUBLIC 15720 0 std::vector<google_breakpad::ExceptionHandler*, std::allocator<google_breakpad::ExceptionHandler*> >::~vector()
PUBLIC 15764 0 std::vector<google_breakpad::ExceptionHandler*, std::allocator<google_breakpad::ExceptionHandler*> >::size() const
PUBLIC 1578a 0 std::vector<google_breakpad::ExceptionHandler*, std::allocator<google_breakpad::ExceptionHandler*> >::operator[](unsigned long)
PUBLIC 157aa 0 google_breakpad::scoped_ptr<google_breakpad::CrashGenerationClient>::operator->() const
PUBLIC 157ea 0 void google_breakpad::ignore_result<int>(int const&)
PUBLIC 157f6 0 std::__cxx11::list<google_breakpad::MappingEntry, std::allocator<google_breakpad::MappingEntry> >::push_back(google_breakpad::MappingEntry const&)
PUBLIC 1582c 0 std::__cxx11::list<google_breakpad::AppMemory, std::allocator<google_breakpad::AppMemory> >::begin()
PUBLIC 15854 0 std::__cxx11::list<google_breakpad::AppMemory, std::allocator<google_breakpad::AppMemory> >::end()
PUBLIC 15879 0 std::_List_iterator<google_breakpad::AppMemory> std::find<std::_List_iterator<google_breakpad::AppMemory>, void*>(std::_List_iterator<google_breakpad::AppMemory>, std::_List_iterator<google_breakpad::AppMemory>, void* const&)
PUBLIC 158b2 0 std::_List_iterator<google_breakpad::AppMemory>::operator!=(std::_List_iterator<google_breakpad::AppMemory> const&) const
PUBLIC 158d4 0 std::__cxx11::list<google_breakpad::AppMemory, std::allocator<google_breakpad::AppMemory> >::push_back(google_breakpad::AppMemory const&)
PUBLIC 1590a 0 std::_List_const_iterator<google_breakpad::AppMemory>::_List_const_iterator(std::_List_iterator<google_breakpad::AppMemory> const&)
PUBLIC 15928 0 std::__cxx11::list<google_breakpad::AppMemory, std::allocator<google_breakpad::AppMemory> >::erase(std::_List_const_iterator<google_breakpad::AppMemory>)
PUBLIC 15972 0 std::__cxx11::_List_base<google_breakpad::MappingEntry, std::allocator<google_breakpad::MappingEntry> >::_List_base()
PUBLIC 1599a 0 std::allocator<std::_List_node<google_breakpad::MappingEntry> >::~allocator()
PUBLIC 159b6 0 std::__cxx11::_List_base<google_breakpad::MappingEntry, std::allocator<google_breakpad::MappingEntry> >::_M_clear()
PUBLIC 15a30 0 std::__cxx11::_List_base<google_breakpad::AppMemory, std::allocator<google_breakpad::AppMemory> >::_List_base()
PUBLIC 15a58 0 std::allocator<std::_List_node<google_breakpad::AppMemory> >::~allocator()
PUBLIC 15a74 0 std::__cxx11::_List_base<google_breakpad::AppMemory, std::allocator<google_breakpad::AppMemory> >::_M_clear()
PUBLIC 15aee 0 std::_Vector_base<google_breakpad::ExceptionHandler*, std::allocator<google_breakpad::ExceptionHandler*> >::_Vector_impl::~_Vector_impl()
PUBLIC 15b0a 0 std::_Vector_base<google_breakpad::ExceptionHandler*, std::allocator<google_breakpad::ExceptionHandler*> >::_Vector_base()
PUBLIC 15b26 0 std::_Vector_base<google_breakpad::ExceptionHandler*, std::allocator<google_breakpad::ExceptionHandler*> >::~_Vector_base()
PUBLIC 15b76 0 google_breakpad::ExceptionHandler*&& std::forward<google_breakpad::ExceptionHandler*>(std::remove_reference<google_breakpad::ExceptionHandler*>::type&)
PUBLIC 15b84 0 void std::vector<google_breakpad::ExceptionHandler*, std::allocator<google_breakpad::ExceptionHandler*> >::emplace_back<google_breakpad::ExceptionHandler*>(google_breakpad::ExceptionHandler*&&)
PUBLIC 15c06 0 __gnu_cxx::__normal_iterator<google_breakpad::ExceptionHandler**, std::vector<google_breakpad::ExceptionHandler*, std::allocator<google_breakpad::ExceptionHandler*> > >::__normal_iterator(google_breakpad::ExceptionHandler** const&)
PUBLIC 15c23 0 __gnu_cxx::__ops::_Iter_equals_val<google_breakpad::ExceptionHandler* const> __gnu_cxx::__ops::__iter_equals_val<google_breakpad::ExceptionHandler* const>(google_breakpad::ExceptionHandler* const&)
PUBLIC 15c48 0 __gnu_cxx::__normal_iterator<google_breakpad::ExceptionHandler**, std::vector<google_breakpad::ExceptionHandler*, std::allocator<google_breakpad::ExceptionHandler*> > > std::__find_if<__gnu_cxx::__normal_iterator<google_breakpad::ExceptionHandler**, std::vector<google_breakpad::ExceptionHandler*, std::allocator<google_breakpad::ExceptionHandler*> > >, __gnu_cxx::__ops::_Iter_equals_val<google_breakpad::ExceptionHandler* const> >(__gnu_cxx::__normal_iterator<google_breakpad::ExceptionHandler**, std::vector<google_breakpad::ExceptionHandler*, std::allocator<google_breakpad::ExceptionHandler*> > >, __gnu_cxx::__normal_iterator<google_breakpad::ExceptionHandler**, std::vector<google_breakpad::ExceptionHandler*, std::allocator<google_breakpad::ExceptionHandler*> > >, __gnu_cxx::__ops::_Iter_equals_val<google_breakpad::ExceptionHandler* const>)
PUBLIC 15c90 0 __gnu_cxx::__normal_iterator<google_breakpad::ExceptionHandler**, std::vector<google_breakpad::ExceptionHandler*, std::allocator<google_breakpad::ExceptionHandler*> > >::base() const
PUBLIC 15c9e 0 std::vector<google_breakpad::ExceptionHandler*, std::allocator<google_breakpad::ExceptionHandler*> >::cbegin() const
PUBLIC 15cce 0 __gnu_cxx::__normal_iterator<google_breakpad::ExceptionHandler* const*, std::vector<google_breakpad::ExceptionHandler*, std::allocator<google_breakpad::ExceptionHandler*> > >::difference_type __gnu_cxx::operator-<google_breakpad::ExceptionHandler* const*, std::vector<google_breakpad::ExceptionHandler*, std::allocator<google_breakpad::ExceptionHandler*> > >(__gnu_cxx::__normal_iterator<google_breakpad::ExceptionHandler* const*, std::vector<google_breakpad::ExceptionHandler*, std::allocator<google_breakpad::ExceptionHandler*> > > const&, __gnu_cxx::__normal_iterator<google_breakpad::ExceptionHandler* const*, std::vector<google_breakpad::ExceptionHandler*, std::allocator<google_breakpad::ExceptionHandler*> > > const&)
PUBLIC 15d12 0 __gnu_cxx::__normal_iterator<google_breakpad::ExceptionHandler**, std::vector<google_breakpad::ExceptionHandler*, std::allocator<google_breakpad::ExceptionHandler*> > >::operator+(long) const
PUBLIC 15d52 0 std::vector<google_breakpad::ExceptionHandler*, std::allocator<google_breakpad::ExceptionHandler*> >::_M_erase(__gnu_cxx::__normal_iterator<google_breakpad::ExceptionHandler**, std::vector<google_breakpad::ExceptionHandler*, std::allocator<google_breakpad::ExceptionHandler*> > >)
PUBLIC 15e0a 0 std::vector<google_breakpad::ExceptionHandler*, std::allocator<google_breakpad::ExceptionHandler*> >::begin() const
PUBLIC 15e3a 0 std::vector<google_breakpad::ExceptionHandler*, std::allocator<google_breakpad::ExceptionHandler*> >::end() const
PUBLIC 15e6b 0 bool __gnu_cxx::operator==<google_breakpad::ExceptionHandler* const*, std::vector<google_breakpad::ExceptionHandler*, std::allocator<google_breakpad::ExceptionHandler*> > >(__gnu_cxx::__normal_iterator<google_breakpad::ExceptionHandler* const*, std::vector<google_breakpad::ExceptionHandler*, std::allocator<google_breakpad::ExceptionHandler*> > > const&, __gnu_cxx::__normal_iterator<google_breakpad::ExceptionHandler* const*, std::vector<google_breakpad::ExceptionHandler*, std::allocator<google_breakpad::ExceptionHandler*> > > const&)
PUBLIC 15ea8 0 std::_Vector_base<google_breakpad::ExceptionHandler*, std::allocator<google_breakpad::ExceptionHandler*> >::_M_get_Tp_allocator()
PUBLIC 15eb6 0 void std::_Destroy<google_breakpad::ExceptionHandler**, google_breakpad::ExceptionHandler*>(google_breakpad::ExceptionHandler**, google_breakpad::ExceptionHandler**, std::allocator<google_breakpad::ExceptionHandler*>&)
PUBLIC 15ee0 0 std::__cxx11::list<google_breakpad::MappingEntry, std::allocator<google_breakpad::MappingEntry> >::end()
PUBLIC 15f05 0 google_breakpad::MappingEntry const& std::forward<google_breakpad::MappingEntry const&>(std::remove_reference<google_breakpad::MappingEntry const&>::type&)
PUBLIC 15f14 0 void std::__cxx11::list<google_breakpad::MappingEntry, std::allocator<google_breakpad::MappingEntry> >::_M_insert<google_breakpad::MappingEntry const&>(std::_List_iterator<google_breakpad::MappingEntry>, google_breakpad::MappingEntry const&)
PUBLIC 15f72 0 std::_List_iterator<google_breakpad::AppMemory>::_List_iterator(std::__detail::_List_node_base*)
PUBLIC 15f8c 0 __gnu_cxx::__ops::_Iter_equals_val<void* const> __gnu_cxx::__ops::__iter_equals_val<void* const>(void* const&)
PUBLIC 15fb1 0 std::_List_iterator<google_breakpad::AppMemory> std::__find_if<std::_List_iterator<google_breakpad::AppMemory>, __gnu_cxx::__ops::_Iter_equals_val<void* const> >(std::_List_iterator<google_breakpad::AppMemory>, std::_List_iterator<google_breakpad::AppMemory>, __gnu_cxx::__ops::_Iter_equals_val<void* const>)
PUBLIC 15ff8 0 google_breakpad::AppMemory const& std::forward<google_breakpad::AppMemory const&>(std::remove_reference<google_breakpad::AppMemory const&>::type&)
PUBLIC 16006 0 void std::__cxx11::list<google_breakpad::AppMemory, std::allocator<google_breakpad::AppMemory> >::_M_insert<google_breakpad::AppMemory const&>(std::_List_iterator<google_breakpad::AppMemory>, google_breakpad::AppMemory const&)
PUBLIC 16064 0 std::__cxx11::list<google_breakpad::AppMemory, std::allocator<google_breakpad::AppMemory> >::_M_erase(std::_List_iterator<google_breakpad::AppMemory>)
PUBLIC 160dc 0 std::_List_const_iterator<google_breakpad::AppMemory>::_M_const_cast() const
PUBLIC 16104 0 std::__cxx11::_List_base<google_breakpad::MappingEntry, std::allocator<google_breakpad::MappingEntry> >::_List_impl::_List_impl()
PUBLIC 1613a 0 std::__cxx11::_List_base<google_breakpad::MappingEntry, std::allocator<google_breakpad::MappingEntry> >::_M_init()
PUBLIC 16172 0 __gnu_cxx::new_allocator<std::_List_node<google_breakpad::MappingEntry> >::~new_allocator()
PUBLIC 1617e 0 std::_List_node<google_breakpad::MappingEntry>::_M_valptr()
PUBLIC 1619c 0 std::__cxx11::_List_base<google_breakpad::MappingEntry, std::allocator<google_breakpad::MappingEntry> >::_M_get_Node_allocator()
PUBLIC 161aa 0 void std::allocator_traits<std::allocator<std::_List_node<google_breakpad::MappingEntry> > >::destroy<google_breakpad::MappingEntry>(std::allocator<std::_List_node<google_breakpad::MappingEntry> >&, google_breakpad::MappingEntry*)
PUBLIC 161d0 0 std::__cxx11::_List_base<google_breakpad::MappingEntry, std::allocator<google_breakpad::MappingEntry> >::_M_put_node(std::_List_node<google_breakpad::MappingEntry>*)
PUBLIC 161fc 0 std::__cxx11::_List_base<google_breakpad::AppMemory, std::allocator<google_breakpad::AppMemory> >::_List_impl::_List_impl()
PUBLIC 16232 0 std::__cxx11::_List_base<google_breakpad::AppMemory, std::allocator<google_breakpad::AppMemory> >::_M_init()
PUBLIC 1626a 0 __gnu_cxx::new_allocator<std::_List_node<google_breakpad::AppMemory> >::~new_allocator()
PUBLIC 16276 0 std::_List_node<google_breakpad::AppMemory>::_M_valptr()
PUBLIC 16294 0 std::__cxx11::_List_base<google_breakpad::AppMemory, std::allocator<google_breakpad::AppMemory> >::_M_get_Node_allocator()
PUBLIC 162a2 0 void std::allocator_traits<std::allocator<std::_List_node<google_breakpad::AppMemory> > >::destroy<google_breakpad::AppMemory>(std::allocator<std::_List_node<google_breakpad::AppMemory> >&, google_breakpad::AppMemory*)
PUBLIC 162c8 0 std::__cxx11::_List_base<google_breakpad::AppMemory, std::allocator<google_breakpad::AppMemory> >::_M_put_node(std::_List_node<google_breakpad::AppMemory>*)
PUBLIC 162f4 0 std::_Vector_base<google_breakpad::ExceptionHandler*, std::allocator<google_breakpad::ExceptionHandler*> >::_Vector_impl::_Vector_impl()
PUBLIC 16332 0 std::allocator<google_breakpad::ExceptionHandler*>::~allocator()
PUBLIC 1634e 0 std::_Vector_base<google_breakpad::ExceptionHandler*, std::allocator<google_breakpad::ExceptionHandler*> >::_M_deallocate(google_breakpad::ExceptionHandler**, unsigned long)
PUBLIC 16383 0 void std::allocator_traits<std::allocator<google_breakpad::ExceptionHandler*> >::construct<google_breakpad::ExceptionHandler*, google_breakpad::ExceptionHandler*>(std::allocator<google_breakpad::ExceptionHandler*>&, google_breakpad::ExceptionHandler**, google_breakpad::ExceptionHandler*&&)
PUBLIC 163bc 0 void std::vector<google_breakpad::ExceptionHandler*, std::allocator<google_breakpad::ExceptionHandler*> >::_M_emplace_back_aux<google_breakpad::ExceptionHandler*>(google_breakpad::ExceptionHandler*&&)
PUBLIC 165a8 0 __gnu_cxx::__ops::_Iter_equals_val<google_breakpad::ExceptionHandler* const>::_Iter_equals_val(google_breakpad::ExceptionHandler* const&)
PUBLIC 165c2 0 std::iterator_traits<__gnu_cxx::__normal_iterator<google_breakpad::ExceptionHandler**, std::vector<google_breakpad::ExceptionHandler*, std::allocator<google_breakpad::ExceptionHandler*> > > >::iterator_category std::__iterator_category<__gnu_cxx::__normal_iterator<google_breakpad::ExceptionHandler**, std::vector<google_breakpad::ExceptionHandler*, std::allocator<google_breakpad::ExceptionHandler*> > > >(__gnu_cxx::__normal_iterator<google_breakpad::ExceptionHandler**, std::vector<google_breakpad::ExceptionHandler*, std::allocator<google_breakpad::ExceptionHandler*> > > const&)
PUBLIC 165cc 0 __gnu_cxx::__normal_iterator<google_breakpad::ExceptionHandler**, std::vector<google_breakpad::ExceptionHandler*, std::allocator<google_breakpad::ExceptionHandler*> > > std::__find_if<__gnu_cxx::__normal_iterator<google_breakpad::ExceptionHandler**, std::vector<google_breakpad::ExceptionHandler*, std::allocator<google_breakpad::ExceptionHandler*> > >, __gnu_cxx::__ops::_Iter_equals_val<google_breakpad::ExceptionHandler* const> >(__gnu_cxx::__normal_iterator<google_breakpad::ExceptionHandler**, std::vector<google_breakpad::ExceptionHandler*, std::allocator<google_breakpad::ExceptionHandler*> > >, __gnu_cxx::__normal_iterator<google_breakpad::ExceptionHandler**, std::vector<google_breakpad::ExceptionHandler*, std::allocator<google_breakpad::ExceptionHandler*> > >, __gnu_cxx::__ops::_Iter_equals_val<google_breakpad::ExceptionHandler* const>, std::random_access_iterator_tag)
PUBLIC 16768 0 __gnu_cxx::__normal_iterator<google_breakpad::ExceptionHandler* const*, std::vector<google_breakpad::ExceptionHandler*, std::allocator<google_breakpad::ExceptionHandler*> > >::__normal_iterator(google_breakpad::ExceptionHandler* const* const&)
PUBLIC 16786 0 __gnu_cxx::__normal_iterator<google_breakpad::ExceptionHandler* const*, std::vector<google_breakpad::ExceptionHandler*, std::allocator<google_breakpad::ExceptionHandler*> > >::base() const
PUBLIC 16794 0 bool __gnu_cxx::operator!=<google_breakpad::ExceptionHandler**, std::vector<google_breakpad::ExceptionHandler*, std::allocator<google_breakpad::ExceptionHandler*> > >(__gnu_cxx::__normal_iterator<google_breakpad::ExceptionHandler**, std::vector<google_breakpad::ExceptionHandler*, std::allocator<google_breakpad::ExceptionHandler*> > > const&, __gnu_cxx::__normal_iterator<google_breakpad::ExceptionHandler**, std::vector<google_breakpad::ExceptionHandler*, std::allocator<google_breakpad::ExceptionHandler*> > > const&)
PUBLIC 167d0 0 __gnu_cxx::__normal_iterator<google_breakpad::ExceptionHandler**, std::vector<google_breakpad::ExceptionHandler*, std::allocator<google_breakpad::ExceptionHandler*> > > std::move<__gnu_cxx::__normal_iterator<google_breakpad::ExceptionHandler**, std::vector<google_breakpad::ExceptionHandler*, std::allocator<google_breakpad::ExceptionHandler*> > >, __gnu_cxx::__normal_iterator<google_breakpad::ExceptionHandler**, std::vector<google_breakpad::ExceptionHandler*, std::allocator<google_breakpad::ExceptionHandler*> > > >(__gnu_cxx::__normal_iterator<google_breakpad::ExceptionHandler**, std::vector<google_breakpad::ExceptionHandler*, std::allocator<google_breakpad::ExceptionHandler*> > >, __gnu_cxx::__normal_iterator<google_breakpad::ExceptionHandler**, std::vector<google_breakpad::ExceptionHandler*, std::allocator<google_breakpad::ExceptionHandler*> > >, __gnu_cxx::__normal_iterator<google_breakpad::ExceptionHandler**, std::vector<google_breakpad::ExceptionHandler*, std::allocator<google_breakpad::ExceptionHandler*> > >)
PUBLIC 1681c 0 void std::allocator_traits<std::allocator<google_breakpad::ExceptionHandler*> >::destroy<google_breakpad::ExceptionHandler*>(std::allocator<google_breakpad::ExceptionHandler*>&, google_breakpad::ExceptionHandler**)
PUBLIC 16842 0 void std::_Destroy<google_breakpad::ExceptionHandler**>(google_breakpad::ExceptionHandler**, google_breakpad::ExceptionHandler**)
PUBLIC 16868 0 std::_List_iterator<google_breakpad::MappingEntry>::_List_iterator(std::__detail::_List_node_base*)
PUBLIC 16882 0 std::_List_node<google_breakpad::MappingEntry>* std::__cxx11::list<google_breakpad::MappingEntry, std::allocator<google_breakpad::MappingEntry> >::_M_create_node<google_breakpad::MappingEntry const&>(google_breakpad::MappingEntry const&)
PUBLIC 16942 0 std::__cxx11::_List_base<google_breakpad::MappingEntry, std::allocator<google_breakpad::MappingEntry> >::_M_inc_size(unsigned long)
PUBLIC 1696e 0 __gnu_cxx::__ops::_Iter_equals_val<void* const>::_Iter_equals_val(void* const&)
PUBLIC 16988 0 std::iterator_traits<std::_List_iterator<google_breakpad::AppMemory> >::iterator_category std::__iterator_category<std::_List_iterator<google_breakpad::AppMemory> >(std::_List_iterator<google_breakpad::AppMemory> const&)
PUBLIC 16992 0 std::_List_iterator<google_breakpad::AppMemory> std::__find_if<std::_List_iterator<google_breakpad::AppMemory>, __gnu_cxx::__ops::_Iter_equals_val<void* const> >(std::_List_iterator<google_breakpad::AppMemory>, std::_List_iterator<google_breakpad::AppMemory>, __gnu_cxx::__ops::_Iter_equals_val<void* const>, std::input_iterator_tag)
PUBLIC 169fc 0 std::_List_node<google_breakpad::AppMemory>* std::__cxx11::list<google_breakpad::AppMemory, std::allocator<google_breakpad::AppMemory> >::_M_create_node<google_breakpad::AppMemory const&>(google_breakpad::AppMemory const&)
PUBLIC 16abc 0 std::__cxx11::_List_base<google_breakpad::AppMemory, std::allocator<google_breakpad::AppMemory> >::_M_inc_size(unsigned long)
PUBLIC 16ae8 0 std::__cxx11::_List_base<google_breakpad::AppMemory, std::allocator<google_breakpad::AppMemory> >::_M_dec_size(unsigned long)
PUBLIC 16b12 0 std::allocator<std::_List_node<google_breakpad::MappingEntry> >::allocator()
PUBLIC 16b2e 0 std::__cxx11::_List_base<google_breakpad::MappingEntry, std::allocator<google_breakpad::MappingEntry> >::_M_set_size(unsigned long)
PUBLIC 16b58 0 __gnu_cxx::__aligned_membuf<google_breakpad::MappingEntry>::_M_ptr()
PUBLIC 16b72 0 void __gnu_cxx::new_allocator<std::_List_node<google_breakpad::MappingEntry> >::destroy<google_breakpad::MappingEntry>(google_breakpad::MappingEntry*)
PUBLIC 16b81 0 std::allocator_traits<std::allocator<std::_List_node<google_breakpad::MappingEntry> > >::deallocate(std::allocator<std::_List_node<google_breakpad::MappingEntry> >&, std::_List_node<google_breakpad::MappingEntry>*, unsigned long)
PUBLIC 16bb0 0 std::allocator<std::_List_node<google_breakpad::AppMemory> >::allocator()
PUBLIC 16bcc 0 std::__cxx11::_List_base<google_breakpad::AppMemory, std::allocator<google_breakpad::AppMemory> >::_M_set_size(unsigned long)
PUBLIC 16bf6 0 __gnu_cxx::__aligned_membuf<google_breakpad::AppMemory>::_M_ptr()
PUBLIC 16c10 0 void __gnu_cxx::new_allocator<std::_List_node<google_breakpad::AppMemory> >::destroy<google_breakpad::AppMemory>(google_breakpad::AppMemory*)
PUBLIC 16c1f 0 std::allocator_traits<std::allocator<std::_List_node<google_breakpad::AppMemory> > >::deallocate(std::allocator<std::_List_node<google_breakpad::AppMemory> >&, std::_List_node<google_breakpad::AppMemory>*, unsigned long)
PUBLIC 16c4e 0 std::allocator<google_breakpad::ExceptionHandler*>::allocator()
PUBLIC 16c6a 0 __gnu_cxx::new_allocator<google_breakpad::ExceptionHandler*>::~new_allocator()
PUBLIC 16c75 0 std::allocator_traits<std::allocator<google_breakpad::ExceptionHandler*> >::deallocate(std::allocator<google_breakpad::ExceptionHandler*>&, google_breakpad::ExceptionHandler**, unsigned long)
PUBLIC 16ca4 0 void __gnu_cxx::new_allocator<google_breakpad::ExceptionHandler*>::construct<google_breakpad::ExceptionHandler*, google_breakpad::ExceptionHandler*>(google_breakpad::ExceptionHandler**, google_breakpad::ExceptionHandler*&&)
PUBLIC 16ce9 0 unsigned long const& std::max<unsigned long>(unsigned long const&, unsigned long const&)
PUBLIC 16d14 0 std::vector<google_breakpad::ExceptionHandler*, std::allocator<google_breakpad::ExceptionHandler*> >::_M_check_len(unsigned long, char const*) const
PUBLIC 16dde 0 std::_Vector_base<google_breakpad::ExceptionHandler*, std::allocator<google_breakpad::ExceptionHandler*> >::_M_allocate(unsigned long)
PUBLIC 16e11 0 google_breakpad::ExceptionHandler** std::__uninitialized_move_if_noexcept_a<google_breakpad::ExceptionHandler**, google_breakpad::ExceptionHandler**, std::allocator<google_breakpad::ExceptionHandler*> >(google_breakpad::ExceptionHandler**, google_breakpad::ExceptionHandler**, google_breakpad::ExceptionHandler**, std::allocator<google_breakpad::ExceptionHandler*>&)
PUBLIC 16e65 0 __gnu_cxx::__normal_iterator<google_breakpad::ExceptionHandler**, std::vector<google_breakpad::ExceptionHandler*, std::allocator<google_breakpad::ExceptionHandler*> > >::difference_type __gnu_cxx::operator-<google_breakpad::ExceptionHandler**, std::vector<google_breakpad::ExceptionHandler*, std::allocator<google_breakpad::ExceptionHandler*> > >(__gnu_cxx::__normal_iterator<google_breakpad::ExceptionHandler**, std::vector<google_breakpad::ExceptionHandler*, std::allocator<google_breakpad::ExceptionHandler*> > > const&, __gnu_cxx::__normal_iterator<google_breakpad::ExceptionHandler**, std::vector<google_breakpad::ExceptionHandler*, std::allocator<google_breakpad::ExceptionHandler*> > > const&)
PUBLIC 16ea8 0 bool __gnu_cxx::__ops::_Iter_equals_val<google_breakpad::ExceptionHandler* const>::operator()<__gnu_cxx::__normal_iterator<google_breakpad::ExceptionHandler**, std::vector<google_breakpad::ExceptionHandler*, std::allocator<google_breakpad::ExceptionHandler*> > > >(__gnu_cxx::__normal_iterator<google_breakpad::ExceptionHandler**, std::vector<google_breakpad::ExceptionHandler*, std::allocator<google_breakpad::ExceptionHandler*> > >)
PUBLIC 16eda 0 __gnu_cxx::__normal_iterator<google_breakpad::ExceptionHandler**, std::vector<google_breakpad::ExceptionHandler*, std::allocator<google_breakpad::ExceptionHandler*> > >::operator++()
PUBLIC 16efa 0 __gnu_cxx::__normal_iterator<google_breakpad::ExceptionHandler**, std::vector<google_breakpad::ExceptionHandler*, std::allocator<google_breakpad::ExceptionHandler*> > > std::__miter_base<__gnu_cxx::__normal_iterator<google_breakpad::ExceptionHandler**, std::vector<google_breakpad::ExceptionHandler*, std::allocator<google_breakpad::ExceptionHandler*> > > >(__gnu_cxx::__normal_iterator<google_breakpad::ExceptionHandler**, std::vector<google_breakpad::ExceptionHandler*, std::allocator<google_breakpad::ExceptionHandler*> > >)
PUBLIC 16f08 0 __gnu_cxx::__normal_iterator<google_breakpad::ExceptionHandler**, std::vector<google_breakpad::ExceptionHandler*, std::allocator<google_breakpad::ExceptionHandler*> > > std::__copy_move_a2<true, __gnu_cxx::__normal_iterator<google_breakpad::ExceptionHandler**, std::vector<google_breakpad::ExceptionHandler*, std::allocator<google_breakpad::ExceptionHandler*> > >, __gnu_cxx::__normal_iterator<google_breakpad::ExceptionHandler**, std::vector<google_breakpad::ExceptionHandler*, std::allocator<google_breakpad::ExceptionHandler*> > > >(__gnu_cxx::__normal_iterator<google_breakpad::ExceptionHandler**, std::vector<google_breakpad::ExceptionHandler*, std::allocator<google_breakpad::ExceptionHandler*> > >, __gnu_cxx::__normal_iterator<google_breakpad::ExceptionHandler**, std::vector<google_breakpad::ExceptionHandler*, std::allocator<google_breakpad::ExceptionHandler*> > >, __gnu_cxx::__normal_iterator<google_breakpad::ExceptionHandler**, std::vector<google_breakpad::ExceptionHandler*, std::allocator<google_breakpad::ExceptionHandler*> > >)
PUBLIC 16f7c 0 void __gnu_cxx::new_allocator<google_breakpad::ExceptionHandler*>::destroy<google_breakpad::ExceptionHandler*>(google_breakpad::ExceptionHandler**)
PUBLIC 16f8b 0 void std::_Destroy_aux<true>::__destroy<google_breakpad::ExceptionHandler**>(google_breakpad::ExceptionHandler**, google_breakpad::ExceptionHandler**)
PUBLIC 16f9a 0 std::__cxx11::_List_base<google_breakpad::MappingEntry, std::allocator<google_breakpad::MappingEntry> >::_M_get_node()
PUBLIC 16fba 0 std::__allocated_ptr<std::allocator<std::_List_node<google_breakpad::MappingEntry> > >::__allocated_ptr(std::allocator<std::_List_node<google_breakpad::MappingEntry> >&, std::_List_node<google_breakpad::MappingEntry>*)
PUBLIC 16ff4 0 std::__allocated_ptr<std::allocator<std::_List_node<google_breakpad::MappingEntry> > >::~__allocated_ptr()
PUBLIC 1702f 0 void std::allocator_traits<std::allocator<std::_List_node<google_breakpad::MappingEntry> > >::construct<google_breakpad::MappingEntry, google_breakpad::MappingEntry const&>(std::allocator<std::_List_node<google_breakpad::MappingEntry> >&, google_breakpad::MappingEntry*, google_breakpad::MappingEntry const&)
PUBLIC 17068 0 std::__allocated_ptr<std::allocator<std::_List_node<google_breakpad::MappingEntry> > >::operator=(decltype(nullptr))
PUBLIC 17086 0 std::_List_node<unsigned long>::_M_valptr()
PUBLIC 170a4 0 bool __gnu_cxx::__ops::_Iter_equals_val<void* const>::operator()<std::_List_iterator<google_breakpad::AppMemory> >(std::_List_iterator<google_breakpad::AppMemory>)
PUBLIC 170de 0 std::_List_iterator<google_breakpad::AppMemory>::operator++()
PUBLIC 170fe 0 std::__cxx11::_List_base<google_breakpad::AppMemory, std::allocator<google_breakpad::AppMemory> >::_M_get_node()
PUBLIC 1711e 0 std::__allocated_ptr<std::allocator<std::_List_node<google_breakpad::AppMemory> > >::__allocated_ptr(std::allocator<std::_List_node<google_breakpad::AppMemory> >&, std::_List_node<google_breakpad::AppMemory>*)
PUBLIC 17158 0 std::__allocated_ptr<std::allocator<std::_List_node<google_breakpad::AppMemory> > >::~__allocated_ptr()
PUBLIC 17193 0 void std::allocator_traits<std::allocator<std::_List_node<google_breakpad::AppMemory> > >::construct<google_breakpad::AppMemory, google_breakpad::AppMemory const&>(std::allocator<std::_List_node<google_breakpad::AppMemory> >&, google_breakpad::AppMemory*, google_breakpad::AppMemory const&)
PUBLIC 171cc 0 std::__allocated_ptr<std::allocator<std::_List_node<google_breakpad::AppMemory> > >::operator=(decltype(nullptr))
PUBLIC 171ea 0 __gnu_cxx::new_allocator<std::_List_node<google_breakpad::MappingEntry> >::new_allocator()
PUBLIC 171f6 0 __gnu_cxx::__aligned_membuf<google_breakpad::MappingEntry>::_M_addr()
PUBLIC 17204 0 __gnu_cxx::new_allocator<std::_List_node<google_breakpad::MappingEntry> >::deallocate(std::_List_node<google_breakpad::MappingEntry>*, unsigned long)
PUBLIC 17228 0 __gnu_cxx::new_allocator<std::_List_node<google_breakpad::AppMemory> >::new_allocator()
PUBLIC 17234 0 __gnu_cxx::__aligned_membuf<google_breakpad::AppMemory>::_M_addr()
PUBLIC 17242 0 __gnu_cxx::new_allocator<std::_List_node<google_breakpad::AppMemory> >::deallocate(std::_List_node<google_breakpad::AppMemory>*, unsigned long)
PUBLIC 17266 0 __gnu_cxx::new_allocator<google_breakpad::ExceptionHandler*>::new_allocator()
PUBLIC 17272 0 __gnu_cxx::new_allocator<google_breakpad::ExceptionHandler*>::deallocate(google_breakpad::ExceptionHandler**, unsigned long)
PUBLIC 17296 0 std::vector<google_breakpad::ExceptionHandler*, std::allocator<google_breakpad::ExceptionHandler*> >::max_size() const
PUBLIC 172b8 0 std::allocator_traits<std::allocator<google_breakpad::ExceptionHandler*> >::allocate(std::allocator<google_breakpad::ExceptionHandler*>&, unsigned long)
PUBLIC 172e2 0 std::move_iterator<google_breakpad::ExceptionHandler**> std::__make_move_if_noexcept_iterator<google_breakpad::ExceptionHandler*, std::move_iterator<google_breakpad::ExceptionHandler**> >(google_breakpad::ExceptionHandler**)
PUBLIC 17307 0 google_breakpad::ExceptionHandler** std::__uninitialized_copy_a<std::move_iterator<google_breakpad::ExceptionHandler**>, google_breakpad::ExceptionHandler**, google_breakpad::ExceptionHandler*>(std::move_iterator<google_breakpad::ExceptionHandler**>, std::move_iterator<google_breakpad::ExceptionHandler**>, google_breakpad::ExceptionHandler**, std::allocator<google_breakpad::ExceptionHandler*>&)
PUBLIC 17338 0 __gnu_cxx::__normal_iterator<google_breakpad::ExceptionHandler**, std::vector<google_breakpad::ExceptionHandler*, std::allocator<google_breakpad::ExceptionHandler*> > >::operator*() const
PUBLIC 17349 0 google_breakpad::ExceptionHandler** std::__niter_base<google_breakpad::ExceptionHandler**, std::vector<google_breakpad::ExceptionHandler*, std::allocator<google_breakpad::ExceptionHandler*> > >(__gnu_cxx::__normal_iterator<google_breakpad::ExceptionHandler**, std::vector<google_breakpad::ExceptionHandler*, std::allocator<google_breakpad::ExceptionHandler*> > >)
PUBLIC 17366 0 google_breakpad::ExceptionHandler** std::__copy_move_a<true, google_breakpad::ExceptionHandler**, google_breakpad::ExceptionHandler**>(google_breakpad::ExceptionHandler**, google_breakpad::ExceptionHandler**, google_breakpad::ExceptionHandler**)
PUBLIC 17397 0 std::allocator_traits<std::allocator<std::_List_node<google_breakpad::MappingEntry> > >::allocate(std::allocator<std::_List_node<google_breakpad::MappingEntry> >&, unsigned long)
PUBLIC 173c1 0 std::allocator<std::_List_node<google_breakpad::MappingEntry> >* std::__addressof<std::allocator<std::_List_node<google_breakpad::MappingEntry> > >(std::allocator<std::_List_node<google_breakpad::MappingEntry> >&)
PUBLIC 173d0 0 void __gnu_cxx::new_allocator<std::_List_node<google_breakpad::MappingEntry> >::construct<google_breakpad::MappingEntry, google_breakpad::MappingEntry const&>(google_breakpad::MappingEntry*, google_breakpad::MappingEntry const&)
PUBLIC 17426 0 __gnu_cxx::__aligned_membuf<unsigned long>::_M_ptr()
PUBLIC 17440 0 std::_List_iterator<google_breakpad::AppMemory>::operator*() const
PUBLIC 1745d 0 std::allocator_traits<std::allocator<std::_List_node<google_breakpad::AppMemory> > >::allocate(std::allocator<std::_List_node<google_breakpad::AppMemory> >&, unsigned long)
PUBLIC 17487 0 std::allocator<std::_List_node<google_breakpad::AppMemory> >* std::__addressof<std::allocator<std::_List_node<google_breakpad::AppMemory> > >(std::allocator<std::_List_node<google_breakpad::AppMemory> >&)
PUBLIC 17496 0 void __gnu_cxx::new_allocator<std::_List_node<google_breakpad::AppMemory> >::construct<google_breakpad::AppMemory, google_breakpad::AppMemory const&>(google_breakpad::AppMemory*, google_breakpad::AppMemory const&)
PUBLIC 174e9 0 std::allocator_traits<std::allocator<google_breakpad::ExceptionHandler*> >::max_size(std::allocator<google_breakpad::ExceptionHandler*> const&)
PUBLIC 17504 0 std::_Vector_base<google_breakpad::ExceptionHandler*, std::allocator<google_breakpad::ExceptionHandler*> >::_M_get_Tp_allocator() const
PUBLIC 17512 0 __gnu_cxx::new_allocator<google_breakpad::ExceptionHandler*>::allocate(unsigned long, void const*)
PUBLIC 17554 0 std::move_iterator<google_breakpad::ExceptionHandler**>::move_iterator(google_breakpad::ExceptionHandler**)
PUBLIC 1756e 0 google_breakpad::ExceptionHandler** std::uninitialized_copy<std::move_iterator<google_breakpad::ExceptionHandler**>, google_breakpad::ExceptionHandler**>(std::move_iterator<google_breakpad::ExceptionHandler**>, std::move_iterator<google_breakpad::ExceptionHandler**>, google_breakpad::ExceptionHandler**)
PUBLIC 1759f 0 google_breakpad::ExceptionHandler** std::__copy_move<true, true, std::random_access_iterator_tag>::__copy_m<google_breakpad::ExceptionHandler*>(google_breakpad::ExceptionHandler* const*, google_breakpad::ExceptionHandler* const*, google_breakpad::ExceptionHandler**)
PUBLIC 17604 0 __gnu_cxx::new_allocator<std::_List_node<google_breakpad::MappingEntry> >::allocate(unsigned long, void const*)
PUBLIC 17658 0 __gnu_cxx::__aligned_membuf<unsigned long>::_M_addr()
PUBLIC 17666 0 __gnu_cxx::new_allocator<std::_List_node<google_breakpad::AppMemory> >::allocate(unsigned long, void const*)
PUBLIC 176a8 0 __gnu_cxx::new_allocator<google_breakpad::ExceptionHandler*>::max_size() const
PUBLIC 176bc 0 google_breakpad::ExceptionHandler** std::__uninitialized_copy<true>::__uninit_copy<std::move_iterator<google_breakpad::ExceptionHandler**>, google_breakpad::ExceptionHandler**>(std::move_iterator<google_breakpad::ExceptionHandler**>, std::move_iterator<google_breakpad::ExceptionHandler**>, google_breakpad::ExceptionHandler**)
PUBLIC 176ea 0 __gnu_cxx::new_allocator<std::_List_node<google_breakpad::MappingEntry> >::max_size() const
PUBLIC 176fe 0 __gnu_cxx::new_allocator<std::_List_node<google_breakpad::AppMemory> >::max_size() const
PUBLIC 17712 0 google_breakpad::ExceptionHandler** std::copy<std::move_iterator<google_breakpad::ExceptionHandler**>, google_breakpad::ExceptionHandler**>(std::move_iterator<google_breakpad::ExceptionHandler**>, std::move_iterator<google_breakpad::ExceptionHandler**>, google_breakpad::ExceptionHandler**)
PUBLIC 1775e 0 decltype (__miter_base(({parm#1}.base)())) std::__miter_base<google_breakpad::ExceptionHandler**>(std::move_iterator<google_breakpad::ExceptionHandler**>)
PUBLIC 17780 0 google_breakpad::ExceptionHandler** std::__copy_move_a2<true, google_breakpad::ExceptionHandler**, google_breakpad::ExceptionHandler**>(google_breakpad::ExceptionHandler**, google_breakpad::ExceptionHandler**, google_breakpad::ExceptionHandler**)
PUBLIC 177d8 0 std::move_iterator<google_breakpad::ExceptionHandler**>::base() const
PUBLIC 177e9 0 google_breakpad::ExceptionHandler** std::__miter_base<google_breakpad::ExceptionHandler**>(google_breakpad::ExceptionHandler**)
PUBLIC 177f7 0 google_breakpad::ExceptionHandler** std::__niter_base<google_breakpad::ExceptionHandler**>(google_breakpad::ExceptionHandler**)
PUBLIC 17806 0 google_breakpad::MinidumpDescriptor::MinidumpDescriptor(google_breakpad::MinidumpDescriptor const&)
PUBLIC 1790a 0 google_breakpad::MinidumpDescriptor::operator=(google_breakpad::MinidumpDescriptor const&)
PUBLIC 17a2a 0 google_breakpad::MinidumpDescriptor::UpdatePath()
PUBLIC 17be6 0 std::__cxx11::basic_string<char, std::char_traits<char>, std::allocator<char> > std::operator+<char, std::char_traits<char>, std::allocator<char> >(std::__cxx11::basic_string<char, std::char_traits<char>, std::allocator<char> > const&, char const*)
PUBLIC 17c48 0 std::remove_reference<std::__cxx11::basic_string<char, std::char_traits<char>, std::allocator<char> >&>::type&& std::move<std::__cxx11::basic_string<char, std::char_traits<char>, std::allocator<char> >&>(std::__cxx11::basic_string<char, std::char_traits<char>, std::allocator<char> >&)
PUBLIC 17c56 0 std::__cxx11::basic_string<char, std::char_traits<char>, std::allocator<char> > std::operator+<char, std::char_traits<char>, std::allocator<char> >(std::__cxx11::basic_string<char, std::char_traits<char>, std::allocator<char> >&&, char const*)
PUBLIC 17c9e 0 sys_close
PUBLIC 17ce7 0 sys_munmap
PUBLIC 17d3a 0 sys_open
PUBLIC 17d94 0 sys_read
PUBLIC 17ded 0 sys_mmap
PUBLIC 17e7c 0 (anonymous namespace)::MinidumpWriter::MinidumpWriter(char const*, int, google_breakpad::ExceptionHandler::CrashContext const*, std::__cxx11::list<google_breakpad::MappingEntry, std::allocator<google_breakpad::MappingEntry> > const&, std::__cxx11::list<google_breakpad::AppMemory, std::allocator<google_breakpad::AppMemory> > const&, bool, unsigned long, bool, google_breakpad::LinuxDumper*)
PUBLIC 18032 0 (anonymous namespace)::MinidumpWriter::Init()
PUBLIC 1817e 0 (anonymous namespace)::MinidumpWriter::~MinidumpWriter()
PUBLIC 181e8 0 (anonymous namespace)::MinidumpWriter::CrashingThreadReferencesPrincipalMapping()
PUBLIC 18358 0 (anonymous namespace)::MinidumpWriter::Dump()
PUBLIC 189e2 0 (anonymous namespace)::MinidumpWriter::FillThreadStack(MDRawThread*, unsigned long, unsigned long, int, unsigned char**)
PUBLIC 18cd4 0 (anonymous namespace)::MinidumpWriter::WriteThreadListStream(MDRawDirectory*)
PUBLIC 1950a 0 (anonymous namespace)::MinidumpWriter::WriteAppMemory()
PUBLIC 196b5 0 (anonymous namespace)::MinidumpWriter::ShouldIncludeMapping(google_breakpad::MappingInfo const&)
PUBLIC 19704 0 (anonymous namespace)::MinidumpWriter::HaveMappingInfo(google_breakpad::MappingInfo const&)
PUBLIC 197e8 0 (anonymous namespace)::MinidumpWriter::WriteMappings(MDRawDirectory*)
PUBLIC 19b74 0 (anonymous namespace)::MinidumpWriter::FillRawModule(google_breakpad::MappingInfo const&, bool, unsigned int, MDRawModule*, unsigned char const*)
PUBLIC 19e50 0 (anonymous namespace)::MinidumpWriter::WriteMemoryListStream(MDRawDirectory*)
PUBLIC 19fb8 0 (anonymous namespace)::MinidumpWriter::WriteExceptionStream(MDRawDirectory*)
PUBLIC 1a122 0 (anonymous namespace)::MinidumpWriter::WriteSystemInfoStream(MDRawDirectory*)
PUBLIC 1a212 0 (anonymous namespace)::MinidumpWriter::WriteDSODebugStream(MDRawDirectory*)
PUBLIC 1a9c4 0 (anonymous namespace)::MinidumpWriter::set_minidump_size_limit(long)
PUBLIC 1a9e0 0 (anonymous namespace)::MinidumpWriter::Alloc(unsigned int)
PUBLIC 1aa16 0 (anonymous namespace)::MinidumpWriter::GetCrashThread() const
PUBLIC 1aa34 0 (anonymous namespace)::MinidumpWriter::NullifyDirectoryEntry(MDRawDirectory*)
PUBLIC 1aa64 0 (anonymous namespace)::MinidumpWriter::WriteCPUInformation(MDRawSystemInfo*)
PUBLIC 1ae0c 0 (anonymous namespace)::MinidumpWriter::WriteFile(MDLocationDescriptor*, char const*)
PUBLIC 1b048 0 (anonymous namespace)::MinidumpWriter::WriteOSInformation(MDRawSystemInfo*)
PUBLIC 1b244 0 (anonymous namespace)::MinidumpWriter::WriteProcFile(MDLocationDescriptor*, int, char const*)
PUBLIC 1b2d0 0 (anonymous namespace)::WriteMinidumpImpl(char const*, int, long, int, void const*, unsigned long, std::__cxx11::list<google_breakpad::MappingEntry, std::allocator<google_breakpad::MappingEntry> > const&, std::__cxx11::list<google_breakpad::AppMemory, std::allocator<google_breakpad::AppMemory> > const&, bool, unsigned long, bool)
PUBLIC 1b47f 0 google_breakpad::WriteMinidump(char const*, int, void const*, unsigned long, bool, unsigned long, bool)
PUBLIC 1b55a 0 google_breakpad::WriteMinidump(int, int, void const*, unsigned long, bool, unsigned long, bool)
PUBLIC 1b632 0 google_breakpad::WriteMinidump(char const*, int, int)
PUBLIC 1b7a2 0 google_breakpad::WriteMinidump(char const*, int, void const*, unsigned long, std::__cxx11::list<google_breakpad::MappingEntry, std::allocator<google_breakpad::MappingEntry> > const&, std::__cxx11::list<google_breakpad::AppMemory, std::allocator<google_breakpad::AppMemory> > const&, bool, unsigned long, bool)
PUBLIC 1b815 0 google_breakpad::WriteMinidump(int, int, void const*, unsigned long, std::__cxx11::list<google_breakpad::MappingEntry, std::allocator<google_breakpad::MappingEntry> > const&, std::__cxx11::list<google_breakpad::AppMemory, std::allocator<google_breakpad::AppMemory> > const&, bool, unsigned long, bool)
PUBLIC 1b885 0 google_breakpad::WriteMinidump(char const*, long, int, void const*, unsigned long, std::__cxx11::list<google_breakpad::MappingEntry, std::allocator<google_breakpad::MappingEntry> > const&, std::__cxx11::list<google_breakpad::AppMemory, std::allocator<google_breakpad::AppMemory> > const&, bool, unsigned long, bool)
PUBLIC 1b8ed 0 google_breakpad::WriteMinidump(int, long, int, void const*, unsigned long, std::__cxx11::list<google_breakpad::MappingEntry, std::allocator<google_breakpad::MappingEntry> > const&, std::__cxx11::list<google_breakpad::AppMemory, std::allocator<google_breakpad::AppMemory> > const&, bool, unsigned long, bool)
PUBLIC 1b952 0 google_breakpad::WriteMinidump(char const*, std::__cxx11::list<google_breakpad::MappingEntry, std::allocator<google_breakpad::MappingEntry> > const&, std::__cxx11::list<google_breakpad::AppMemory, std::allocator<google_breakpad::AppMemory> > const&, google_breakpad::LinuxDumper*)
PUBLIC 1ba22 0 operator new(unsigned long, google_breakpad::PageAllocator&)
PUBLIC 1ba48 0 google_breakpad::LinuxDumper::threads()
PUBLIC 1ba5a 0 google_breakpad::LinuxDumper::mappings()
PUBLIC 1ba6e 0 google_breakpad::LinuxDumper::auxv()
PUBLIC 1ba82 0 google_breakpad::LinuxDumper::allocator()
PUBLIC 1ba94 0 google_breakpad::LinuxDumper::crash_address() const
PUBLIC 1baa6 0 google_breakpad::LinuxDumper::set_crash_address(unsigned long)
PUBLIC 1bac2 0 google_breakpad::LinuxDumper::crash_signal() const
PUBLIC 1bad4 0 google_breakpad::LinuxDumper::set_crash_signal(int)
PUBLIC 1baec 0 google_breakpad::LinuxDumper::crash_signal_code() const
PUBLIC 1bafe 0 google_breakpad::LinuxDumper::crash_thread() const
PUBLIC 1bb10 0 google_breakpad::LinuxDumper::set_crash_thread(int)
PUBLIC 1bb28 0 google_breakpad::MinidumpFileWriter::position() const
PUBLIC 1bb3a 0 google_breakpad::UntypedMDRVA::UntypedMDRVA(google_breakpad::MinidumpFileWriter*)
PUBLIC 1bb7a 0 google_breakpad::UntypedMDRVA::position() const
PUBLIC 1bb8c 0 google_breakpad::UntypedMDRVA::location() const
PUBLIC 1bbb0 0 google_breakpad::UntypedMDRVA::Copy(void const*, unsigned long)
PUBLIC 1bbe2 0 google_breakpad::LineReader::LineReader(int)
PUBLIC 1bc0c 0 google_breakpad::LineReader::GetNextLine(char const**, unsigned int*)
PUBLIC 1bdb2 0 google_breakpad::LineReader::PopLine(unsigned int)
PUBLIC 1be3a 0 google_breakpad::ProcCpuInfoReader::ProcCpuInfoReader(int)
PUBLIC 1be6c 0 google_breakpad::ProcCpuInfoReader::GetNextField(char const**)
PUBLIC 1bff6 0 google_breakpad::ProcCpuInfoReader::GetValueAndLen(unsigned long*)
PUBLIC 1c054 0 google_breakpad::wasteful_vector<MDMemoryDescriptor>::~wasteful_vector()
PUBLIC 1c06f 0 unsigned long const& std::min<unsigned long>(unsigned long const&, unsigned long const&)
PUBLIC 1c09a 0 google_breakpad::wasteful_vector<unsigned char>::~wasteful_vector()
PUBLIC 1c0b6 0 google_breakpad::auto_wasteful_vector<unsigned char, 20u>::~auto_wasteful_vector()
PUBLIC 1c0d2 0 google_breakpad::wasteful_vector<char>::~wasteful_vector()
PUBLIC 1c0ee 0 std::vector<int, google_breakpad::PageStdAllocator<int> >::size() const
PUBLIC 1c116 0 std::vector<int, google_breakpad::PageStdAllocator<int> >::operator[](unsigned long) const
PUBLIC 1c138 0 google_breakpad::PageStdAllocator<MDMemoryDescriptor>::~PageStdAllocator()
PUBLIC 1c154 0 google_breakpad::wasteful_vector<MDMemoryDescriptor>::wasteful_vector(google_breakpad::PageAllocator*, unsigned int)
PUBLIC 1c1d0 0 std::vector<MDMemoryDescriptor, google_breakpad::PageStdAllocator<MDMemoryDescriptor> >::~vector()
PUBLIC 1c216 0 google_breakpad::TypedMDRVA<MDRawDirectory>::TypedMDRVA(google_breakpad::MinidumpFileWriter*)
PUBLIC 1c268 0 google_breakpad::TypedMDRVA<MDRawDirectory>::~TypedMDRVA()
PUBLIC 1c290 0 google_breakpad::TypedMDRVA<MDRawHeader>::TypedMDRVA(google_breakpad::MinidumpFileWriter*)
PUBLIC 1c2e6 0 google_breakpad::TypedMDRVA<MDRawHeader>::~TypedMDRVA()
PUBLIC 1c30e 0 google_breakpad::TypedMDRVA<MDRawHeader>::Allocate()
PUBLIC 1c33e 0 google_breakpad::TypedMDRVA<MDRawDirectory>::AllocateArray(unsigned long)
PUBLIC 1c3a2 0 google_breakpad::TypedMDRVA<MDRawHeader>::get()
PUBLIC 1c3b4 0 google_breakpad::TypedMDRVA<MDRawDirectory>::CopyIndex(unsigned int, MDRawDirectory*)
PUBLIC 1c42f 0 MDMemoryDescriptor const& std::forward<MDMemoryDescriptor const&>(std::remove_reference<MDMemoryDescriptor const&>::type&)
PUBLIC 1c43e 0 std::vector<MDMemoryDescriptor, google_breakpad::PageStdAllocator<MDMemoryDescriptor> >::push_back(MDMemoryDescriptor const&)
PUBLIC 1c4aa 0 google_breakpad::TypedMDRVA<unsigned int>::TypedMDRVA(google_breakpad::MinidumpFileWriter*)
PUBLIC 1c4e6 0 google_breakpad::TypedMDRVA<unsigned int>::~TypedMDRVA()
PUBLIC 1c50e 0 google_breakpad::TypedMDRVA<unsigned int>::AllocateObjectAndArray(unsigned long, unsigned long)
PUBLIC 1c580 0 google_breakpad::TypedMDRVA<unsigned int>::get()
PUBLIC 1c592 0 std::vector<google_breakpad::MappingInfo*, google_breakpad::PageStdAllocator<google_breakpad::MappingInfo*> >::size() const
PUBLIC 1c5ba 0 std::vector<google_breakpad::MappingInfo*, google_breakpad::PageStdAllocator<google_breakpad::MappingInfo*> >::operator[](unsigned long) const
PUBLIC 1c5dc 0 google_breakpad::TypedMDRVA<MDRawContextAMD64>::TypedMDRVA(google_breakpad::MinidumpFileWriter*)
PUBLIC 1c628 0 google_breakpad::TypedMDRVA<MDRawContextAMD64>::~TypedMDRVA()
PUBLIC 1c652 0 google_breakpad::TypedMDRVA<MDRawContextAMD64>::Allocate()
PUBLIC 1c686 0 google_breakpad::TypedMDRVA<MDRawContextAMD64>::get()
PUBLIC 1c698 0 google_breakpad::TypedMDRVA<unsigned int>::CopyIndexAfterObject(unsigned int, void const*, unsigned long)
PUBLIC 1c71c 0 std::__cxx11::list<google_breakpad::AppMemory, std::allocator<google_breakpad::AppMemory> >::begin() const
PUBLIC 1c744 0 std::__cxx11::list<google_breakpad::AppMemory, std::allocator<google_breakpad::AppMemory> >::end() const
PUBLIC 1c76a 0 std::_List_const_iterator<google_breakpad::AppMemory>::operator!=(std::_List_const_iterator<google_breakpad::AppMemory> const&) const
PUBLIC 1c78c 0 std::_List_const_iterator<google_breakpad::AppMemory>::operator++()
PUBLIC 1c7ac 0 std::_List_const_iterator<google_breakpad::AppMemory>::operator->() const
PUBLIC 1c7ca 0 std::__cxx11::list<google_breakpad::MappingEntry, std::allocator<google_breakpad::MappingEntry> >::begin() const
PUBLIC 1c7f2 0 std::__cxx11::list<google_breakpad::MappingEntry, std::allocator<google_breakpad::MappingEntry> >::end() const
PUBLIC 1c818 0 std::_List_const_iterator<google_breakpad::MappingEntry>::operator!=(std::_List_const_iterator<google_breakpad::MappingEntry> const&) const
PUBLIC 1c83a 0 std::_List_const_iterator<google_breakpad::MappingEntry>::operator++()
PUBLIC 1c85a 0 std::_List_const_iterator<google_breakpad::MappingEntry>::operator->() const
PUBLIC 1c878 0 std::__cxx11::list<google_breakpad::MappingEntry, std::allocator<google_breakpad::MappingEntry> >::size() const
PUBLIC 1c892 0 google_breakpad::TypedMDRVA<unsigned int>::Allocate()
PUBLIC 1c8c2 0 google_breakpad::PageStdAllocator<unsigned char>::~PageStdAllocator()
PUBLIC 1c8de 0 google_breakpad::auto_wasteful_vector<unsigned char, 20u>::auto_wasteful_vector(google_breakpad::PageAllocator*)
PUBLIC 1c960 0 std::vector<unsigned char, google_breakpad::PageStdAllocator<unsigned char> >::~vector()
PUBLIC 1c9a6 0 std::vector<unsigned char, google_breakpad::PageStdAllocator<unsigned char> >::end()
PUBLIC 1c9d0 0 __gnu_cxx::__normal_iterator<unsigned char const*, std::vector<unsigned char, google_breakpad::PageStdAllocator<unsigned char> > >::__normal_iterator<unsigned char*>(__gnu_cxx::__normal_iterator<unsigned char*, __gnu_cxx::__enable_if<std::__are_same<unsigned char*, unsigned char*>::__value, std::vector<unsigned char, google_breakpad::PageStdAllocator<unsigned char> > >::__type> const&)
PUBLIC 1c9fa 0 __gnu_cxx::__normal_iterator<unsigned char*, std::vector<unsigned char, google_breakpad::PageStdAllocator<unsigned char> > > std::vector<unsigned char, google_breakpad::PageStdAllocator<unsigned char> >::insert<unsigned char const*, void>(__gnu_cxx::__normal_iterator<unsigned char const*, std::vector<unsigned char, google_breakpad::PageStdAllocator<unsigned char> > >, unsigned char const*, unsigned char const*)
PUBLIC 1caa6 0 std::vector<unsigned char, google_breakpad::PageStdAllocator<unsigned char> >::empty() const
PUBLIC 1cae8 0 std::vector<unsigned char, google_breakpad::PageStdAllocator<unsigned char> >::size() const
PUBLIC 1cb0c 0 std::vector<unsigned char, google_breakpad::PageStdAllocator<unsigned char> >::operator[](unsigned long)
PUBLIC 1cb2a 0 std::vector<MDMemoryDescriptor, google_breakpad::PageStdAllocator<MDMemoryDescriptor> >::size() const
PUBLIC 1cb52 0 std::vector<MDMemoryDescriptor, google_breakpad::PageStdAllocator<MDMemoryDescriptor> >::operator[](unsigned long)
PUBLIC 1cb74 0 google_breakpad::TypedMDRVA<MDRawExceptionStream>::TypedMDRVA(google_breakpad::MinidumpFileWriter*)
PUBLIC 1cbc0 0 google_breakpad::TypedMDRVA<MDRawExceptionStream>::~TypedMDRVA()
PUBLIC 1cbea 0 google_breakpad::TypedMDRVA<MDRawExceptionStream>::Allocate()
PUBLIC 1cc1e 0 google_breakpad::TypedMDRVA<MDRawExceptionStream>::get()
PUBLIC 1cc30 0 google_breakpad::TypedMDRVA<MDRawSystemInfo>::TypedMDRVA(google_breakpad::MinidumpFileWriter*)
PUBLIC 1cc7a 0 google_breakpad::TypedMDRVA<MDRawSystemInfo>::~TypedMDRVA()
PUBLIC 1cca2 0 google_breakpad::TypedMDRVA<MDRawSystemInfo>::Allocate()
PUBLIC 1ccd2 0 google_breakpad::TypedMDRVA<MDRawSystemInfo>::get()
PUBLIC 1cce4 0 std::vector<unsigned long, google_breakpad::PageStdAllocator<unsigned long> >::operator[](unsigned long) const
PUBLIC 1cd06 0 google_breakpad::TypedMDRVA<MDRawLinkMap64>::TypedMDRVA(google_breakpad::MinidumpFileWriter*)
PUBLIC 1cd5a 0 google_breakpad::TypedMDRVA<MDRawLinkMap64>::~TypedMDRVA()
PUBLIC 1cd82 0 google_breakpad::TypedMDRVA<MDRawLinkMap64>::AllocateArray(unsigned long)
PUBLIC 1cde6 0 google_breakpad::TypedMDRVA<MDRawLinkMap64>::CopyIndex(unsigned int, MDRawLinkMap64*)
PUBLIC 1ce62 0 google_breakpad::TypedMDRVA<MDRawDebug64>::TypedMDRVA(google_breakpad::MinidumpFileWriter*)
PUBLIC 1ced8 0 google_breakpad::TypedMDRVA<MDRawDebug64>::~TypedMDRVA()
PUBLIC 1cf00 0 google_breakpad::TypedMDRVA<MDRawDebug64>::AllocateObjectAndArray(unsigned long, unsigned long)
PUBLIC 1cf72 0 google_breakpad::TypedMDRVA<MDRawDebug64>::get()
PUBLIC 1cf84 0 google_breakpad::PageStdAllocator<char>::~PageStdAllocator()
PUBLIC 1cfa0 0 google_breakpad::wasteful_vector<char>::wasteful_vector(google_breakpad::PageAllocator*, unsigned int)
PUBLIC 1d01c 0 std::vector<char, google_breakpad::PageStdAllocator<char> >::~vector()
PUBLIC 1d062 0 std::vector<char, google_breakpad::PageStdAllocator<char> >::resize(unsigned long)
PUBLIC 1d0ec 0 std::vector<char, google_breakpad::PageStdAllocator<char> >::operator[](unsigned long)
PUBLIC 1d10a 0 google_breakpad::TypedMDRVA<MDRawDebug64>::CopyIndexAfterObject(unsigned int, void const*, unsigned long)
PUBLIC 1d18e 0 google_breakpad::PageStdAllocator<MDMemoryDescriptor>::PageStdAllocator(google_breakpad::PageAllocator&)
PUBLIC 1d1d0 0 std::allocator<MDMemoryDescriptor>::~allocator()
PUBLIC 1d1ec 0 std::vector<MDMemoryDescriptor, google_breakpad::PageStdAllocator<MDMemoryDescriptor> >::vector(google_breakpad::PageStdAllocator<MDMemoryDescriptor> const&)
PUBLIC 1d212 0 std::vector<MDMemoryDescriptor, google_breakpad::PageStdAllocator<MDMemoryDescriptor> >::reserve(unsigned long)
PUBLIC 1d358 0 std::_Vector_base<MDMemoryDescriptor, google_breakpad::PageStdAllocator<MDMemoryDescriptor> >::_Vector_impl::~_Vector_impl()
PUBLIC 1d374 0 std::_Vector_base<MDMemoryDescriptor, google_breakpad::PageStdAllocator<MDMemoryDescriptor> >::~_Vector_base()
PUBLIC 1d3c6 0 std::_Vector_base<MDMemoryDescriptor, google_breakpad::PageStdAllocator<MDMemoryDescriptor> >::_M_get_Tp_allocator()
PUBLIC 1d3d4 0 void std::_Destroy<MDMemoryDescriptor*, google_breakpad::PageStdAllocator<MDMemoryDescriptor> >(MDMemoryDescriptor*, MDMemoryDescriptor*, google_breakpad::PageStdAllocator<MDMemoryDescriptor>&)
PUBLIC 1d41a 0 google_breakpad::TypedMDRVA<MDRawDirectory>::Flush()
PUBLIC 1d44e 0 google_breakpad::TypedMDRVA<MDRawHeader>::Flush()
PUBLIC 1d482 0 google_breakpad::minidump_size<MDRawHeader>::size()
PUBLIC 1d48d 0 google_breakpad::minidump_size<MDRawDirectory>::size()
PUBLIC 1d498 0 decltype (_S_construct({parm#1}, {parm#2}, (forward<MDMemoryDescriptor const&>)({parm#3}))) std::allocator_traits<google_breakpad::PageStdAllocator<MDMemoryDescriptor> >::construct<MDMemoryDescriptor, MDMemoryDescriptor const&>(google_breakpad::PageStdAllocator<MDMemoryDescriptor>&, MDMemoryDescriptor*, MDMemoryDescriptor const&)
PUBLIC 1d4d2 0 void std::vector<MDMemoryDescriptor, google_breakpad::PageStdAllocator<MDMemoryDescriptor> >::_M_emplace_back_aux<MDMemoryDescriptor const&>(MDMemoryDescriptor const&)
PUBLIC 1d6c0 0 google_breakpad::TypedMDRVA<unsigned int>::Flush()
PUBLIC 1d6f4 0 google_breakpad::minidump_size<unsigned int>::size()
PUBLIC 1d700 0 google_breakpad::TypedMDRVA<MDRawContextAMD64>::Flush()
PUBLIC 1d734 0 google_breakpad::minidump_size<MDRawContextAMD64>::size()
PUBLIC 1d740 0 std::_List_const_iterator<google_breakpad::AppMemory>::_List_const_iterator(std::__detail::_List_node_base const*)
PUBLIC 1d75a 0 std::_List_node<google_breakpad::AppMemory>::_M_valptr() const
PUBLIC 1d778 0 std::_List_const_iterator<google_breakpad::MappingEntry>::_List_const_iterator(std::__detail::_List_node_base const*)
PUBLIC 1d792 0 std::_List_node<google_breakpad::MappingEntry>::_M_valptr() const
PUBLIC 1d7b0 0 std::__cxx11::_List_base<google_breakpad::MappingEntry, std::allocator<google_breakpad::MappingEntry> >::_M_node_count() const
PUBLIC 1d7ce 0 google_breakpad::PageStdAllocator<unsigned char>::PageStdAllocator(google_breakpad::PageAllocator&, unsigned char*, unsigned long)
PUBLIC 1d818 0 std::allocator<unsigned char>::~allocator()
PUBLIC 1d834 0 std::allocator<unsigned char>::allocator(std::allocator<unsigned char> const&)
PUBLIC 1d85a 0 google_breakpad::wasteful_vector<unsigned char>::wasteful_vector(google_breakpad::PageStdAllocator<unsigned char>)
PUBLIC 1d880 0 std::vector<unsigned char, google_breakpad::PageStdAllocator<unsigned char> >::reserve(unsigned long)
PUBLIC 1d9b8 0 std::_Vector_base<unsigned char, google_breakpad::PageStdAllocator<unsigned char> >::_Vector_impl::~_Vector_impl()
PUBLIC 1d9d4 0 std::_Vector_base<unsigned char, google_breakpad::PageStdAllocator<unsigned char> >::~_Vector_base()
PUBLIC 1da22 0 std::_Vector_base<unsigned char, google_breakpad::PageStdAllocator<unsigned char> >::_M_get_Tp_allocator()
PUBLIC 1da30 0 void std::_Destroy<unsigned char*, google_breakpad::PageStdAllocator<unsigned char> >(unsigned char*, unsigned char*, google_breakpad::PageStdAllocator<unsigned char>&)
PUBLIC 1da76 0 __gnu_cxx::__normal_iterator<unsigned char*, std::vector<unsigned char, google_breakpad::PageStdAllocator<unsigned char> > >::__normal_iterator(unsigned char* const&)
PUBLIC 1da94 0 __gnu_cxx::__normal_iterator<unsigned char*, std::vector<unsigned char, google_breakpad::PageStdAllocator<unsigned char> > >::base() const
PUBLIC 1daa2 0 std::vector<unsigned char, google_breakpad::PageStdAllocator<unsigned char> >::cbegin() const
PUBLIC 1dad3 0 __gnu_cxx::__normal_iterator<unsigned char const*, std::vector<unsigned char, google_breakpad::PageStdAllocator<unsigned char> > >::difference_type __gnu_cxx::operator-<unsigned char const*, std::vector<unsigned char, google_breakpad::PageStdAllocator<unsigned char> > >(__gnu_cxx::__normal_iterator<unsigned char const*, std::vector<unsigned char, google_breakpad::PageStdAllocator<unsigned char> > > const&, __gnu_cxx::__normal_iterator<unsigned char const*, std::vector<unsigned char, google_breakpad::PageStdAllocator<unsigned char> > > const&)
PUBLIC 1db12 0 std::vector<unsigned char, google_breakpad::PageStdAllocator<unsigned char> >::begin()
PUBLIC 1db3c 0 __gnu_cxx::__normal_iterator<unsigned char*, std::vector<unsigned char, google_breakpad::PageStdAllocator<unsigned char> > >::operator+(long) const
PUBLIC 1db78 0 void std::vector<unsigned char, google_breakpad::PageStdAllocator<unsigned char> >::_M_insert_dispatch<unsigned char const*>(__gnu_cxx::__normal_iterator<unsigned char*, std::vector<unsigned char, google_breakpad::PageStdAllocator<unsigned char> > >, unsigned char const*, unsigned char const*, std::__false_type)
PUBLIC 1dbb6 0 std::vector<unsigned char, google_breakpad::PageStdAllocator<unsigned char> >::begin() const
PUBLIC 1dbe8 0 std::vector<unsigned char, google_breakpad::PageStdAllocator<unsigned char> >::end() const
PUBLIC 1dc19 0 bool __gnu_cxx::operator==<unsigned char const*, std::vector<unsigned char, google_breakpad::PageStdAllocator<unsigned char> > >(__gnu_cxx::__normal_iterator<unsigned char const*, std::vector<unsigned char, google_breakpad::PageStdAllocator<unsigned char> > > const&, __gnu_cxx::__normal_iterator<unsigned char const*, std::vector<unsigned char, google_breakpad::PageStdAllocator<unsigned char> > > const&)
PUBLIC 1dc56 0 google_breakpad::TypedMDRVA<MDRawExceptionStream>::Flush()
PUBLIC 1dc8a 0 google_breakpad::minidump_size<MDRawExceptionStream>::size()
PUBLIC 1dc96 0 google_breakpad::TypedMDRVA<MDRawSystemInfo>::Flush()
PUBLIC 1dcca 0 google_breakpad::minidump_size<MDRawSystemInfo>::size()
PUBLIC 1dcd6 0 google_breakpad::TypedMDRVA<MDRawLinkMap64>::Flush()
PUBLIC 1dd0a 0 google_breakpad::minidump_size<MDRawLinkMap64>::size()
PUBLIC 1dd16 0 google_breakpad::TypedMDRVA<MDRawDebug64>::Flush()
PUBLIC 1dd4a 0 google_breakpad::minidump_size<MDRawDebug64>::size()
PUBLIC 1dd56 0 google_breakpad::PageStdAllocator<char>::PageStdAllocator(google_breakpad::PageAllocator&)
PUBLIC 1dd98 0 std::vector<char, google_breakpad::PageStdAllocator<char> >::vector(google_breakpad::PageStdAllocator<char> const&)
PUBLIC 1ddbe 0 std::vector<char, google_breakpad::PageStdAllocator<char> >::reserve(unsigned long)
PUBLIC 1def6 0 std::_Vector_base<char, google_breakpad::PageStdAllocator<char> >::_Vector_impl::~_Vector_impl()
PUBLIC 1df12 0 std::_Vector_base<char, google_breakpad::PageStdAllocator<char> >::~_Vector_base()
PUBLIC 1df60 0 std::_Vector_base<char, google_breakpad::PageStdAllocator<char> >::_M_get_Tp_allocator()
PUBLIC 1df6e 0 void std::_Destroy<char*, google_breakpad::PageStdAllocator<char> >(char*, char*, google_breakpad::PageStdAllocator<char>&)
PUBLIC 1dfb4 0 std::vector<char, google_breakpad::PageStdAllocator<char> >::size() const
PUBLIC 1dfd8 0 std::vector<char, google_breakpad::PageStdAllocator<char> >::_M_default_append(unsigned long)
PUBLIC 1e1d6 0 std::vector<char, google_breakpad::PageStdAllocator<char> >::_M_erase_at_end(char*)
PUBLIC 1e21c 0 std::allocator<MDMemoryDescriptor>::allocator()
PUBLIC 1e238 0 __gnu_cxx::new_allocator<MDMemoryDescriptor>::~new_allocator()
PUBLIC 1e244 0 std::_Vector_base<MDMemoryDescriptor, google_breakpad::PageStdAllocator<MDMemoryDescriptor> >::_Vector_base(google_breakpad::PageStdAllocator<MDMemoryDescriptor> const&)
PUBLIC 1e26a 0 std::vector<MDMemoryDescriptor, google_breakpad::PageStdAllocator<MDMemoryDescriptor> >::max_size() const
PUBLIC 1e28c 0 std::vector<MDMemoryDescriptor, google_breakpad::PageStdAllocator<MDMemoryDescriptor> >::capacity() const
PUBLIC 1e2b3 0 std::move_iterator<MDMemoryDescriptor*> std::__make_move_if_noexcept_iterator<MDMemoryDescriptor, std::move_iterator<MDMemoryDescriptor*> >(MDMemoryDescriptor*)
PUBLIC 1e2d8 0 MDMemoryDescriptor* std::vector<MDMemoryDescriptor, google_breakpad::PageStdAllocator<MDMemoryDescriptor> >::_M_allocate_and_copy<std::move_iterator<MDMemoryDescriptor*> >(unsigned long, std::move_iterator<MDMemoryDescriptor*>, std::move_iterator<MDMemoryDescriptor*>)
PUBLIC 1e370 0 std::_Vector_base<MDMemoryDescriptor, google_breakpad::PageStdAllocator<MDMemoryDescriptor> >::_M_deallocate(MDMemoryDescriptor*, unsigned long)
PUBLIC 1e3a5 0 MDMemoryDescriptor* std::__addressof<MDMemoryDescriptor>(MDMemoryDescriptor&)
PUBLIC 1e3b3 0 void std::allocator_traits<google_breakpad::PageStdAllocator<MDMemoryDescriptor> >::destroy<MDMemoryDescriptor>(google_breakpad::PageStdAllocator<MDMemoryDescriptor>&, MDMemoryDescriptor*)
PUBLIC 1e3de 0 std::enable_if<std::__and_<std::allocator_traits<google_breakpad::PageStdAllocator<MDMemoryDescriptor> >::__construct_helper<MDMemoryDescriptor, MDMemoryDescriptor const&>::type>::value, void>::type std::allocator_traits<google_breakpad::PageStdAllocator<MDMemoryDescriptor> >::_S_construct<MDMemoryDescriptor, MDMemoryDescriptor const&>(google_breakpad::PageStdAllocator<MDMemoryDescriptor>&, MDMemoryDescriptor*, MDMemoryDescriptor const&)
PUBLIC 1e418 0 std::vector<MDMemoryDescriptor, google_breakpad::PageStdAllocator<MDMemoryDescriptor> >::_M_check_len(unsigned long, char const*) const
PUBLIC 1e4e2 0 std::_Vector_base<MDMemoryDescriptor, google_breakpad::PageStdAllocator<MDMemoryDescriptor> >::_M_allocate(unsigned long)
PUBLIC 1e515 0 MDMemoryDescriptor* std::__uninitialized_move_if_noexcept_a<MDMemoryDescriptor*, MDMemoryDescriptor*, google_breakpad::PageStdAllocator<MDMemoryDescriptor> >(MDMemoryDescriptor*, MDMemoryDescriptor*, MDMemoryDescriptor*, google_breakpad::PageStdAllocator<MDMemoryDescriptor>&)
PUBLIC 1e56a 0 __gnu_cxx::__aligned_membuf<google_breakpad::AppMemory>::_M_ptr() const
PUBLIC 1e584 0 __gnu_cxx::__aligned_membuf<google_breakpad::MappingEntry>::_M_ptr() const
PUBLIC 1e59e 0 std::_List_node<unsigned long>::_M_valptr() const
PUBLIC 1e5bc 0 std::allocator<unsigned char>::allocator()
PUBLIC 1e5d8 0 __gnu_cxx::new_allocator<unsigned char>::~new_allocator()
PUBLIC 1e5e4 0 __gnu_cxx::new_allocator<unsigned char>::new_allocator(__gnu_cxx::new_allocator<unsigned char> const&)
PUBLIC 1e5f4 0 std::vector<unsigned char, google_breakpad::PageStdAllocator<unsigned char> >::vector(google_breakpad::PageStdAllocator<unsigned char> const&)
PUBLIC 1e61a 0 std::vector<unsigned char, google_breakpad::PageStdAllocator<unsigned char> >::max_size() const
PUBLIC 1e63c 0 std::vector<unsigned char, google_breakpad::PageStdAllocator<unsigned char> >::capacity() const
PUBLIC 1e65f 0 std::move_iterator<unsigned char*> std::__make_move_if_noexcept_iterator<unsigned char, std::move_iterator<unsigned char*> >(unsigned char*)
PUBLIC 1e684 0 unsigned char* std::vector<unsigned char, google_breakpad::PageStdAllocator<unsigned char> >::_M_allocate_and_copy<std::move_iterator<unsigned char*> >(unsigned long, std::move_iterator<unsigned char*>, std::move_iterator<unsigned char*>)
PUBLIC 1e71c 0 std::_Vector_base<unsigned char, google_breakpad::PageStdAllocator<unsigned char> >::_M_deallocate(unsigned char*, unsigned long)
PUBLIC 1e751 0 unsigned char* std::__addressof<unsigned char>(unsigned char&)
PUBLIC 1e75f 0 void std::allocator_traits<google_breakpad::PageStdAllocator<unsigned char> >::destroy<unsigned char>(google_breakpad::PageStdAllocator<unsigned char>&, unsigned char*)
PUBLIC 1e78a 0 __gnu_cxx::__normal_iterator<unsigned char const*, std::vector<unsigned char, google_breakpad::PageStdAllocator<unsigned char> > >::__normal_iterator(unsigned char const* const&)
PUBLIC 1e7a8 0 __gnu_cxx::__normal_iterator<unsigned char const*, std::vector<unsigned char, google_breakpad::PageStdAllocator<unsigned char> > >::base() const
PUBLIC 1e7b6 0 void std::vector<unsigned char, google_breakpad::PageStdAllocator<unsigned char> >::_M_range_insert<unsigned char const*>(__gnu_cxx::__normal_iterator<unsigned char*, std::vector<unsigned char, google_breakpad::PageStdAllocator<unsigned char> > >, unsigned char const*, unsigned char const*, std::forward_iterator_tag)
PUBLIC 1eb88 0 std::_Vector_base<char, google_breakpad::PageStdAllocator<char> >::_Vector_base(google_breakpad::PageStdAllocator<char> const&)
PUBLIC 1ebae 0 std::vector<char, google_breakpad::PageStdAllocator<char> >::max_size() const
PUBLIC 1ebd0 0 std::vector<char, google_breakpad::PageStdAllocator<char> >::capacity() const
PUBLIC 1ebf3 0 std::move_iterator<char*> std::__make_move_if_noexcept_iterator<char, std::move_iterator<char*> >(char*)
PUBLIC 1ec18 0 char* std::vector<char, google_breakpad::PageStdAllocator<char> >::_M_allocate_and_copy<std::move_iterator<char*> >(unsigned long, std::move_iterator<char*>, std::move_iterator<char*>)
PUBLIC 1ecb0 0 std::_Vector_base<char, google_breakpad::PageStdAllocator<char> >::_M_deallocate(char*, unsigned long)
PUBLIC 1ece5 0 char* std::__addressof<char>(char&)
PUBLIC 1ecf3 0 void std::allocator_traits<google_breakpad::PageStdAllocator<char> >::destroy<char>(google_breakpad::PageStdAllocator<char>&, char*)
PUBLIC 1ed1e 0 char* std::__uninitialized_default_n_a<char*, unsigned long, google_breakpad::PageStdAllocator<char> >(char*, unsigned long, google_breakpad::PageStdAllocator<char>&)
PUBLIC 1edb0 0 std::vector<char, google_breakpad::PageStdAllocator<char> >::_M_check_len(unsigned long, char const*) const
PUBLIC 1ee7a 0 std::_Vector_base<char, google_breakpad::PageStdAllocator<char> >::_M_allocate(unsigned long)
PUBLIC 1eead 0 char* std::__uninitialized_move_if_noexcept_a<char*, char*, google_breakpad::PageStdAllocator<char> >(char*, char*, char*, google_breakpad::PageStdAllocator<char>&)
PUBLIC 1ef02 0 __gnu_cxx::new_allocator<MDMemoryDescriptor>::new_allocator()
PUBLIC 1ef0e 0 google_breakpad::PageStdAllocator<MDMemoryDescriptor>::PageStdAllocator(google_breakpad::PageStdAllocator<MDMemoryDescriptor> const&)
PUBLIC 1ef62 0 std::_Vector_base<MDMemoryDescriptor, google_breakpad::PageStdAllocator<MDMemoryDescriptor> >::_Vector_impl::_Vector_impl(google_breakpad::PageStdAllocator<MDMemoryDescriptor> const&)
PUBLIC 1efac 0 std::allocator_traits<google_breakpad::PageStdAllocator<MDMemoryDescriptor> >::max_size(google_breakpad::PageStdAllocator<MDMemoryDescriptor> const&)
PUBLIC 1efcc 0 std::_Vector_base<MDMemoryDescriptor, google_breakpad::PageStdAllocator<MDMemoryDescriptor> >::_M_get_Tp_allocator() const
PUBLIC 1efda 0 std::move_iterator<MDMemoryDescriptor*>::move_iterator(MDMemoryDescriptor*)
PUBLIC 1eff4 0 MDMemoryDescriptor&& std::forward<MDMemoryDescriptor>(std::remove_reference<MDMemoryDescriptor>::type&)
PUBLIC 1f002 0 MDMemoryDescriptor* std::__uninitialized_copy_a<std::move_iterator<MDMemoryDescriptor*>, MDMemoryDescriptor*, google_breakpad::PageStdAllocator<MDMemoryDescriptor> >(std::move_iterator<MDMemoryDescriptor*>, std::move_iterator<MDMemoryDescriptor*>, MDMemoryDescriptor*, google_breakpad::PageStdAllocator<MDMemoryDescriptor>&)
PUBLIC 1f0c1 0 std::allocator_traits<google_breakpad::PageStdAllocator<MDMemoryDescriptor> >::deallocate(google_breakpad::PageStdAllocator<MDMemoryDescriptor>&, MDMemoryDescriptor*, unsigned long)
PUBLIC 1f0ef 0 decltype (({parm#1}.destroy)({parm#2})) std::allocator_traits<google_breakpad::PageStdAllocator<MDMemoryDescriptor> >::_S_destroy<google_breakpad::PageStdAllocator<MDMemoryDescriptor>, MDMemoryDescriptor>(google_breakpad::PageStdAllocator<MDMemoryDescriptor>&, MDMemoryDescriptor*, int)
PUBLIC 1f118 0 void __gnu_cxx::new_allocator<MDMemoryDescriptor>::construct<MDMemoryDescriptor, MDMemoryDescriptor const&>(MDMemoryDescriptor*, MDMemoryDescriptor const&)
PUBLIC 1f16b 0 std::allocator_traits<google_breakpad::PageStdAllocator<MDMemoryDescriptor> >::allocate(google_breakpad::PageStdAllocator<MDMemoryDescriptor>&, unsigned long)
PUBLIC 1f196 0 __gnu_cxx::__aligned_membuf<google_breakpad::AppMemory>::_M_addr() const
PUBLIC 1f1a4 0 __gnu_cxx::__aligned_membuf<google_breakpad::MappingEntry>::_M_addr() const
PUBLIC 1f1b2 0 __gnu_cxx::__aligned_membuf<unsigned long>::_M_ptr() const
PUBLIC 1f1cc 0 __gnu_cxx::new_allocator<unsigned char>::new_allocator()
PUBLIC 1f1d8 0 std::_Vector_base<unsigned char, google_breakpad::PageStdAllocator<unsigned char> >::_Vector_base(google_breakpad::PageStdAllocator<unsigned char> const&)
PUBLIC 1f1fe 0 std::allocator_traits<google_breakpad::PageStdAllocator<unsigned char> >::max_size(google_breakpad::PageStdAllocator<unsigned char> const&)
PUBLIC 1f21e 0 std::_Vector_base<unsigned char, google_breakpad::PageStdAllocator<unsigned char> >::_M_get_Tp_allocator() const
PUBLIC 1f22c 0 std::move_iterator<unsigned char*>::move_iterator(unsigned char*)
PUBLIC 1f246 0 std::_Vector_base<unsigned char, google_breakpad::PageStdAllocator<unsigned char> >::_M_allocate(unsigned long)
PUBLIC 1f279 0 unsigned char&& std::forward<unsigned char>(std::remove_reference<unsigned char>::type&)
PUBLIC 1f287 0 unsigned char* std::__uninitialized_copy_a<std::move_iterator<unsigned char*>, unsigned char*, google_breakpad::PageStdAllocator<unsigned char> >(std::move_iterator<unsigned char*>, std::move_iterator<unsigned char*>, unsigned char*, google_breakpad::PageStdAllocator<unsigned char>&)
PUBLIC 1f346 0 std::allocator_traits<google_breakpad::PageStdAllocator<unsigned char> >::deallocate(google_breakpad::PageStdAllocator<unsigned char>&, unsigned char*, unsigned long)
PUBLIC 1f374 0 decltype (({parm#1}.destroy)({parm#2})) std::allocator_traits<google_breakpad::PageStdAllocator<unsigned char> >::_S_destroy<google_breakpad::PageStdAllocator<unsigned char>, unsigned char>(google_breakpad::PageStdAllocator<unsigned char>&, unsigned char*, int)
PUBLIC 1f39d 0 std::iterator_traits<unsigned char const*>::difference_type std::distance<unsigned char const*>(unsigned char const*, unsigned char const*)
PUBLIC 1f3dc 0 __gnu_cxx::__normal_iterator<unsigned char*, std::vector<unsigned char, google_breakpad::PageStdAllocator<unsigned char> > >::difference_type __gnu_cxx::operator-<unsigned char*, std::vector<unsigned char, google_breakpad::PageStdAllocator<unsigned char> > >(__gnu_cxx::__normal_iterator<unsigned char*, std::vector<unsigned char, google_breakpad::PageStdAllocator<unsigned char> > > const&, __gnu_cxx::__normal_iterator<unsigned char*, std::vector<unsigned char, google_breakpad::PageStdAllocator<unsigned char> > > const&)
PUBLIC 1f41b 0 unsigned char* std::__uninitialized_move_a<unsigned char*, unsigned char*, google_breakpad::PageStdAllocator<unsigned char> >(unsigned char*, unsigned char*, unsigned char*, google_breakpad::PageStdAllocator<unsigned char>&)
PUBLIC 1f46f 0 unsigned char* std::move_backward<unsigned char*, unsigned char*>(unsigned char*, unsigned char*, unsigned char*)
PUBLIC 1f4bb 0 __gnu_cxx::__normal_iterator<unsigned char*, std::vector<unsigned char, google_breakpad::PageStdAllocator<unsigned char> > > std::copy<unsigned char const*, __gnu_cxx::__normal_iterator<unsigned char*, std::vector<unsigned char, google_breakpad::PageStdAllocator<unsigned char> > > >(unsigned char const*, unsigned char const*, __gnu_cxx::__normal_iterator<unsigned char*, std::vector<unsigned char, google_breakpad::PageStdAllocator<unsigned char> > >)
PUBLIC 1f507 0 void std::advance<unsigned char const*, unsigned long>(unsigned char const*&, unsigned long)
PUBLIC 1f54f 0 unsigned char const& std::forward<unsigned char const&>(std::remove_reference<unsigned char const&>::type&)
PUBLIC 1f55d 0 unsigned char* std::__uninitialized_copy_a<unsigned char const*, unsigned char*, google_breakpad::PageStdAllocator<unsigned char> >(unsigned char const*, unsigned char const*, unsigned char*, google_breakpad::PageStdAllocator<unsigned char>&)
PUBLIC 1f5fa 0 std::vector<unsigned char, google_breakpad::PageStdAllocator<unsigned char> >::_M_check_len(unsigned long, char const*) const
PUBLIC 1f6c3 0 unsigned char* std::__uninitialized_move_if_noexcept_a<unsigned char*, unsigned char*, google_breakpad::PageStdAllocator<unsigned char> >(unsigned char*, unsigned char*, unsigned char*, google_breakpad::PageStdAllocator<unsigned char>&)
PUBLIC 1f718 0 google_breakpad::PageStdAllocator<char>::PageStdAllocator(google_breakpad::PageStdAllocator<char> const&)
PUBLIC 1f76c 0 std::_Vector_base<char, google_breakpad::PageStdAllocator<char> >::_Vector_impl::_Vector_impl(google_breakpad::PageStdAllocator<char> const&)
PUBLIC 1f7b6 0 std::allocator_traits<google_breakpad::PageStdAllocator<char> >::max_size(google_breakpad::PageStdAllocator<char> const&)
PUBLIC 1f7d6 0 std::_Vector_base<char, google_breakpad::PageStdAllocator<char> >::_M_get_Tp_allocator() const
PUBLIC 1f7e4 0 std::move_iterator<char*>::move_iterator(char*)
PUBLIC 1f7fe 0 char&& std::forward<char>(std::remove_reference<char>::type&)
PUBLIC 1f80c 0 char* std::__uninitialized_copy_a<std::move_iterator<char*>, char*, google_breakpad::PageStdAllocator<char> >(std::move_iterator<char*>, std::move_iterator<char*>, char*, google_breakpad::PageStdAllocator<char>&)
PUBLIC 1f8cb 0 std::allocator_traits<google_breakpad::PageStdAllocator<char> >::deallocate(google_breakpad::PageStdAllocator<char>&, char*, unsigned long)
PUBLIC 1f8f9 0 decltype (({parm#1}.destroy)({parm#2})) std::allocator_traits<google_breakpad::PageStdAllocator<char> >::_S_destroy<google_breakpad::PageStdAllocator<char>, char>(google_breakpad::PageStdAllocator<char>&, char*, int)
PUBLIC 1f922 0 decltype (_S_construct({parm#1}, {parm#2})) std::allocator_traits<google_breakpad::PageStdAllocator<char> >::construct<char>(google_breakpad::PageStdAllocator<char>&, char*)
PUBLIC 1f948 0 std::allocator_traits<google_breakpad::PageStdAllocator<char> >::allocate(google_breakpad::PageStdAllocator<char>&, unsigned long)
PUBLIC 1f972 0 std::allocator<MDMemoryDescriptor>::allocator(std::allocator<MDMemoryDescriptor> const&)
PUBLIC 1f998 0 decltype (({parm#1}.max_size)()) std::allocator_traits<google_breakpad::PageStdAllocator<MDMemoryDescriptor> >::_S_max_size<google_breakpad::PageStdAllocator<MDMemoryDescriptor> const>(google_breakpad::PageStdAllocator<MDMemoryDescriptor> const&, int)
PUBLIC 1f9b5 0 bool std::operator!=<MDMemoryDescriptor*>(std::move_iterator<MDMemoryDescriptor*> const&, std::move_iterator<MDMemoryDescriptor*> const&)
PUBLIC 1f9de 0 std::move_iterator<MDMemoryDescriptor*>::operator++()
PUBLIC 1f9fe 0 std::move_iterator<MDMemoryDescriptor*>::operator*() const
PUBLIC 1fa0f 0 decltype (_S_construct({parm#1}, {parm#2}, (forward<MDMemoryDescriptor>)({parm#3}))) std::allocator_traits<google_breakpad::PageStdAllocator<MDMemoryDescriptor> >::construct<MDMemoryDescriptor, MDMemoryDescriptor>(google_breakpad::PageStdAllocator<MDMemoryDescriptor>&, MDMemoryDescriptor*, MDMemoryDescriptor&&)
PUBLIC 1fa48 0 google_breakpad::PageStdAllocator<MDMemoryDescriptor>::deallocate(MDMemoryDescriptor*, unsigned long)
PUBLIC 1fa5c 0 void __gnu_cxx::new_allocator<MDMemoryDescriptor>::destroy<MDMemoryDescriptor>(MDMemoryDescriptor*)
PUBLIC 1fa6c 0 google_breakpad::PageStdAllocator<MDMemoryDescriptor>::allocate(unsigned long, void const*)
PUBLIC 1fabc 0 __gnu_cxx::__aligned_membuf<unsigned long>::_M_addr() const
PUBLIC 1faca 0 google_breakpad::PageStdAllocator<unsigned char>::PageStdAllocator(google_breakpad::PageStdAllocator<unsigned char> const&)
PUBLIC 1fb1e 0 std::_Vector_base<unsigned char, google_breakpad::PageStdAllocator<unsigned char> >::_Vector_impl::_Vector_impl(google_breakpad::PageStdAllocator<unsigned char> const&)
PUBLIC 1fb68 0 decltype (({parm#1}.max_size)()) std::allocator_traits<google_breakpad::PageStdAllocator<unsigned char> >::_S_max_size<google_breakpad::PageStdAllocator<unsigned char> const>(google_breakpad::PageStdAllocator<unsigned char> const&, int)
PUBLIC 1fb85 0 std::allocator_traits<google_breakpad::PageStdAllocator<unsigned char> >::allocate(google_breakpad::PageStdAllocator<unsigned char>&, unsigned long)
PUBLIC 1fbaf 0 bool std::operator!=<unsigned char*>(std::move_iterator<unsigned char*> const&, std::move_iterator<unsigned char*> const&)
PUBLIC 1fbd8 0 std::move_iterator<unsigned char*>::operator++()
PUBLIC 1fbf8 0 std::move_iterator<unsigned char*>::operator*() const
PUBLIC 1fc09 0 decltype (_S_construct({parm#1}, {parm#2}, (forward<unsigned char>)({parm#3}))) std::allocator_traits<google_breakpad::PageStdAllocator<unsigned char> >::construct<unsigned char, unsigned char>(google_breakpad::PageStdAllocator<unsigned char>&, unsigned char*, unsigned char&&)
PUBLIC 1fc42 0 google_breakpad::PageStdAllocator<unsigned char>::deallocate(unsigned char*, unsigned long)
PUBLIC 1fc56 0 void __gnu_cxx::new_allocator<unsigned char>::destroy<unsigned char>(unsigned char*)
PUBLIC 1fc65 0 std::iterator_traits<unsigned char const*>::iterator_category std::__iterator_category<unsigned char const*>(unsigned char const* const&)
PUBLIC 1fc6f 0 std::iterator_traits<unsigned char const*>::difference_type std::__distance<unsigned char const*>(unsigned char const*, unsigned char const*, std::random_access_iterator_tag)
PUBLIC 1fc8b 0 std::move_iterator<unsigned char*> std::make_move_iterator<unsigned char*>(unsigned char*)
PUBLIC 1fcb0 0 unsigned char* std::__miter_base<unsigned char*>(unsigned char*)
PUBLIC 1fcbe 0 unsigned char* std::__copy_move_backward_a2<true, unsigned char*, unsigned char*>(unsigned char*, unsigned char*, unsigned char*)
PUBLIC 1fd16 0 unsigned char const* std::__miter_base<unsigned char const*>(unsigned char const*)
PUBLIC 1fd24 0 __gnu_cxx::__normal_iterator<unsigned char*, std::vector<unsigned char, google_breakpad::PageStdAllocator<unsigned char> > > std::__copy_move_a2<false, unsigned char const*, __gnu_cxx::__normal_iterator<unsigned char*, std::vector<unsigned char, google_breakpad::PageStdAllocator<unsigned char> > > >(unsigned char const*, unsigned char const*, __gnu_cxx::__normal_iterator<unsigned char*, std::vector<unsigned char, google_breakpad::PageStdAllocator<unsigned char> > >)
PUBLIC 1fd97 0 void std::__advance<unsigned char const*, long>(unsigned char const*&, long, std::random_access_iterator_tag)
PUBLIC 1fdbb 0 decltype (_S_construct({parm#1}, {parm#2}, (forward<unsigned char const&>)({parm#3}))) std::allocator_traits<google_breakpad::PageStdAllocator<unsigned char> >::construct<unsigned char, unsigned char const&>(google_breakpad::PageStdAllocator<unsigned char>&, unsigned char*, unsigned char const&)
PUBLIC 1fdf4 0 decltype (({parm#1}.max_size)()) std::allocator_traits<google_breakpad::PageStdAllocator<char> >::_S_max_size<google_breakpad::PageStdAllocator<char> const>(google_breakpad::PageStdAllocator<char> const&, int)
PUBLIC 1fe11 0 bool std::operator!=<char*>(std::move_iterator<char*> const&, std::move_iterator<char*> const&)
PUBLIC 1fe3a 0 std::move_iterator<char*>::operator++()
PUBLIC 1fe5a 0 std::move_iterator<char*>::operator*() const
PUBLIC 1fe6b 0 decltype (_S_construct({parm#1}, {parm#2}, (forward<char>)({parm#3}))) std::allocator_traits<google_breakpad::PageStdAllocator<char> >::construct<char, char>(google_breakpad::PageStdAllocator<char>&, char*, char&&)
PUBLIC 1fea4 0 google_breakpad::PageStdAllocator<char>::deallocate(char*, unsigned long)
PUBLIC 1feb8 0 void __gnu_cxx::new_allocator<char>::destroy<char>(char*)
PUBLIC 1fec7 0 std::enable_if<std::__and_<std::allocator_traits<google_breakpad::PageStdAllocator<char> >::__construct_helper<char>::type>::value, void>::type std::allocator_traits<google_breakpad::PageStdAllocator<char> >::_S_construct<char>(google_breakpad::PageStdAllocator<char>&, char*)
PUBLIC 1feee 0 google_breakpad::PageStdAllocator<char>::allocate(unsigned long, void const*)
PUBLIC 1ff3a 0 __gnu_cxx::new_allocator<MDMemoryDescriptor>::new_allocator(__gnu_cxx::new_allocator<MDMemoryDescriptor> const&)
PUBLIC 1ff4a 0 __gnu_cxx::new_allocator<MDMemoryDescriptor>::max_size() const
PUBLIC 1ff5e 0 bool std::operator==<MDMemoryDescriptor*>(std::move_iterator<MDMemoryDescriptor*> const&, std::move_iterator<MDMemoryDescriptor*> const&)
PUBLIC 1ff97 0 std::enable_if<std::__and_<std::allocator_traits<google_breakpad::PageStdAllocator<MDMemoryDescriptor> >::__construct_helper<MDMemoryDescriptor, MDMemoryDescriptor>::type>::value, void>::type std::allocator_traits<google_breakpad::PageStdAllocator<MDMemoryDescriptor> >::_S_construct<MDMemoryDescriptor, MDMemoryDescriptor>(google_breakpad::PageStdAllocator<MDMemoryDescriptor>&, MDMemoryDescriptor*, MDMemoryDescriptor&&)
PUBLIC 1ffd0 0 __gnu_cxx::new_allocator<unsigned char>::max_size() const
PUBLIC 1ffe2 0 google_breakpad::PageStdAllocator<unsigned char>::allocate(unsigned long, void const*)
PUBLIC 2002e 0 bool std::operator==<unsigned char*>(std::move_iterator<unsigned char*> const&, std::move_iterator<unsigned char*> const&)
PUBLIC 20067 0 std::enable_if<std::__and_<std::allocator_traits<google_breakpad::PageStdAllocator<unsigned char> >::__construct_helper<unsigned char, unsigned char>::type>::value, void>::type std::allocator_traits<google_breakpad::PageStdAllocator<unsigned char> >::_S_construct<unsigned char, unsigned char>(google_breakpad::PageStdAllocator<unsigned char>&, unsigned char*, unsigned char&&)
PUBLIC 200a0 0 unsigned char* std::__niter_base<unsigned char*>(unsigned char*)
PUBLIC 200ae 0 unsigned char* std::__copy_move_backward_a<true, unsigned char*, unsigned char*>(unsigned char*, unsigned char*, unsigned char*)
PUBLIC 200df 0 unsigned char const* std::__niter_base<unsigned char const*>(unsigned char const*)
PUBLIC 200ed 0 unsigned char* std::__niter_base<unsigned char*, std::vector<unsigned char, google_breakpad::PageStdAllocator<unsigned char> > >(__gnu_cxx::__normal_iterator<unsigned char*, std::vector<unsigned char, google_breakpad::PageStdAllocator<unsigned char> > >)
PUBLIC 2010a 0 unsigned char* std::__copy_move_a<false, unsigned char const*, unsigned char*>(unsigned char const*, unsigned char const*, unsigned char*)
PUBLIC 2013b 0 std::enable_if<std::__and_<std::allocator_traits<google_breakpad::PageStdAllocator<unsigned char> >::__construct_helper<unsigned char, unsigned char const&>::type>::value, void>::type std::allocator_traits<google_breakpad::PageStdAllocator<unsigned char> >::_S_construct<unsigned char, unsigned char const&>(google_breakpad::PageStdAllocator<unsigned char>&, unsigned char*, unsigned char const&)
PUBLIC 20174 0 __gnu_cxx::new_allocator<char>::max_size() const
PUBLIC 20185 0 bool std::operator==<char*>(std::move_iterator<char*> const&, std::move_iterator<char*> const&)
PUBLIC 201be 0 std::enable_if<std::__and_<std::allocator_traits<google_breakpad::PageStdAllocator<char> >::__construct_helper<char, char>::type>::value, void>::type std::allocator_traits<google_breakpad::PageStdAllocator<char> >::_S_construct<char, char>(google_breakpad::PageStdAllocator<char>&, char*, char&&)
PUBLIC 201f8 0 void __gnu_cxx::new_allocator<char>::construct<char>(char*)
PUBLIC 20224 0 std::move_iterator<MDMemoryDescriptor*>::base() const
PUBLIC 20236 0 void __gnu_cxx::new_allocator<MDMemoryDescriptor>::construct<MDMemoryDescriptor, MDMemoryDescriptor>(MDMemoryDescriptor*, MDMemoryDescriptor&&)
PUBLIC 2028a 0 std::move_iterator<unsigned char*>::base() const
PUBLIC 2029c 0 void __gnu_cxx::new_allocator<unsigned char>::construct<unsigned char, unsigned char>(unsigned char*, unsigned char&&)
PUBLIC 202e0 0 unsigned char* std::__copy_move_backward<true, true, std::random_access_iterator_tag>::__copy_move_b<unsigned char>(unsigned char const*, unsigned char const*, unsigned char*)
PUBLIC 20344 0 unsigned char* std::__copy_move<false, true, std::random_access_iterator_tag>::__copy_m<unsigned char>(unsigned char const*, unsigned char const*, unsigned char*)
PUBLIC 20396 0 void __gnu_cxx::new_allocator<unsigned char>::construct<unsigned char, unsigned char const&>(unsigned char*, unsigned char const&)
PUBLIC 203da 0 std::move_iterator<char*>::base() const
PUBLIC 203ec 0 void __gnu_cxx::new_allocator<char>::construct<char, char>(char*, char&&)
PUBLIC 20430 0 google_breakpad::LinuxPtraceDumper::~LinuxPtraceDumper()
PUBLIC 2045e 0 google_breakpad::LinuxPtraceDumper::~LinuxPtraceDumper()
PUBLIC 2048a 0 sys_close
PUBLIC 204d3 0 sys_getpid
PUBLIC 20510 0 sys_munmap
PUBLIC 20563 0 sys_open
PUBLIC 205bd 0 sys_read
PUBLIC 20616 0 sys_stat
PUBLIC 2066c 0 sys_mmap
PUBLIC 206fa 0 IsMappedFileOpenUnsafe(google_breakpad::MappingInfo const&)
PUBLIC 20729 0 google_breakpad::(anonymous namespace)::MappingContainsAddress(google_breakpad::MappingInfo const&, unsigned long)
PUBLIC 20760 0 google_breakpad::LinuxDumper::LinuxDumper(int, char const*)
PUBLIC 20902 0 google_breakpad::LinuxDumper::~LinuxDumper()
PUBLIC 20968 0 google_breakpad::LinuxDumper::~LinuxDumper()
PUBLIC 20994 0 google_breakpad::LinuxDumper::Init()
PUBLIC 209f4 0 google_breakpad::LinuxDumper::LateInit()
PUBLIC 20a04 0 google_breakpad::LinuxDumper::ElfFileIdentifierForMapping(google_breakpad::MappingInfo const&, bool, unsigned int, google_breakpad::wasteful_vector<unsigned char>&)
PUBLIC 20ce6 0 google_breakpad::LinuxDumper::SetCrashInfoFromSigInfo(siginfo_t const&)
PUBLIC 20d3c 0 google_breakpad::LinuxDumper::GetCrashSignalString() const
PUBLIC 20fe4 0 google_breakpad::LinuxDumper::GetMappingAbsolutePath(google_breakpad::MappingInfo const&, char*) const
PUBLIC 2104e 0 google_breakpad::(anonymous namespace)::ElfFileSoNameFromMappedFile(void const*, char*, unsigned long)
PUBLIC 211bd 0 google_breakpad::(anonymous namespace)::ElfFileSoName(google_breakpad::LinuxDumper const&, google_breakpad::MappingInfo const&, char*, unsigned long)
PUBLIC 212fe 0 google_breakpad::LinuxDumper::GetMappingEffectiveNameAndPath(google_breakpad::MappingInfo const&, char*, unsigned long, char*, unsigned long)
PUBLIC 21422 0 google_breakpad::LinuxDumper::ReadAuxv()
PUBLIC 21532 0 google_breakpad::LinuxDumper::EnumerateMappings()
PUBLIC 21ae8 0 google_breakpad::LinuxDumper::GetStackInfo(void const**, unsigned long*, unsigned long)
PUBLIC 21b92 0 google_breakpad::LinuxDumper::SanitizeStackCopy(unsigned char*, unsigned long, unsigned long, unsigned long)
PUBLIC 21f3a 0 google_breakpad::LinuxDumper::StackHasPointerToMapping(unsigned char const*, unsigned long, unsigned long, google_breakpad::MappingInfo const&)
PUBLIC 21fd2 0 google_breakpad::LinuxDumper::FindMapping(void const*) const
PUBLIC 220b8 0 google_breakpad::LinuxDumper::FindMappingNoBias(unsigned long) const
PUBLIC 22180 0 google_breakpad::LinuxDumper::HandleDeletedFileInMapping(char*) const
PUBLIC 223b2 0 google_breakpad::LinuxDumper::set_crash_signal_code(int)
PUBLIC 223ca 0 google_breakpad::MemoryRange::data() const
PUBLIC 223dc 0 google_breakpad::MemoryRange::length() const
PUBLIC 223ee 0 google_breakpad::MemoryMappedFile::data() const
PUBLIC 22408 0 google_breakpad::MemoryMappedFile::size() const
PUBLIC 22422 0 google_breakpad::wasteful_vector<int>::~wasteful_vector()
PUBLIC 2243e 0 google_breakpad::wasteful_vector<google_breakpad::MappingInfo*>::~wasteful_vector()
PUBLIC 2245a 0 google_breakpad::wasteful_vector<unsigned long>::~wasteful_vector()
PUBLIC 22476 0 google_breakpad::PageStdAllocator<int>::~PageStdAllocator()
PUBLIC 22492 0 google_breakpad::wasteful_vector<int>::wasteful_vector(google_breakpad::PageAllocator*, unsigned int)
PUBLIC 2250e 0 std::vector<int, google_breakpad::PageStdAllocator<int> >::~vector()
PUBLIC 22554 0 google_breakpad::PageStdAllocator<google_breakpad::MappingInfo*>::~PageStdAllocator()
PUBLIC 22570 0 google_breakpad::wasteful_vector<google_breakpad::MappingInfo*>::wasteful_vector(google_breakpad::PageAllocator*, unsigned int)
PUBLIC 225ec 0 std::vector<google_breakpad::MappingInfo*, google_breakpad::PageStdAllocator<google_breakpad::MappingInfo*> >::~vector()
PUBLIC 22632 0 google_breakpad::PageStdAllocator<unsigned long>::~PageStdAllocator()
PUBLIC 2264e 0 google_breakpad::wasteful_vector<unsigned long>::wasteful_vector(google_breakpad::PageAllocator*, unsigned int)
PUBLIC 226ca 0 std::vector<unsigned long, google_breakpad::PageStdAllocator<unsigned long> >::~vector()
PUBLIC 22710 0 std::vector<unsigned long, google_breakpad::PageStdAllocator<unsigned long> >::resize(unsigned long)
PUBLIC 2279e 0 std::vector<google_breakpad::MappingInfo*, google_breakpad::PageStdAllocator<google_breakpad::MappingInfo*> >::operator[](unsigned long)
PUBLIC 227c0 0 std::vector<unsigned long, google_breakpad::PageStdAllocator<unsigned long> >::operator[](unsigned long)
PUBLIC 227e2 0 std::vector<google_breakpad::MappingInfo*, google_breakpad::PageStdAllocator<google_breakpad::MappingInfo*> >::empty() const
PUBLIC 22824 0 std::vector<google_breakpad::MappingInfo*, google_breakpad::PageStdAllocator<google_breakpad::MappingInfo*> >::back()
PUBLIC 22863 0 google_breakpad::MappingInfo* const& std::forward<google_breakpad::MappingInfo* const&>(std::remove_reference<google_breakpad::MappingInfo* const&>::type&)
PUBLIC 22872 0 std::vector<google_breakpad::MappingInfo*, google_breakpad::PageStdAllocator<google_breakpad::MappingInfo*> >::push_back(google_breakpad::MappingInfo* const&)
PUBLIC 228de 0 bool google_breakpad::SafeReadLink<255ul>(char const*, char (&) [255ul])
PUBLIC 22908 0 google_breakpad::PageStdAllocator<int>::PageStdAllocator(google_breakpad::PageAllocator&)
PUBLIC 2294a 0 std::allocator<int>::~allocator()
PUBLIC 22966 0 std::vector<int, google_breakpad::PageStdAllocator<int> >::vector(google_breakpad::PageStdAllocator<int> const&)
PUBLIC 2298c 0 std::vector<int, google_breakpad::PageStdAllocator<int> >::reserve(unsigned long)
PUBLIC 22ad4 0 std::_Vector_base<int, google_breakpad::PageStdAllocator<int> >::_Vector_impl::~_Vector_impl()
PUBLIC 22af0 0 std::_Vector_base<int, google_breakpad::PageStdAllocator<int> >::~_Vector_base()
PUBLIC 22b42 0 std::_Vector_base<int, google_breakpad::PageStdAllocator<int> >::_M_get_Tp_allocator()
PUBLIC 22b50 0 void std::_Destroy<int*, google_breakpad::PageStdAllocator<int> >(int*, int*, google_breakpad::PageStdAllocator<int>&)
PUBLIC 22b96 0 google_breakpad::PageStdAllocator<google_breakpad::MappingInfo*>::PageStdAllocator(google_breakpad::PageAllocator&)
PUBLIC 22bd8 0 std::allocator<google_breakpad::MappingInfo*>::~allocator()
PUBLIC 22bf4 0 std::vector<google_breakpad::MappingInfo*, google_breakpad::PageStdAllocator<google_breakpad::MappingInfo*> >::vector(google_breakpad::PageStdAllocator<google_breakpad::MappingInfo*> const&)
PUBLIC 22c1a 0 std::vector<google_breakpad::MappingInfo*, google_breakpad::PageStdAllocator<google_breakpad::MappingInfo*> >::reserve(unsigned long)
PUBLIC 22d62 0 std::_Vector_base<google_breakpad::MappingInfo*, google_breakpad::PageStdAllocator<google_breakpad::MappingInfo*> >::_Vector_impl::~_Vector_impl()
PUBLIC 22d7e 0 std::_Vector_base<google_breakpad::MappingInfo*, google_breakpad::PageStdAllocator<google_breakpad::MappingInfo*> >::~_Vector_base()
PUBLIC 22dd0 0 std::_Vector_base<google_breakpad::MappingInfo*, google_breakpad::PageStdAllocator<google_breakpad::MappingInfo*> >::_M_get_Tp_allocator()
PUBLIC 22dde 0 void std::_Destroy<google_breakpad::MappingInfo**, google_breakpad::PageStdAllocator<google_breakpad::MappingInfo*> >(google_breakpad::MappingInfo**, google_breakpad::MappingInfo**, google_breakpad::PageStdAllocator<google_breakpad::MappingInfo*>&)
PUBLIC 22e24 0 google_breakpad::PageStdAllocator<unsigned long>::PageStdAllocator(google_breakpad::PageAllocator&)
PUBLIC 22e66 0 std::allocator<unsigned long>::~allocator()
PUBLIC 22e82 0 std::vector<unsigned long, google_breakpad::PageStdAllocator<unsigned long> >::vector(google_breakpad::PageStdAllocator<unsigned long> const&)
PUBLIC 22ea8 0 std::vector<unsigned long, google_breakpad::PageStdAllocator<unsigned long> >::reserve(unsigned long)
PUBLIC 22ff0 0 std::_Vector_base<unsigned long, google_breakpad::PageStdAllocator<unsigned long> >::_Vector_impl::~_Vector_impl()
PUBLIC 2300c 0 std::_Vector_base<unsigned long, google_breakpad::PageStdAllocator<unsigned long> >::~_Vector_base()
PUBLIC 2305e 0 std::_Vector_base<unsigned long, google_breakpad::PageStdAllocator<unsigned long> >::_M_get_Tp_allocator()
PUBLIC 2306c 0 void std::_Destroy<unsigned long*, google_breakpad::PageStdAllocator<unsigned long> >(unsigned long*, unsigned long*, google_breakpad::PageStdAllocator<unsigned long>&)
PUBLIC 230b2 0 std::vector<unsigned long, google_breakpad::PageStdAllocator<unsigned long> >::size() const
PUBLIC 230da 0 std::vector<unsigned long, google_breakpad::PageStdAllocator<unsigned long> >::_M_default_append(unsigned long)
PUBLIC 232e8 0 std::vector<unsigned long, google_breakpad::PageStdAllocator<unsigned long> >::_M_erase_at_end(unsigned long*)
PUBLIC 2332e 0 std::vector<google_breakpad::MappingInfo*, google_breakpad::PageStdAllocator<google_breakpad::MappingInfo*> >::begin() const
PUBLIC 23360 0 std::vector<google_breakpad::MappingInfo*, google_breakpad::PageStdAllocator<google_breakpad::MappingInfo*> >::end() const
PUBLIC 23391 0 bool __gnu_cxx::operator==<google_breakpad::MappingInfo* const*, std::vector<google_breakpad::MappingInfo*, google_breakpad::PageStdAllocator<google_breakpad::MappingInfo*> > >(__gnu_cxx::__normal_iterator<google_breakpad::MappingInfo* const*, std::vector<google_breakpad::MappingInfo*, google_breakpad::PageStdAllocator<google_breakpad::MappingInfo*> > > const&, __gnu_cxx::__normal_iterator<google_breakpad::MappingInfo* const*, std::vector<google_breakpad::MappingInfo*, google_breakpad::PageStdAllocator<google_breakpad::MappingInfo*> > > const&)
PUBLIC 233ce 0 std::vector<google_breakpad::MappingInfo*, google_breakpad::PageStdAllocator<google_breakpad::MappingInfo*> >::end()
PUBLIC 233f8 0 __gnu_cxx::__normal_iterator<google_breakpad::MappingInfo**, std::vector<google_breakpad::MappingInfo*, google_breakpad::PageStdAllocator<google_breakpad::MappingInfo*> > >::operator-(long) const
PUBLIC 2343a 0 __gnu_cxx::__normal_iterator<google_breakpad::MappingInfo**, std::vector<google_breakpad::MappingInfo*, google_breakpad::PageStdAllocator<google_breakpad::MappingInfo*> > >::operator*() const
PUBLIC 2344b 0 decltype (_S_construct({parm#1}, {parm#2}, (forward<google_breakpad::MappingInfo* const&>)({parm#3}))) std::allocator_traits<google_breakpad::PageStdAllocator<google_breakpad::MappingInfo*> >::construct<google_breakpad::MappingInfo*, google_breakpad::MappingInfo* const&>(google_breakpad::PageStdAllocator<google_breakpad::MappingInfo*>&, google_breakpad::MappingInfo**, google_breakpad::MappingInfo* const&)
PUBLIC 23484 0 void std::vector<google_breakpad::MappingInfo*, google_breakpad::PageStdAllocator<google_breakpad::MappingInfo*> >::_M_emplace_back_aux<google_breakpad::MappingInfo* const&>(google_breakpad::MappingInfo* const&)
PUBLIC 23676 0 std::allocator<int>::allocator()
PUBLIC 23692 0 __gnu_cxx::new_allocator<int>::~new_allocator()
PUBLIC 2369e 0 std::_Vector_base<int, google_breakpad::PageStdAllocator<int> >::_Vector_base(google_breakpad::PageStdAllocator<int> const&)
PUBLIC 236c4 0 std::vector<int, google_breakpad::PageStdAllocator<int> >::max_size() const
PUBLIC 236e6 0 std::vector<int, google_breakpad::PageStdAllocator<int> >::capacity() const
PUBLIC 2370d 0 std::move_iterator<int*> std::__make_move_if_noexcept_iterator<int, std::move_iterator<int*> >(int*)
PUBLIC 23732 0 int* std::vector<int, google_breakpad::PageStdAllocator<int> >::_M_allocate_and_copy<std::move_iterator<int*> >(unsigned long, std::move_iterator<int*>, std::move_iterator<int*>)
PUBLIC 237ca 0 std::_Vector_base<int, google_breakpad::PageStdAllocator<int> >::_M_deallocate(int*, unsigned long)
PUBLIC 237ff 0 int* std::__addressof<int>(int&)
PUBLIC 2380d 0 void std::allocator_traits<google_breakpad::PageStdAllocator<int> >::destroy<int>(google_breakpad::PageStdAllocator<int>&, int*)
PUBLIC 23838 0 std::allocator<google_breakpad::MappingInfo*>::allocator()
PUBLIC 23854 0 __gnu_cxx::new_allocator<google_breakpad::MappingInfo*>::~new_allocator()
PUBLIC 23860 0 std::_Vector_base<google_breakpad::MappingInfo*, google_breakpad::PageStdAllocator<google_breakpad::MappingInfo*> >::_Vector_base(google_breakpad::PageStdAllocator<google_breakpad::MappingInfo*> const&)
PUBLIC 23886 0 std::vector<google_breakpad::MappingInfo*, google_breakpad::PageStdAllocator<google_breakpad::MappingInfo*> >::max_size() const
PUBLIC 238a8 0 std::vector<google_breakpad::MappingInfo*, google_breakpad::PageStdAllocator<google_breakpad::MappingInfo*> >::capacity() const
PUBLIC 238cf 0 std::move_iterator<google_breakpad::MappingInfo**> std::__make_move_if_noexcept_iterator<google_breakpad::MappingInfo*, std::move_iterator<google_breakpad::MappingInfo**> >(google_breakpad::MappingInfo**)
PUBLIC 238f4 0 google_breakpad::MappingInfo** std::vector<google_breakpad::MappingInfo*, google_breakpad::PageStdAllocator<google_breakpad::MappingInfo*> >::_M_allocate_and_copy<std::move_iterator<google_breakpad::MappingInfo**> >(unsigned long, std::move_iterator<google_breakpad::MappingInfo**>, std::move_iterator<google_breakpad::MappingInfo**>)
PUBLIC 2398c 0 std::_Vector_base<google_breakpad::MappingInfo*, google_breakpad::PageStdAllocator<google_breakpad::MappingInfo*> >::_M_deallocate(google_breakpad::MappingInfo**, unsigned long)
PUBLIC 239c1 0 google_breakpad::MappingInfo** std::__addressof<google_breakpad::MappingInfo*>(google_breakpad::MappingInfo*&)
PUBLIC 239cf 0 void std::allocator_traits<google_breakpad::PageStdAllocator<google_breakpad::MappingInfo*> >::destroy<google_breakpad::MappingInfo*>(google_breakpad::PageStdAllocator<google_breakpad::MappingInfo*>&, google_breakpad::MappingInfo**)
PUBLIC 239fa 0 std::allocator<unsigned long>::allocator()
PUBLIC 23a16 0 __gnu_cxx::new_allocator<unsigned long>::~new_allocator()
PUBLIC 23a22 0 std::_Vector_base<unsigned long, google_breakpad::PageStdAllocator<unsigned long> >::_Vector_base(google_breakpad::PageStdAllocator<unsigned long> const&)
PUBLIC 23a48 0 std::vector<unsigned long, google_breakpad::PageStdAllocator<unsigned long> >::max_size() const
PUBLIC 23a6a 0 std::vector<unsigned long, google_breakpad::PageStdAllocator<unsigned long> >::capacity() const
PUBLIC 23a91 0 std::move_iterator<unsigned long*> std::__make_move_if_noexcept_iterator<unsigned long, std::move_iterator<unsigned long*> >(unsigned long*)
PUBLIC 23ab6 0 unsigned long* std::vector<unsigned long, google_breakpad::PageStdAllocator<unsigned long> >::_M_allocate_and_copy<std::move_iterator<unsigned long*> >(unsigned long, std::move_iterator<unsigned long*>, std::move_iterator<unsigned long*>)
PUBLIC 23b4e 0 std::_Vector_base<unsigned long, google_breakpad::PageStdAllocator<unsigned long> >::_M_deallocate(unsigned long*, unsigned long)
PUBLIC 23b83 0 unsigned long* std::__addressof<unsigned long>(unsigned long&)
PUBLIC 23b91 0 void std::allocator_traits<google_breakpad::PageStdAllocator<unsigned long> >::destroy<unsigned long>(google_breakpad::PageStdAllocator<unsigned long>&, unsigned long*)
PUBLIC 23bbc 0 unsigned long* std::__uninitialized_default_n_a<unsigned long*, unsigned long, google_breakpad::PageStdAllocator<unsigned long> >(unsigned long*, unsigned long, google_breakpad::PageStdAllocator<unsigned long>&)
PUBLIC 23c4e 0 std::vector<unsigned long, google_breakpad::PageStdAllocator<unsigned long> >::_M_check_len(unsigned long, char const*) const
PUBLIC 23d18 0 std::_Vector_base<unsigned long, google_breakpad::PageStdAllocator<unsigned long> >::_M_allocate(unsigned long)
PUBLIC 23d4b 0 unsigned long* std::__uninitialized_move_if_noexcept_a<unsigned long*, unsigned long*, google_breakpad::PageStdAllocator<unsigned long> >(unsigned long*, unsigned long*, unsigned long*, google_breakpad::PageStdAllocator<unsigned long>&)
PUBLIC 23da0 0 __gnu_cxx::__normal_iterator<google_breakpad::MappingInfo* const*, std::vector<google_breakpad::MappingInfo*, google_breakpad::PageStdAllocator<google_breakpad::MappingInfo*> > >::__normal_iterator(google_breakpad::MappingInfo* const* const&)
PUBLIC 23dbe 0 __gnu_cxx::__normal_iterator<google_breakpad::MappingInfo* const*, std::vector<google_breakpad::MappingInfo*, google_breakpad::PageStdAllocator<google_breakpad::MappingInfo*> > >::base() const
PUBLIC 23dcc 0 __gnu_cxx::__normal_iterator<google_breakpad::MappingInfo**, std::vector<google_breakpad::MappingInfo*, google_breakpad::PageStdAllocator<google_breakpad::MappingInfo*> > >::__normal_iterator(google_breakpad::MappingInfo** const&)
PUBLIC 23de9 0 std::enable_if<std::__and_<std::allocator_traits<google_breakpad::PageStdAllocator<google_breakpad::MappingInfo*> >::__construct_helper<google_breakpad::MappingInfo*, google_breakpad::MappingInfo* const&>::type>::value, void>::type std::allocator_traits<google_breakpad::PageStdAllocator<google_breakpad::MappingInfo*> >::_S_construct<google_breakpad::MappingInfo*, google_breakpad::MappingInfo* const&>(google_breakpad::PageStdAllocator<google_breakpad::MappingInfo*>&, google_breakpad::MappingInfo**, google_breakpad::MappingInfo* const&)
PUBLIC 23e22 0 std::vector<google_breakpad::MappingInfo*, google_breakpad::PageStdAllocator<google_breakpad::MappingInfo*> >::_M_check_len(unsigned long, char const*) const
PUBLIC 23eec 0 std::_Vector_base<google_breakpad::MappingInfo*, google_breakpad::PageStdAllocator<google_breakpad::MappingInfo*> >::_M_allocate(unsigned long)
PUBLIC 23f1f 0 google_breakpad::MappingInfo** std::__uninitialized_move_if_noexcept_a<google_breakpad::MappingInfo**, google_breakpad::MappingInfo**, google_breakpad::PageStdAllocator<google_breakpad::MappingInfo*> >(google_breakpad::MappingInfo**, google_breakpad::MappingInfo**, google_breakpad::MappingInfo**, google_breakpad::PageStdAllocator<google_breakpad::MappingInfo*>&)
PUBLIC 23f74 0 __gnu_cxx::new_allocator<int>::new_allocator()
PUBLIC 23f80 0 google_breakpad::PageStdAllocator<int>::PageStdAllocator(google_breakpad::PageStdAllocator<int> const&)
PUBLIC 23fd4 0 std::_Vector_base<int, google_breakpad::PageStdAllocator<int> >::_Vector_impl::_Vector_impl(google_breakpad::PageStdAllocator<int> const&)
PUBLIC 2401e 0 std::allocator_traits<google_breakpad::PageStdAllocator<int> >::max_size(google_breakpad::PageStdAllocator<int> const&)
PUBLIC 2403e 0 std::_Vector_base<int, google_breakpad::PageStdAllocator<int> >::_M_get_Tp_allocator() const
PUBLIC 2404c 0 std::move_iterator<int*>::move_iterator(int*)
PUBLIC 24066 0 std::_Vector_base<int, google_breakpad::PageStdAllocator<int> >::_M_allocate(unsigned long)
PUBLIC 24099 0 int&& std::forward<int>(std::remove_reference<int>::type&)
PUBLIC 240a7 0 int* std::__uninitialized_copy_a<std::move_iterator<int*>, int*, google_breakpad::PageStdAllocator<int> >(std::move_iterator<int*>, std::move_iterator<int*>, int*, google_breakpad::PageStdAllocator<int>&)
PUBLIC 24166 0 std::allocator_traits<google_breakpad::PageStdAllocator<int> >::deallocate(google_breakpad::PageStdAllocator<int>&, int*, unsigned long)
PUBLIC 24194 0 decltype (({parm#1}.destroy)({parm#2})) std::allocator_traits<google_breakpad::PageStdAllocator<int> >::_S_destroy<google_breakpad::PageStdAllocator<int>, int>(google_breakpad::PageStdAllocator<int>&, int*, int)
PUBLIC 241be 0 __gnu_cxx::new_allocator<google_breakpad::MappingInfo*>::new_allocator()
PUBLIC 241ca 0 google_breakpad::PageStdAllocator<google_breakpad::MappingInfo*>::PageStdAllocator(google_breakpad::PageStdAllocator<google_breakpad::MappingInfo*> const&)
PUBLIC 2421e 0 std::_Vector_base<google_breakpad::MappingInfo*, google_breakpad::PageStdAllocator<google_breakpad::MappingInfo*> >::_Vector_impl::_Vector_impl(google_breakpad::PageStdAllocator<google_breakpad::MappingInfo*> const&)
PUBLIC 24268 0 std::allocator_traits<google_breakpad::PageStdAllocator<google_breakpad::MappingInfo*> >::max_size(google_breakpad::PageStdAllocator<google_breakpad::MappingInfo*> const&)
PUBLIC 24288 0 std::_Vector_base<google_breakpad::MappingInfo*, google_breakpad::PageStdAllocator<google_breakpad::MappingInfo*> >::_M_get_Tp_allocator() const
PUBLIC 24296 0 std::move_iterator<google_breakpad::MappingInfo**>::move_iterator(google_breakpad::MappingInfo**)
PUBLIC 242b0 0 google_breakpad::MappingInfo*&& std::forward<google_breakpad::MappingInfo*>(std::remove_reference<google_breakpad::MappingInfo*>::type&)
PUBLIC 242be 0 google_breakpad::MappingInfo** std::__uninitialized_copy_a<std::move_iterator<google_breakpad::MappingInfo**>, google_breakpad::MappingInfo**, google_breakpad::PageStdAllocator<google_breakpad::MappingInfo*> >(std::move_iterator<google_breakpad::MappingInfo**>, std::move_iterator<google_breakpad::MappingInfo**>, google_breakpad::MappingInfo**, google_breakpad::PageStdAllocator<google_breakpad::MappingInfo*>&)
PUBLIC 2437d 0 std::allocator_traits<google_breakpad::PageStdAllocator<google_breakpad::MappingInfo*> >::deallocate(google_breakpad::PageStdAllocator<google_breakpad::MappingInfo*>&, google_breakpad::MappingInfo**, unsigned long)
PUBLIC 243ab 0 decltype (({parm#1}.destroy)({parm#2})) std::allocator_traits<google_breakpad::PageStdAllocator<google_breakpad::MappingInfo*> >::_S_destroy<google_breakpad::PageStdAllocator<google_breakpad::MappingInfo*>, google_breakpad::MappingInfo*>(google_breakpad::PageStdAllocator<google_breakpad::MappingInfo*>&, google_breakpad::MappingInfo**, int)
PUBLIC 243d4 0 __gnu_cxx::new_allocator<unsigned long>::new_allocator()
PUBLIC 243e0 0 google_breakpad::PageStdAllocator<unsigned long>::PageStdAllocator(google_breakpad::PageStdAllocator<unsigned long> const&)
PUBLIC 24434 0 std::_Vector_base<unsigned long, google_breakpad::PageStdAllocator<unsigned long> >::_Vector_impl::_Vector_impl(google_breakpad::PageStdAllocator<unsigned long> const&)
PUBLIC 2447e 0 std::allocator_traits<google_breakpad::PageStdAllocator<unsigned long> >::max_size(google_breakpad::PageStdAllocator<unsigned long> const&)
PUBLIC 2449e 0 std::_Vector_base<unsigned long, google_breakpad::PageStdAllocator<unsigned long> >::_M_get_Tp_allocator() const
PUBLIC 244ac 0 std::move_iterator<unsigned long*>::move_iterator(unsigned long*)
PUBLIC 244c6 0 unsigned long&& std::forward<unsigned long>(std::remove_reference<unsigned long>::type&)
PUBLIC 244d4 0 unsigned long* std::__uninitialized_copy_a<std::move_iterator<unsigned long*>, unsigned long*, google_breakpad::PageStdAllocator<unsigned long> >(std::move_iterator<unsigned long*>, std::move_iterator<unsigned long*>, unsigned long*, google_breakpad::PageStdAllocator<unsigned long>&)
PUBLIC 24593 0 std::allocator_traits<google_breakpad::PageStdAllocator<unsigned long> >::deallocate(google_breakpad::PageStdAllocator<unsigned long>&, unsigned long*, unsigned long)
PUBLIC 245c1 0 decltype (({parm#1}.destroy)({parm#2})) std::allocator_traits<google_breakpad::PageStdAllocator<unsigned long> >::_S_destroy<google_breakpad::PageStdAllocator<unsigned long>, unsigned long>(google_breakpad::PageStdAllocator<unsigned long>&, unsigned long*, int)
PUBLIC 245ea 0 decltype (_S_construct({parm#1}, {parm#2})) std::allocator_traits<google_breakpad::PageStdAllocator<unsigned long> >::construct<unsigned long>(google_breakpad::PageStdAllocator<unsigned long>&, unsigned long*)
PUBLIC 24610 0 std::allocator_traits<google_breakpad::PageStdAllocator<unsigned long> >::allocate(google_breakpad::PageStdAllocator<unsigned long>&, unsigned long)
PUBLIC 2463a 0 void __gnu_cxx::new_allocator<google_breakpad::MappingInfo*>::construct<google_breakpad::MappingInfo*, google_breakpad::MappingInfo* const&>(google_breakpad::MappingInfo**, google_breakpad::MappingInfo* const&)
PUBLIC 2467f 0 std::allocator_traits<google_breakpad::PageStdAllocator<google_breakpad::MappingInfo*> >::allocate(google_breakpad::PageStdAllocator<google_breakpad::MappingInfo*>&, unsigned long)
PUBLIC 246aa 0 std::allocator<int>::allocator(std::allocator<int> const&)
PUBLIC 246d0 0 decltype (({parm#1}.max_size)()) std::allocator_traits<google_breakpad::PageStdAllocator<int> >::_S_max_size<google_breakpad::PageStdAllocator<int> const>(google_breakpad::PageStdAllocator<int> const&, int)
PUBLIC 246ed 0 std::allocator_traits<google_breakpad::PageStdAllocator<int> >::allocate(google_breakpad::PageStdAllocator<int>&, unsigned long)
PUBLIC 24717 0 bool std::operator!=<int*>(std::move_iterator<int*> const&, std::move_iterator<int*> const&)
PUBLIC 24740 0 std::move_iterator<int*>::operator++()
PUBLIC 24760 0 std::move_iterator<int*>::operator*() const
PUBLIC 24771 0 decltype (_S_construct({parm#1}, {parm#2}, (forward<int>)({parm#3}))) std::allocator_traits<google_breakpad::PageStdAllocator<int> >::construct<int, int>(google_breakpad::PageStdAllocator<int>&, int*, int&&)
PUBLIC 247aa 0 google_breakpad::PageStdAllocator<int>::deallocate(int*, unsigned long)
PUBLIC 247be 0 void __gnu_cxx::new_allocator<int>::destroy<int>(int*)
PUBLIC 247ce 0 std::allocator<google_breakpad::MappingInfo*>::allocator(std::allocator<google_breakpad::MappingInfo*> const&)
PUBLIC 247f4 0 decltype (({parm#1}.max_size)()) std::allocator_traits<google_breakpad::PageStdAllocator<google_breakpad::MappingInfo*> >::_S_max_size<google_breakpad::PageStdAllocator<google_breakpad::MappingInfo*> const>(google_breakpad::PageStdAllocator<google_breakpad::MappingInfo*> const&, int)
PUBLIC 24811 0 bool std::operator!=<google_breakpad::MappingInfo**>(std::move_iterator<google_breakpad::MappingInfo**> const&, std::move_iterator<google_breakpad::MappingInfo**> const&)
PUBLIC 2483a 0 std::move_iterator<google_breakpad::MappingInfo**>::operator++()
PUBLIC 2485a 0 std::move_iterator<google_breakpad::MappingInfo**>::operator*() const
PUBLIC 2486b 0 decltype (_S_construct({parm#1}, {parm#2}, (forward<google_breakpad::MappingInfo*>)({parm#3}))) std::allocator_traits<google_breakpad::PageStdAllocator<google_breakpad::MappingInfo*> >::construct<google_breakpad::MappingInfo*, google_breakpad::MappingInfo*>(google_breakpad::PageStdAllocator<google_breakpad::MappingInfo*>&, google_breakpad::MappingInfo**, google_breakpad::MappingInfo*&&)
PUBLIC 248a4 0 google_breakpad::PageStdAllocator<google_breakpad::MappingInfo*>::deallocate(google_breakpad::MappingInfo**, unsigned long)
PUBLIC 248b8 0 void __gnu_cxx::new_allocator<google_breakpad::MappingInfo*>::destroy<google_breakpad::MappingInfo*>(google_breakpad::MappingInfo**)
PUBLIC 248c8 0 std::allocator<unsigned long>::allocator(std::allocator<unsigned long> const&)
PUBLIC 248ee 0 decltype (({parm#1}.max_size)()) std::allocator_traits<google_breakpad::PageStdAllocator<unsigned long> >::_S_max_size<google_breakpad::PageStdAllocator<unsigned long> const>(google_breakpad::PageStdAllocator<unsigned long> const&, int)
PUBLIC 2490b 0 bool std::operator!=<unsigned long*>(std::move_iterator<unsigned long*> const&, std::move_iterator<unsigned long*> const&)
PUBLIC 24934 0 std::move_iterator<unsigned long*>::operator++()
PUBLIC 24954 0 std::move_iterator<unsigned long*>::operator*() const
PUBLIC 24965 0 decltype (_S_construct({parm#1}, {parm#2}, (forward<unsigned long>)({parm#3}))) std::allocator_traits<google_breakpad::PageStdAllocator<unsigned long> >::construct<unsigned long, unsigned long>(google_breakpad::PageStdAllocator<unsigned long>&, unsigned long*, unsigned long&&)
PUBLIC 2499e 0 google_breakpad::PageStdAllocator<unsigned long>::deallocate(unsigned long*, unsigned long)
PUBLIC 249b2 0 void __gnu_cxx::new_allocator<unsigned long>::destroy<unsigned long>(unsigned long*)
PUBLIC 249c1 0 std::enable_if<std::__and_<std::allocator_traits<google_breakpad::PageStdAllocator<unsigned long> >::__construct_helper<unsigned long>::type>::value, void>::type std::allocator_traits<google_breakpad::PageStdAllocator<unsigned long> >::_S_construct<unsigned long>(google_breakpad::PageStdAllocator<unsigned long>&, unsigned long*)
PUBLIC 249e8 0 google_breakpad::PageStdAllocator<unsigned long>::allocate(unsigned long, void const*)
PUBLIC 24a38 0 google_breakpad::PageStdAllocator<google_breakpad::MappingInfo*>::allocate(unsigned long, void const*)
PUBLIC 24a88 0 __gnu_cxx::new_allocator<int>::new_allocator(__gnu_cxx::new_allocator<int> const&)
PUBLIC 24a98 0 __gnu_cxx::new_allocator<int>::max_size() const
PUBLIC 24aac 0 google_breakpad::PageStdAllocator<int>::allocate(unsigned long, void const*)
PUBLIC 24afc 0 bool std::operator==<int*>(std::move_iterator<int*> const&, std::move_iterator<int*> const&)
PUBLIC 24b35 0 std::enable_if<std::__and_<std::allocator_traits<google_breakpad::PageStdAllocator<int> >::__construct_helper<int, int>::type>::value, void>::type std::allocator_traits<google_breakpad::PageStdAllocator<int> >::_S_construct<int, int>(google_breakpad::PageStdAllocator<int>&, int*, int&&)
PUBLIC 24b6e 0 __gnu_cxx::new_allocator<google_breakpad::MappingInfo*>::new_allocator(__gnu_cxx::new_allocator<google_breakpad::MappingInfo*> const&)
PUBLIC 24b7e 0 __gnu_cxx::new_allocator<google_breakpad::MappingInfo*>::max_size() const
PUBLIC 24b92 0 bool std::operator==<google_breakpad::MappingInfo**>(std::move_iterator<google_breakpad::MappingInfo**> const&, std::move_iterator<google_breakpad::MappingInfo**> const&)
PUBLIC 24bcb 0 std::enable_if<std::__and_<std::allocator_traits<google_breakpad::PageStdAllocator<google_breakpad::MappingInfo*> >::__construct_helper<google_breakpad::MappingInfo*, google_breakpad::MappingInfo*>::type>::value, void>::type std::allocator_traits<google_breakpad::PageStdAllocator<google_breakpad::MappingInfo*> >::_S_construct<google_breakpad::MappingInfo*, google_breakpad::MappingInfo*>(google_breakpad::PageStdAllocator<google_breakpad::MappingInfo*>&, google_breakpad::MappingInfo**, google_breakpad::MappingInfo*&&)
PUBLIC 24c04 0 __gnu_cxx::new_allocator<unsigned long>::new_allocator(__gnu_cxx::new_allocator<unsigned long> const&)
PUBLIC 24c14 0 __gnu_cxx::new_allocator<unsigned long>::max_size() const
PUBLIC 24c28 0 bool std::operator==<unsigned long*>(std::move_iterator<unsigned long*> const&, std::move_iterator<unsigned long*> const&)
PUBLIC 24c61 0 std::enable_if<std::__and_<std::allocator_traits<google_breakpad::PageStdAllocator<unsigned long> >::__construct_helper<unsigned long, unsigned long>::type>::value, void>::type std::allocator_traits<google_breakpad::PageStdAllocator<unsigned long> >::_S_construct<unsigned long, unsigned long>(google_breakpad::PageStdAllocator<unsigned long>&, unsigned long*, unsigned long&&)
PUBLIC 24c9a 0 void __gnu_cxx::new_allocator<unsigned long>::construct<unsigned long>(unsigned long*)
PUBLIC 24cca 0 std::move_iterator<int*>::base() const
PUBLIC 24cdc 0 void __gnu_cxx::new_allocator<int>::construct<int, int>(int*, int&&)
PUBLIC 24d20 0 std::move_iterator<google_breakpad::MappingInfo**>::base() const
PUBLIC 24d32 0 void __gnu_cxx::new_allocator<google_breakpad::MappingInfo*>::construct<google_breakpad::MappingInfo*, google_breakpad::MappingInfo*>(google_breakpad::MappingInfo**, google_breakpad::MappingInfo*&&)
PUBLIC 24d78 0 std::move_iterator<unsigned long*>::base() const
PUBLIC 24d8a 0 void __gnu_cxx::new_allocator<unsigned long>::construct<unsigned long, unsigned long>(unsigned long*, unsigned long&&)
PUBLIC 24dd0 0 sys_close
PUBLIC 24e19 0 sys_getdents
PUBLIC 24e73 0 sys_open
PUBLIC 24ecd 0 sys_ptrace
PUBLIC 24f35 0 sys_read
PUBLIC 24f8e 0 sys_wait4
PUBLIC 24ff6 0 sys_mmap
PUBLIC 25084 0 sys_waitpid
PUBLIC 250ae 0 SuspendThread(int)
PUBLIC 251c7 0 ResumeThread(int)
PUBLIC 251f4 0 google_breakpad::LinuxPtraceDumper::LinuxPtraceDumper(int)
PUBLIC 2523c 0 google_breakpad::LinuxPtraceDumper::BuildProcPath(char*, int, char const*) const
PUBLIC 25342 0 google_breakpad::LinuxPtraceDumper::CopyFromProcess(void*, int, void const*, unsigned long)
PUBLIC 2540c 0 google_breakpad::LinuxPtraceDumper::ReadRegisterSet(google_breakpad::ThreadInfo*, int)
PUBLIC 254b6 0 google_breakpad::LinuxPtraceDumper::ReadRegisters(google_breakpad::ThreadInfo*, int)
PUBLIC 2555a 0 google_breakpad::LinuxPtraceDumper::GetThreadInfoByIndex(unsigned long, google_breakpad::ThreadInfo*)
PUBLIC 2588c 0 google_breakpad::LinuxPtraceDumper::IsPostMortem() const
PUBLIC 2589c 0 google_breakpad::LinuxPtraceDumper::ThreadsSuspend()
PUBLIC 259f4 0 google_breakpad::LinuxPtraceDumper::ThreadsResume()
PUBLIC 25a8a 0 google_breakpad::LinuxPtraceDumper::EnumerateThreads()
PUBLIC 25c34 0 google_breakpad::DirectoryReader::DirectoryReader(int)
PUBLIC 25c56 0 google_breakpad::DirectoryReader::GetNextEntry(char const**)
PUBLIC 25d28 0 google_breakpad::DirectoryReader::PopEntry()
PUBLIC 25da2 0 std::vector<int, google_breakpad::PageStdAllocator<int> >::operator[](unsigned long)
PUBLIC 25dc4 0 std::vector<int, google_breakpad::PageStdAllocator<int> >::resize(unsigned long)
PUBLIC 25e51 0 int const& std::forward<int const&>(std::remove_reference<int const&>::type&)
PUBLIC 25e60 0 std::vector<int, google_breakpad::PageStdAllocator<int> >::push_back(int const&)
PUBLIC 25ecc 0 std::vector<int, google_breakpad::PageStdAllocator<int> >::_M_default_append(unsigned long)
PUBLIC 260da 0 std::vector<int, google_breakpad::PageStdAllocator<int> >::_M_erase_at_end(int*)
PUBLIC 2611f 0 decltype (_S_construct({parm#1}, {parm#2}, (forward<int const&>)({parm#3}))) std::allocator_traits<google_breakpad::PageStdAllocator<int> >::construct<int, int const&>(google_breakpad::PageStdAllocator<int>&, int*, int const&)
PUBLIC 26158 0 void std::vector<int, google_breakpad::PageStdAllocator<int> >::_M_emplace_back_aux<int const&>(int const&)
PUBLIC 26349 0 int* std::__uninitialized_default_n_a<int*, unsigned long, google_breakpad::PageStdAllocator<int> >(int*, unsigned long, google_breakpad::PageStdAllocator<int>&)
PUBLIC 263dc 0 std::vector<int, google_breakpad::PageStdAllocator<int> >::_M_check_len(unsigned long, char const*) const
PUBLIC 264a5 0 int* std::__uninitialized_move_if_noexcept_a<int*, int*, google_breakpad::PageStdAllocator<int> >(int*, int*, int*, google_breakpad::PageStdAllocator<int>&)
PUBLIC 264f9 0 std::enable_if<std::__and_<std::allocator_traits<google_breakpad::PageStdAllocator<int> >::__construct_helper<int, int const&>::type>::value, void>::type std::allocator_traits<google_breakpad::PageStdAllocator<int> >::_S_construct<int, int const&>(google_breakpad::PageStdAllocator<int>&, int*, int const&)
PUBLIC 26532 0 decltype (_S_construct({parm#1}, {parm#2})) std::allocator_traits<google_breakpad::PageStdAllocator<int> >::construct<int>(google_breakpad::PageStdAllocator<int>&, int*)
PUBLIC 26558 0 void __gnu_cxx::new_allocator<int>::construct<int, int const&>(int*, int const&)
PUBLIC 2659b 0 std::enable_if<std::__and_<std::allocator_traits<google_breakpad::PageStdAllocator<int> >::__construct_helper<int>::type>::value, void>::type std::allocator_traits<google_breakpad::PageStdAllocator<int> >::_S_construct<int>(google_breakpad::PageStdAllocator<int>&, int*)
PUBLIC 265c2 0 void __gnu_cxx::new_allocator<int>::construct<int>(int*)
PUBLIC 265f1 0 sys_write
PUBLIC 2664a 0 logger::write(char const*, unsigned long)
PUBLIC 26672 0 sys_close
PUBLIC 266bb 0 sys_lseek
PUBLIC 26715 0 sys_open
PUBLIC 2676f 0 sys_write
PUBLIC 267c8 0 google_breakpad::MinidumpFileWriter::MinidumpFileWriter()
PUBLIC 267fc 0 google_breakpad::MinidumpFileWriter::~MinidumpFileWriter()
PUBLIC 26824 0 google_breakpad::MinidumpFileWriter::Open(char const*)
PUBLIC 2688a 0 google_breakpad::MinidumpFileWriter::SetFile(int)
PUBLIC 268d8 0 google_breakpad::MinidumpFileWriter::Close()
PUBLIC 26942 0 google_breakpad::MinidumpFileWriter::CopyStringToMDString(wchar_t const*, unsigned int, google_breakpad::TypedMDRVA<MDString>*)
PUBLIC 269f6 0 google_breakpad::MinidumpFileWriter::CopyStringToMDString(char const*, unsigned int, google_breakpad::TypedMDRVA<MDString>*)
PUBLIC 26ab0 0 google_breakpad::MinidumpFileWriter::WriteString(wchar_t const*, unsigned int, MDLocationDescriptor*)
PUBLIC 26ae0 0 google_breakpad::MinidumpFileWriter::WriteString(char const*, unsigned int, MDLocationDescriptor*)
PUBLIC 26b10 0 google_breakpad::MinidumpFileWriter::WriteMemory(void const*, unsigned long, MDMemoryDescriptor*)
PUBLIC 26c08 0 google_breakpad::MinidumpFileWriter::Allocate(unsigned long)
PUBLIC 26d22 0 google_breakpad::MinidumpFileWriter::Copy(unsigned int, void const*, long)
PUBLIC 26e36 0 google_breakpad::UntypedMDRVA::Allocate(unsigned long)
PUBLIC 26eb0 0 google_breakpad::UntypedMDRVA::Copy(unsigned int, void const*, unsigned long)
PUBLIC 26f78 0 google_breakpad::UntypedMDRVA::size() const
PUBLIC 26f8a 0 google_breakpad::minidump_size<MDString>::size()
PUBLIC 26f96 0 google_breakpad::TypedMDRVA<MDString>::get()
PUBLIC 26fa8 0 google_breakpad::TypedMDRVA<MDString>::CopyIndexAfterObject(unsigned int, void const*, unsigned long)
PUBLIC 2702c 0 bool google_breakpad::MinidumpFileWriter::WriteStringCore<wchar_t>(wchar_t const*, unsigned int, MDLocationDescriptor*)
PUBLIC 271ac 0 bool google_breakpad::MinidumpFileWriter::WriteStringCore<char>(char const*, unsigned int, MDLocationDescriptor*)
PUBLIC 2732a 0 google_breakpad::TypedMDRVA<MDString>::TypedMDRVA(google_breakpad::MinidumpFileWriter*)
PUBLIC 27370 0 google_breakpad::TypedMDRVA<MDString>::~TypedMDRVA()
PUBLIC 27398 0 google_breakpad::TypedMDRVA<MDString>::AllocateObjectAndArray(unsigned long, unsigned long)
PUBLIC 2740a 0 google_breakpad::TypedMDRVA<MDString>::Flush()
PUBLIC 2743e 0 my_strlen
PUBLIC 27473 0 my_strcmp
PUBLIC 274d1 0 my_strncmp
PUBLIC 2754f 0 my_strtoui
PUBLIC 275e8 0 my_uint_len
PUBLIC 27633 0 my_uitos
PUBLIC 276b5 0 my_strchr
PUBLIC 276f9 0 my_strrchr
PUBLIC 2773a 0 my_memchr
PUBLIC 2778d 0 my_read_hex_ptr
PUBLIC 2784a 0 my_read_decimal_ptr
PUBLIC 278b4 0 my_memset
PUBLIC 278fa 0 my_strlcpy
PUBLIC 2797c 0 my_strlcat
PUBLIC 279fc 0 my_isspace
PUBLIC 27a4c 0 sys_munmap
PUBLIC 27a9f 0 sys_mmap
PUBLIC 27b2e 0 google_breakpad::FileID::FileID(char const*)
PUBLIC 27b91 0 google_breakpad::ElfClassBuildIDNoteIdentifier(void const*, unsigned long, google_breakpad::wasteful_vector<unsigned char>&)
PUBLIC 27c91 0 google_breakpad::FindElfBuildIDNote(void const*, google_breakpad::wasteful_vector<unsigned char>&)
PUBLIC 27e41 0 google_breakpad::HashElfTextSection(void const*, google_breakpad::wasteful_vector<unsigned char>&)
PUBLIC 27f58 0 google_breakpad::FileID::ElfFileIdentifierFromMappedFile(void const*, google_breakpad::wasteful_vector<unsigned char>&)
PUBLIC 27f9c 0 google_breakpad::FileID::ElfFileIdentifier(google_breakpad::wasteful_vector<unsigned char>&)
PUBLIC 2803e 0 google_breakpad::bytes_to_hex_string(unsigned char const*, unsigned long)
PUBLIC 280de 0 google_breakpad::FileID::ConvertIdentifierToUUIDString[abi:cxx11](google_breakpad::wasteful_vector<unsigned char> const&)
PUBLIC 281d8 0 google_breakpad::FileID::ConvertIdentifierToString[abi:cxx11](google_breakpad::wasteful_vector<unsigned char> const&)
PUBLIC 2822a 0 google_breakpad::wasteful_vector<google_breakpad::ElfSegment>::~wasteful_vector()
PUBLIC 28246 0 google_breakpad::auto_wasteful_vector<google_breakpad::ElfSegment, 2u>::~auto_wasteful_vector()
PUBLIC 28262 0 google_breakpad::PageStdAllocator<google_breakpad::ElfSegment>::~PageStdAllocator()
PUBLIC 2827e 0 google_breakpad::auto_wasteful_vector<google_breakpad::ElfSegment, 2u>::auto_wasteful_vector(google_breakpad::PageAllocator*)
PUBLIC 28300 0 std::vector<google_breakpad::ElfSegment, google_breakpad::PageStdAllocator<google_breakpad::ElfSegment> >::~vector()
PUBLIC 28346 0 std::vector<google_breakpad::ElfSegment, google_breakpad::PageStdAllocator<google_breakpad::ElfSegment> >::begin()
PUBLIC 28370 0 std::vector<google_breakpad::ElfSegment, google_breakpad::PageStdAllocator<google_breakpad::ElfSegment> >::end()
PUBLIC 28399 0 bool __gnu_cxx::operator!=<google_breakpad::ElfSegment*, std::vector<google_breakpad::ElfSegment, google_breakpad::PageStdAllocator<google_breakpad::ElfSegment> > >(__gnu_cxx::__normal_iterator<google_breakpad::ElfSegment*, std::vector<google_breakpad::ElfSegment, google_breakpad::PageStdAllocator<google_breakpad::ElfSegment> > > const&, __gnu_cxx::__normal_iterator<google_breakpad::ElfSegment*, std::vector<google_breakpad::ElfSegment, google_breakpad::PageStdAllocator<google_breakpad::ElfSegment> > > const&)
PUBLIC 283d6 0 __gnu_cxx::__normal_iterator<google_breakpad::ElfSegment*, std::vector<google_breakpad::ElfSegment, google_breakpad::PageStdAllocator<google_breakpad::ElfSegment> > >::operator++()
PUBLIC 283f6 0 __gnu_cxx::__normal_iterator<google_breakpad::ElfSegment*, std::vector<google_breakpad::ElfSegment, google_breakpad::PageStdAllocator<google_breakpad::ElfSegment> > >::operator*() const
PUBLIC 28408 0 std::vector<unsigned char, google_breakpad::PageStdAllocator<unsigned char> >::resize(unsigned long)
PUBLIC 28492 0 std::vector<unsigned char, google_breakpad::PageStdAllocator<unsigned char> >::operator[](unsigned long) const
PUBLIC 284b0 0 google_breakpad::PageStdAllocator<google_breakpad::ElfSegment>::PageStdAllocator(google_breakpad::PageAllocator&, google_breakpad::ElfSegment*, unsigned long)
PUBLIC 284fa 0 std::allocator<google_breakpad::ElfSegment>::~allocator()
PUBLIC 28516 0 std::allocator<google_breakpad::ElfSegment>::allocator(std::allocator<google_breakpad::ElfSegment> const&)
PUBLIC 2853c 0 google_breakpad::wasteful_vector<google_breakpad::ElfSegment>::wasteful_vector(google_breakpad::PageStdAllocator<google_breakpad::ElfSegment>)
PUBLIC 28562 0 std::vector<google_breakpad::ElfSegment, google_breakpad::PageStdAllocator<google_breakpad::ElfSegment> >::reserve(unsigned long)
PUBLIC 286a8 0 std::_Vector_base<google_breakpad::ElfSegment, google_breakpad::PageStdAllocator<google_breakpad::ElfSegment> >::_Vector_impl::~_Vector_impl()
PUBLIC 286c4 0 std::_Vector_base<google_breakpad::ElfSegment, google_breakpad::PageStdAllocator<google_breakpad::ElfSegment> >::~_Vector_base()
PUBLIC 28716 0 std::_Vector_base<google_breakpad::ElfSegment, google_breakpad::PageStdAllocator<google_breakpad::ElfSegment> >::_M_get_Tp_allocator()
PUBLIC 28724 0 void std::_Destroy<google_breakpad::ElfSegment*, google_breakpad::PageStdAllocator<google_breakpad::ElfSegment> >(google_breakpad::ElfSegment*, google_breakpad::ElfSegment*, google_breakpad::PageStdAllocator<google_breakpad::ElfSegment>&)
PUBLIC 2876a 0 __gnu_cxx::__normal_iterator<google_breakpad::ElfSegment*, std::vector<google_breakpad::ElfSegment, google_breakpad::PageStdAllocator<google_breakpad::ElfSegment> > >::__normal_iterator(google_breakpad::ElfSegment* const&)
PUBLIC 28788 0 __gnu_cxx::__normal_iterator<google_breakpad::ElfSegment*, std::vector<google_breakpad::ElfSegment, google_breakpad::PageStdAllocator<google_breakpad::ElfSegment> > >::base() const
PUBLIC 28796 0 std::vector<unsigned char, google_breakpad::PageStdAllocator<unsigned char> >::_M_default_append(unsigned long)
PUBLIC 28994 0 std::vector<unsigned char, google_breakpad::PageStdAllocator<unsigned char> >::_M_erase_at_end(unsigned char*)
PUBLIC 289da 0 std::allocator<google_breakpad::ElfSegment>::allocator()
PUBLIC 289f6 0 __gnu_cxx::new_allocator<google_breakpad::ElfSegment>::~new_allocator()
PUBLIC 28a02 0 __gnu_cxx::new_allocator<google_breakpad::ElfSegment>::new_allocator(__gnu_cxx::new_allocator<google_breakpad::ElfSegment> const&)
PUBLIC 28a12 0 std::vector<google_breakpad::ElfSegment, google_breakpad::PageStdAllocator<google_breakpad::ElfSegment> >::vector(google_breakpad::PageStdAllocator<google_breakpad::ElfSegment> const&)
PUBLIC 28a38 0 std::vector<google_breakpad::ElfSegment, google_breakpad::PageStdAllocator<google_breakpad::ElfSegment> >::max_size() const
PUBLIC 28a5a 0 std::vector<google_breakpad::ElfSegment, google_breakpad::PageStdAllocator<google_breakpad::ElfSegment> >::capacity() const
PUBLIC 28a82 0 std::vector<google_breakpad::ElfSegment, google_breakpad::PageStdAllocator<google_breakpad::ElfSegment> >::size() const
PUBLIC 28aa9 0 std::move_iterator<google_breakpad::ElfSegment*> std::__make_move_if_noexcept_iterator<google_breakpad::ElfSegment, std::move_iterator<google_breakpad::ElfSegment*> >(google_breakpad::ElfSegment*)
PUBLIC 28ace 0 google_breakpad::ElfSegment* std::vector<google_breakpad::ElfSegment, google_breakpad::PageStdAllocator<google_breakpad::ElfSegment> >::_M_allocate_and_copy<std::move_iterator<google_breakpad::ElfSegment*> >(unsigned long, std::move_iterator<google_breakpad::ElfSegment*>, std::move_iterator<google_breakpad::ElfSegment*>)
PUBLIC 28b66 0 std::_Vector_base<google_breakpad::ElfSegment, google_breakpad::PageStdAllocator<google_breakpad::ElfSegment> >::_M_deallocate(google_breakpad::ElfSegment*, unsigned long)
PUBLIC 28b9b 0 google_breakpad::ElfSegment* std::__addressof<google_breakpad::ElfSegment>(google_breakpad::ElfSegment&)
PUBLIC 28ba9 0 void std::allocator_traits<google_breakpad::PageStdAllocator<google_breakpad::ElfSegment> >::destroy<google_breakpad::ElfSegment>(google_breakpad::PageStdAllocator<google_breakpad::ElfSegment>&, google_breakpad::ElfSegment*)
PUBLIC 28bd4 0 unsigned char* std::__uninitialized_default_n_a<unsigned char*, unsigned long, google_breakpad::PageStdAllocator<unsigned char> >(unsigned char*, unsigned long, google_breakpad::PageStdAllocator<unsigned char>&)
PUBLIC 28c66 0 __gnu_cxx::new_allocator<google_breakpad::ElfSegment>::new_allocator()
PUBLIC 28c72 0 std::_Vector_base<google_breakpad::ElfSegment, google_breakpad::PageStdAllocator<google_breakpad::ElfSegment> >::_Vector_base(google_breakpad::PageStdAllocator<google_breakpad::ElfSegment> const&)
PUBLIC 28c98 0 std::allocator_traits<google_breakpad::PageStdAllocator<google_breakpad::ElfSegment> >::max_size(google_breakpad::PageStdAllocator<google_breakpad::ElfSegment> const&)
PUBLIC 28cb8 0 std::_Vector_base<google_breakpad::ElfSegment, google_breakpad::PageStdAllocator<google_breakpad::ElfSegment> >::_M_get_Tp_allocator() const
PUBLIC 28cc6 0 std::move_iterator<google_breakpad::ElfSegment*>::move_iterator(google_breakpad::ElfSegment*)
PUBLIC 28ce0 0 std::_Vector_base<google_breakpad::ElfSegment, google_breakpad::PageStdAllocator<google_breakpad::ElfSegment> >::_M_allocate(unsigned long)
PUBLIC 28d13 0 google_breakpad::ElfSegment&& std::forward<google_breakpad::ElfSegment>(std::remove_reference<google_breakpad::ElfSegment>::type&)
PUBLIC 28d21 0 google_breakpad::ElfSegment* std::__uninitialized_copy_a<std::move_iterator<google_breakpad::ElfSegment*>, google_breakpad::ElfSegment*, google_breakpad::PageStdAllocator<google_breakpad::ElfSegment> >(std::move_iterator<google_breakpad::ElfSegment*>, std::move_iterator<google_breakpad::ElfSegment*>, google_breakpad::ElfSegment*, google_breakpad::PageStdAllocator<google_breakpad::ElfSegment>&)
PUBLIC 28de0 0 std::allocator_traits<google_breakpad::PageStdAllocator<google_breakpad::ElfSegment> >::deallocate(google_breakpad::PageStdAllocator<google_breakpad::ElfSegment>&, google_breakpad::ElfSegment*, unsigned long)
PUBLIC 28e0e 0 decltype (({parm#1}.destroy)({parm#2})) std::allocator_traits<google_breakpad::PageStdAllocator<google_breakpad::ElfSegment> >::_S_destroy<google_breakpad::PageStdAllocator<google_breakpad::ElfSegment>, google_breakpad::ElfSegment>(google_breakpad::PageStdAllocator<google_breakpad::ElfSegment>&, google_breakpad::ElfSegment*, int)
PUBLIC 28e37 0 decltype (_S_construct({parm#1}, {parm#2})) std::allocator_traits<google_breakpad::PageStdAllocator<unsigned char> >::construct<unsigned char>(google_breakpad::PageStdAllocator<unsigned char>&, unsigned char*)
PUBLIC 28e5e 0 google_breakpad::PageStdAllocator<google_breakpad::ElfSegment>::PageStdAllocator(google_breakpad::PageStdAllocator<google_breakpad::ElfSegment> const&)
PUBLIC 28eb2 0 std::_Vector_base<google_breakpad::ElfSegment, google_breakpad::PageStdAllocator<google_breakpad::ElfSegment> >::_Vector_impl::_Vector_impl(google_breakpad::PageStdAllocator<google_breakpad::ElfSegment> const&)
PUBLIC 28efc 0 decltype (({parm#1}.max_size)()) std::allocator_traits<google_breakpad::PageStdAllocator<google_breakpad::ElfSegment> >::_S_max_size<google_breakpad::PageStdAllocator<google_breakpad::ElfSegment> const>(google_breakpad::PageStdAllocator<google_breakpad::ElfSegment> const&, int)
PUBLIC 28f19 0 std::allocator_traits<google_breakpad::PageStdAllocator<google_breakpad::ElfSegment> >::allocate(google_breakpad::PageStdAllocator<google_breakpad::ElfSegment>&, unsigned long)
PUBLIC 28f43 0 bool std::operator!=<google_breakpad::ElfSegment*>(std::move_iterator<google_breakpad::ElfSegment*> const&, std::move_iterator<google_breakpad::ElfSegment*> const&)
PUBLIC 28f6c 0 std::move_iterator<google_breakpad::ElfSegment*>::operator++()
PUBLIC 28f8c 0 std::move_iterator<google_breakpad::ElfSegment*>::operator*() const
PUBLIC 28f9d 0 decltype (_S_construct({parm#1}, {parm#2}, (forward<google_breakpad::ElfSegment>)({parm#3}))) std::allocator_traits<google_breakpad::PageStdAllocator<google_breakpad::ElfSegment> >::construct<google_breakpad::ElfSegment, google_breakpad::ElfSegment>(google_breakpad::PageStdAllocator<google_breakpad::ElfSegment>&, google_breakpad::ElfSegment*, google_breakpad::ElfSegment&&)
PUBLIC 28fd6 0 google_breakpad::PageStdAllocator<google_breakpad::ElfSegment>::deallocate(google_breakpad::ElfSegment*, unsigned long)
PUBLIC 28fea 0 void __gnu_cxx::new_allocator<google_breakpad::ElfSegment>::destroy<google_breakpad::ElfSegment>(google_breakpad::ElfSegment*)
PUBLIC 28ff9 0 std::enable_if<std::__and_<std::allocator_traits<google_breakpad::PageStdAllocator<unsigned char> >::__construct_helper<unsigned char>::type>::value, void>::type std::allocator_traits<google_breakpad::PageStdAllocator<unsigned char> >::_S_construct<unsigned char>(google_breakpad::PageStdAllocator<unsigned char>&, unsigned char*)
PUBLIC 29020 0 __gnu_cxx::new_allocator<google_breakpad::ElfSegment>::max_size() const
PUBLIC 29034 0 google_breakpad::PageStdAllocator<google_breakpad::ElfSegment>::allocate(unsigned long, void const*)
PUBLIC 29084 0 bool std::operator==<google_breakpad::ElfSegment*>(std::move_iterator<google_breakpad::ElfSegment*> const&, std::move_iterator<google_breakpad::ElfSegment*> const&)
PUBLIC 290bd 0 std::enable_if<std::__and_<std::allocator_traits<google_breakpad::PageStdAllocator<google_breakpad::ElfSegment> >::__construct_helper<google_breakpad::ElfSegment, google_breakpad::ElfSegment>::type>::value, void>::type std::allocator_traits<google_breakpad::PageStdAllocator<google_breakpad::ElfSegment> >::_S_construct<google_breakpad::ElfSegment, google_breakpad::ElfSegment>(google_breakpad::PageStdAllocator<google_breakpad::ElfSegment>&, google_breakpad::ElfSegment*, google_breakpad::ElfSegment&&)
PUBLIC 290f6 0 void __gnu_cxx::new_allocator<unsigned char>::construct<unsigned char>(unsigned char*)
PUBLIC 29122 0 std::move_iterator<google_breakpad::ElfSegment*>::base() const
PUBLIC 29134 0 void __gnu_cxx::new_allocator<google_breakpad::ElfSegment>::construct<google_breakpad::ElfSegment, google_breakpad::ElfSegment>(google_breakpad::ElfSegment*, google_breakpad::ElfSegment&&)
PUBLIC 29188 0 sys_close
PUBLIC 291d1 0 sys_fstat
PUBLIC 29225 0 sys_munmap
PUBLIC 29278 0 sys_open
PUBLIC 292d2 0 sys_mmap
PUBLIC 29360 0 google_breakpad::MemoryMappedFile::MemoryMappedFile()
PUBLIC 2937c 0 google_breakpad::MemoryMappedFile::MemoryMappedFile(char const*, unsigned long)
PUBLIC 293b6 0 google_breakpad::MemoryMappedFile::~MemoryMappedFile()
PUBLIC 293d2 0 google_breakpad::MemoryMappedFile::Map(char const*, unsigned long)
PUBLIC 2950c 0 google_breakpad::MemoryMappedFile::Unmap()
PUBLIC 29574 0 google_breakpad::MemoryRange::MemoryRange()
PUBLIC 29596 0 google_breakpad::MemoryRange::Set(void const*, unsigned long)
PUBLIC 295ce 0 sys_readlink
PUBLIC 29629 0 google_breakpad::SafeReadLink(char const*, char*, unsigned long)
PUBLIC 29687 0 CreateGUID(MDGUID*)
PUBLIC 296a1 0 GUIDToString(MDGUID const*, char*, int)
PUBLIC 29773 0 GUIDGenerator::BytesToUInt32(unsigned char const*)
PUBLIC 297c0 0 GUIDGenerator::CreateGUID(MDGUID*)
PUBLIC 2985f 0 GUIDGenerator::InitOnce()
PUBLIC 2987f 0 GUIDGenerator::InitOnceImpl()
PUBLIC 298a6 0 GUIDGenerator::CreateGUIDFromDevUrandom(MDGUID*)
PUBLIC 2992b 0 GUIDGenerator::CreateGUIDFromRand(MDGUID*)
PUBLIC 29976 0 sys_mmap
PUBLIC 29a04 0 google_breakpad::IsValidElf(void const*)
PUBLIC 29a2f 0 google_breakpad::ElfClass(void const*)
PUBLIC 29a4c 0 google_breakpad::FindElfSection(void const*, char const*, unsigned int, void const**, unsigned long*)
PUBLIC 29b96 0 google_breakpad::FindElfSegments(void const*, unsigned int, google_breakpad::wasteful_vector<google_breakpad::ElfSegment>*)
PUBLIC 29c75 0 void google_breakpad::(anonymous namespace)::FindElfClassSection<google_breakpad::ElfClass32>(char const*, char const*, google_breakpad::ElfClass32::Word, void const**, unsigned long*)
PUBLIC 29e50 0 void google_breakpad::(anonymous namespace)::FindElfClassSection<google_breakpad::ElfClass64>(char const*, char const*, google_breakpad::ElfClass64::Word, void const**, unsigned long*)
PUBLIC 2a024 0 void google_breakpad::(anonymous namespace)::FindElfClassSegment<google_breakpad::ElfClass32>(char const*, google_breakpad::ElfClass32::Word, google_breakpad::wasteful_vector<google_breakpad::ElfSegment>*)
PUBLIC 2a1b5 0 void google_breakpad::(anonymous namespace)::FindElfClassSegment<google_breakpad::ElfClass64>(char const*, google_breakpad::ElfClass64::Word, google_breakpad::wasteful_vector<google_breakpad::ElfSegment>*)
PUBLIC 2a366 0 Elf32_Shdr const* google_breakpad::GetOffset<google_breakpad::ElfClass32, Elf32_Shdr>(google_breakpad::ElfClass32::Ehdr const*, google_breakpad::ElfClass32::Off)
PUBLIC 2a37d 0 char const* google_breakpad::GetOffset<google_breakpad::ElfClass32, char>(google_breakpad::ElfClass32::Ehdr const*, google_breakpad::ElfClass32::Off)
PUBLIC 2a394 0 google_breakpad::ElfClass32::Shdr const* google_breakpad::FindElfSectionByName<google_breakpad::ElfClass32>(char const*, google_breakpad::ElfClass32::Word, google_breakpad::ElfClass32::Shdr const*, char const*, char const*, int)
PUBLIC 2a518 0 Elf64_Shdr const* google_breakpad::GetOffset<google_breakpad::ElfClass64, Elf64_Shdr>(google_breakpad::ElfClass64::Ehdr const*, google_breakpad::ElfClass64::Off)
PUBLIC 2a531 0 char const* google_breakpad::GetOffset<google_breakpad::ElfClass64, char>(google_breakpad::ElfClass64::Ehdr const*, google_breakpad::ElfClass64::Off)
PUBLIC 2a54a 0 google_breakpad::ElfClass64::Shdr const* google_breakpad::FindElfSectionByName<google_breakpad::ElfClass64>(char const*, google_breakpad::ElfClass64::Word, google_breakpad::ElfClass64::Shdr const*, char const*, char const*, int)
PUBLIC 2a6ad 0 Elf32_Phdr const* google_breakpad::GetOffset<google_breakpad::ElfClass32, Elf32_Phdr>(google_breakpad::ElfClass32::Ehdr const*, google_breakpad::ElfClass32::Off)
PUBLIC 2a6c4 0 google_breakpad::ElfSegment const& std::forward<google_breakpad::ElfSegment const&>(std::remove_reference<google_breakpad::ElfSegment const&>::type&)
PUBLIC 2a6d2 0 std::vector<google_breakpad::ElfSegment, google_breakpad::PageStdAllocator<google_breakpad::ElfSegment> >::push_back(google_breakpad::ElfSegment const&)
PUBLIC 2a73e 0 Elf64_Phdr const* google_breakpad::GetOffset<google_breakpad::ElfClass64, Elf64_Phdr>(google_breakpad::ElfClass64::Ehdr const*, google_breakpad::ElfClass64::Off)
PUBLIC 2a757 0 decltype (_S_construct({parm#1}, {parm#2}, (forward<google_breakpad::ElfSegment const&>)({parm#3}))) std::allocator_traits<google_breakpad::PageStdAllocator<google_breakpad::ElfSegment> >::construct<google_breakpad::ElfSegment, google_breakpad::ElfSegment const&>(google_breakpad::PageStdAllocator<google_breakpad::ElfSegment>&, google_breakpad::ElfSegment*, google_breakpad::ElfSegment const&)
PUBLIC 2a790 0 void std::vector<google_breakpad::ElfSegment, google_breakpad::PageStdAllocator<google_breakpad::ElfSegment> >::_M_emplace_back_aux<google_breakpad::ElfSegment const&>(google_breakpad::ElfSegment const&)
PUBLIC 2a97e 0 std::enable_if<std::__and_<std::allocator_traits<google_breakpad::PageStdAllocator<google_breakpad::ElfSegment> >::__construct_helper<google_breakpad::ElfSegment, google_breakpad::ElfSegment const&>::type>::value, void>::type std::allocator_traits<google_breakpad::PageStdAllocator<google_breakpad::ElfSegment> >::_S_construct<google_breakpad::ElfSegment, google_breakpad::ElfSegment const&>(google_breakpad::PageStdAllocator<google_breakpad::ElfSegment>&, google_breakpad::ElfSegment*, google_breakpad::ElfSegment const&)
PUBLIC 2a9b8 0 std::vector<google_breakpad::ElfSegment, google_breakpad::PageStdAllocator<google_breakpad::ElfSegment> >::_M_check_len(unsigned long, char const*) const
PUBLIC 2aa81 0 google_breakpad::ElfSegment* std::__uninitialized_move_if_noexcept_a<google_breakpad::ElfSegment*, google_breakpad::ElfSegment*, google_breakpad::PageStdAllocator<google_breakpad::ElfSegment> >(google_breakpad::ElfSegment*, google_breakpad::ElfSegment*, google_breakpad::ElfSegment*, google_breakpad::PageStdAllocator<google_breakpad::ElfSegment>&)
PUBLIC 2aad6 0 void __gnu_cxx::new_allocator<google_breakpad::ElfSegment>::construct<google_breakpad::ElfSegment, google_breakpad::ElfSegment const&>(google_breakpad::ElfSegment*, google_breakpad::ElfSegment const&)
PUBLIC 2ab29 0 google_breakpad::UTF8ToUTF16(char const*, std::vector<unsigned short, std::allocator<unsigned short> >*)
PUBLIC 2ac4b 0 google_breakpad::UTF8ToUTF16Char(char const*, int, unsigned short*)
PUBLIC 2ad01 0 google_breakpad::UTF32ToUTF16(wchar_t const*, std::vector<unsigned short, std::allocator<unsigned short> >*)
PUBLIC 2ae27 0 google_breakpad::UTF32ToUTF16Char(wchar_t, unsigned short*)
PUBLIC 2aeb6 0 google_breakpad::Swap(unsigned short)
PUBLIC 2aed4 0 google_breakpad::UTF16ToUTF8[abi:cxx11](std::vector<unsigned short, std::allocator<unsigned short> > const&, bool)
PUBLIC 2b198 0 std::vector<unsigned short, std::allocator<unsigned short> >::clear()
PUBLIC 2b1be 0 std::vector<unsigned short, std::allocator<unsigned short> >::begin()
PUBLIC 2b1e4 0 __gnu_cxx::__normal_iterator<unsigned short const*, std::vector<unsigned short, std::allocator<unsigned short> > >::__normal_iterator<unsigned short*>(__gnu_cxx::__normal_iterator<unsigned short*, __gnu_cxx::__enable_if<std::__are_same<unsigned short*, unsigned short*>::__value, std::vector<unsigned short, std::allocator<unsigned short> > >::__type> const&)
PUBLIC 2b20e 0 std::vector<unsigned short, std::allocator<unsigned short> >::insert(__gnu_cxx::__normal_iterator<unsigned short const*, std::vector<unsigned short, std::allocator<unsigned short> > >, unsigned long, unsigned short const&)
PUBLIC 2b2ac 0 std::vector<unsigned short, std::allocator<unsigned short> >::operator[](unsigned long)
PUBLIC 2b2cc 0 std::vector<unsigned short, std::allocator<unsigned short> >::capacity() const
PUBLIC 2b2f2 0 std::vector<unsigned short, std::allocator<unsigned short> >::resize(unsigned long)
PUBLIC 2b37e 0 std::vector<unsigned short, std::allocator<unsigned short> >::operator[](unsigned long) const
PUBLIC 2b39e 0 google_breakpad::scoped_array<unsigned short>::scoped_array(unsigned short*)
PUBLIC 2b3b8 0 google_breakpad::scoped_array<unsigned short>::~scoped_array()
PUBLIC 2b3e2 0 std::vector<unsigned short, std::allocator<unsigned short> >::size() const
PUBLIC 2b408 0 google_breakpad::scoped_array<unsigned short>::reset(unsigned short*)
PUBLIC 2b44e 0 google_breakpad::scoped_array<unsigned short>::get() const
PUBLIC 2b460 0 std::vector<unsigned short, std::allocator<unsigned short> >::begin() const
PUBLIC 2b490 0 std::vector<unsigned short, std::allocator<unsigned short> >::end() const
PUBLIC 2b4c1 0 bool __gnu_cxx::operator!=<unsigned short const*, std::vector<unsigned short, std::allocator<unsigned short> > >(__gnu_cxx::__normal_iterator<unsigned short const*, std::vector<unsigned short, std::allocator<unsigned short> > > const&, __gnu_cxx::__normal_iterator<unsigned short const*, std::vector<unsigned short, std::allocator<unsigned short> > > const&)
PUBLIC 2b4fe 0 __gnu_cxx::__normal_iterator<unsigned short const*, std::vector<unsigned short, std::allocator<unsigned short> > >::operator++()
PUBLIC 2b51e 0 __gnu_cxx::__normal_iterator<unsigned short const*, std::vector<unsigned short, std::allocator<unsigned short> > >::operator*() const
PUBLIC 2b530 0 google_breakpad::scoped_array<unsigned char>::scoped_array(unsigned char*)
PUBLIC 2b54a 0 google_breakpad::scoped_array<unsigned char>::~scoped_array()
PUBLIC 2b574 0 google_breakpad::scoped_array<unsigned char>::get() const
PUBLIC 2b586 0 std::vector<unsigned short, std::allocator<unsigned short> >::_M_erase_at_end(unsigned short*)
PUBLIC 2b5cc 0 __gnu_cxx::__normal_iterator<unsigned short*, std::vector<unsigned short, std::allocator<unsigned short> > >::__normal_iterator(unsigned short* const&)
PUBLIC 2b5ea 0 __gnu_cxx::__normal_iterator<unsigned short*, std::vector<unsigned short, std::allocator<unsigned short> > >::base() const
PUBLIC 2b5f8 0 std::vector<unsigned short, std::allocator<unsigned short> >::cbegin() const
PUBLIC 2b628 0 __gnu_cxx::__normal_iterator<unsigned short const*, std::vector<unsigned short, std::allocator<unsigned short> > >::difference_type __gnu_cxx::operator-<unsigned short const*, std::vector<unsigned short, std::allocator<unsigned short> > >(__gnu_cxx::__normal_iterator<unsigned short const*, std::vector<unsigned short, std::allocator<unsigned short> > > const&, __gnu_cxx::__normal_iterator<unsigned short const*, std::vector<unsigned short, std::allocator<unsigned short> > > const&)
PUBLIC 2b66a 0 std::vector<unsigned short, std::allocator<unsigned short> >::_M_fill_insert(__gnu_cxx::__normal_iterator<unsigned short*, std::vector<unsigned short, std::allocator<unsigned short> > >, unsigned long, unsigned short const&)
PUBLIC 2bad8 0 __gnu_cxx::__normal_iterator<unsigned short*, std::vector<unsigned short, std::allocator<unsigned short> > >::operator+(long) const
PUBLIC 2bb16 0 std::vector<unsigned short, std::allocator<unsigned short> >::_M_default_append(unsigned long)
PUBLIC 2bd1a 0 __gnu_cxx::__normal_iterator<unsigned short const*, std::vector<unsigned short, std::allocator<unsigned short> > >::__normal_iterator(unsigned short const* const&)
PUBLIC 2bd38 0 __gnu_cxx::__normal_iterator<unsigned short const*, std::vector<unsigned short, std::allocator<unsigned short> > >::base() const
PUBLIC 2bd46 0 std::_Vector_base<unsigned short, std::allocator<unsigned short> >::_M_get_Tp_allocator()
PUBLIC 2bd54 0 void std::_Destroy<unsigned short*, unsigned short>(unsigned short*, unsigned short*, std::allocator<unsigned short>&)
PUBLIC 2bd7e 0 std::vector<unsigned short, std::allocator<unsigned short> >::end()
PUBLIC 2bda7 0 __gnu_cxx::__normal_iterator<unsigned short*, std::vector<unsigned short, std::allocator<unsigned short> > >::difference_type __gnu_cxx::operator-<unsigned short*, std::vector<unsigned short, std::allocator<unsigned short> > >(__gnu_cxx::__normal_iterator<unsigned short*, std::vector<unsigned short, std::allocator<unsigned short> > > const&, __gnu_cxx::__normal_iterator<unsigned short*, std::vector<unsigned short, std::allocator<unsigned short> > > const&)
PUBLIC 2bde9 0 unsigned short* std::__uninitialized_move_a<unsigned short*, unsigned short*, std::allocator<unsigned short> >(unsigned short*, unsigned short*, unsigned short*, std::allocator<unsigned short>&)
PUBLIC 2be3d 0 unsigned short* std::move_backward<unsigned short*, unsigned short*>(unsigned short*, unsigned short*, unsigned short*)
PUBLIC 2be89 0 void std::fill<unsigned short*, unsigned short>(unsigned short*, unsigned short*, unsigned short const&)
PUBLIC 2bed6 0 unsigned short* std::__uninitialized_fill_n_a<unsigned short*, unsigned long, unsigned short, unsigned short>(unsigned short*, unsigned long, unsigned short const&, std::allocator<unsigned short>&)
PUBLIC 2bf08 0 std::vector<unsigned short, std::allocator<unsigned short> >::_M_check_len(unsigned long, char const*) const
PUBLIC 2bfd2 0 std::_Vector_base<unsigned short, std::allocator<unsigned short> >::_M_allocate(unsigned long)
PUBLIC 2c005 0 unsigned short* std::__uninitialized_move_if_noexcept_a<unsigned short*, unsigned short*, std::allocator<unsigned short> >(unsigned short*, unsigned short*, unsigned short*, std::allocator<unsigned short>&)
PUBLIC 2c05a 0 std::_Vector_base<unsigned short, std::allocator<unsigned short> >::_M_deallocate(unsigned short*, unsigned long)
PUBLIC 2c08f 0 unsigned short* std::__uninitialized_default_n_a<unsigned short*, unsigned long, unsigned short>(unsigned short*, unsigned long, std::allocator<unsigned short>&)
PUBLIC 2c0b8 0 void std::_Destroy<unsigned short*>(unsigned short*, unsigned short*)
PUBLIC 2c0de 0 std::move_iterator<unsigned short*> std::make_move_iterator<unsigned short*>(unsigned short*)
PUBLIC 2c103 0 unsigned short* std::__uninitialized_copy_a<std::move_iterator<unsigned short*>, unsigned short*, unsigned short>(std::move_iterator<unsigned short*>, std::move_iterator<unsigned short*>, unsigned short*, std::allocator<unsigned short>&)
PUBLIC 2c134 0 unsigned short* std::__miter_base<unsigned short*>(unsigned short*)
PUBLIC 2c142 0 unsigned short* std::__copy_move_backward_a2<true, unsigned short*, unsigned short*>(unsigned short*, unsigned short*, unsigned short*)
PUBLIC 2c19a 0 unsigned short* std::__niter_base<unsigned short*>(unsigned short*)
PUBLIC 2c1a8 0 __gnu_cxx::__enable_if<std::__is_scalar<unsigned short>::__value, void>::__type std::__fill_a<unsigned short*, unsigned short>(unsigned short*, unsigned short*, unsigned short const&)
PUBLIC 2c1e2 0 unsigned short* std::uninitialized_fill_n<unsigned short*, unsigned long, unsigned short>(unsigned short*, unsigned long, unsigned short const&)
PUBLIC 2c214 0 std::vector<unsigned short, std::allocator<unsigned short> >::max_size() const
PUBLIC 2c236 0 std::allocator_traits<std::allocator<unsigned short> >::allocate(std::allocator<unsigned short>&, unsigned long)
PUBLIC 2c260 0 std::move_iterator<unsigned short*> std::__make_move_if_noexcept_iterator<unsigned short, std::move_iterator<unsigned short*> >(unsigned short*)
PUBLIC 2c285 0 std::allocator_traits<std::allocator<unsigned short> >::deallocate(std::allocator<unsigned short>&, unsigned short*, unsigned long)
PUBLIC 2c2b3 0 unsigned short* std::__uninitialized_default_n<unsigned short*, unsigned long>(unsigned short*, unsigned long)
PUBLIC 2c2dc 0 void std::_Destroy_aux<true>::__destroy<unsigned short*>(unsigned short*, unsigned short*)
PUBLIC 2c2ec 0 std::move_iterator<unsigned short*>::move_iterator(unsigned short*)
PUBLIC 2c306 0 unsigned short* std::uninitialized_copy<std::move_iterator<unsigned short*>, unsigned short*>(std::move_iterator<unsigned short*>, std::move_iterator<unsigned short*>, unsigned short*)
PUBLIC 2c337 0 unsigned short* std::__copy_move_backward_a<true, unsigned short*, unsigned short*>(unsigned short*, unsigned short*, unsigned short*)
PUBLIC 2c368 0 unsigned short* std::__uninitialized_fill_n<true>::__uninit_fill_n<unsigned short*, unsigned long, unsigned short>(unsigned short*, unsigned long, unsigned short const&)
PUBLIC 2c395 0 std::allocator_traits<std::allocator<unsigned short> >::max_size(std::allocator<unsigned short> const&)
PUBLIC 2c3b0 0 std::_Vector_base<unsigned short, std::allocator<unsigned short> >::_M_get_Tp_allocator() const
PUBLIC 2c3be 0 __gnu_cxx::new_allocator<unsigned short>::allocate(unsigned long, void const*)
PUBLIC 2c400 0 __gnu_cxx::new_allocator<unsigned short>::deallocate(unsigned short*, unsigned long)
PUBLIC 2c423 0 unsigned short* std::__uninitialized_default_n_1<true>::__uninit_default_n<unsigned short*, unsigned long>(unsigned short*, unsigned long)
PUBLIC 2c452 0 unsigned short* std::__uninitialized_copy<true>::__uninit_copy<std::move_iterator<unsigned short*>, unsigned short*>(std::move_iterator<unsigned short*>, std::move_iterator<unsigned short*>, unsigned short*)
PUBLIC 2c47f 0 unsigned short* std::__copy_move_backward<true, true, std::random_access_iterator_tag>::__copy_move_b<unsigned short>(unsigned short const*, unsigned short const*, unsigned short*)
PUBLIC 2c4f0 0 unsigned short* std::fill_n<unsigned short*, unsigned long, unsigned short>(unsigned short*, unsigned long, unsigned short const&)
PUBLIC 2c528 0 __gnu_cxx::new_allocator<unsigned short>::max_size() const
PUBLIC 2c53c 0 unsigned short* std::copy<std::move_iterator<unsigned short*>, unsigned short*>(std::move_iterator<unsigned short*>, std::move_iterator<unsigned short*>, unsigned short*)
PUBLIC 2c588 0 __gnu_cxx::__enable_if<std::__is_scalar<unsigned short>::__value, unsigned short*>::__type std::__fill_n_a<unsigned short*, unsigned long, unsigned short>(unsigned short*, unsigned long, unsigned short const&)
PUBLIC 2c5cf 0 decltype (__miter_base(({parm#1}.base)())) std::__miter_base<unsigned short*>(std::move_iterator<unsigned short*>)
PUBLIC 2c5f1 0 unsigned short* std::__copy_move_a2<true, unsigned short*, unsigned short*>(unsigned short*, unsigned short*, unsigned short*)
PUBLIC 2c64a 0 std::move_iterator<unsigned short*>::base() const
PUBLIC 2c65b 0 unsigned short* std::__copy_move_a<true, unsigned short*, unsigned short*>(unsigned short*, unsigned short*, unsigned short*)
PUBLIC 2c68c 0 unsigned short* std::__copy_move<true, true, std::random_access_iterator_tag>::__copy_m<unsigned short>(unsigned short const*, unsigned short const*, unsigned short*)
PUBLIC 2c6e8 0 ConvertUTF32toUTF16
PUBLIC 2c869 0 ConvertUTF16toUTF32
PUBLIC 2c9e2 0 ConvertUTF16toUTF8
PUBLIC 2cc8b 0 isLegalUTF8
PUBLIC 2cdf4 0 isLegalUTF8Sequence
PUBLIC 2ce52 0 ConvertUTF8toUTF16
PUBLIC 2d13b 0 ConvertUTF32toUTF8
PUBLIC 2d335 0 ConvertUTF8toUTF32
PUBLIC 2d58c 0 google_breakpad::ThreadInfo::GetInstructionPointer() const
PUBLIC 2d5a2 0 google_breakpad::ThreadInfo::FillCPUContext(MDRawContextAMD64*) const
PUBLIC 2d920 0 google_breakpad::ThreadInfo::GetGeneralPurposeRegisters(void**, unsigned long*)
PUBLIC 2d98c 0 google_breakpad::ThreadInfo::GetFloatingPointRegisters(void**, unsigned long*)
PUBLIC 2d9fc 0 google_breakpad::UContextReader::GetStackPointer(ucontext const*)
PUBLIC 2da12 0 google_breakpad::UContextReader::GetInstructionPointer(ucontext const*)
PUBLIC 2da28 0 google_breakpad::UContextReader::FillCPUContext(MDRawContextAMD64*, ucontext const*, _libc_fpstate const*)
PUBLIC 2dd52 0 sys_mmap
PUBLIC 2dde0 0 (anonymous namespace)::MicrodumpWriter::MicrodumpWriter(google_breakpad::ExceptionHandler::CrashContext const*, std::__cxx11::list<google_breakpad::MappingEntry, std::allocator<google_breakpad::MappingEntry> > const&, bool, unsigned long, bool, google_breakpad::MicrodumpExtraInfo const&, google_breakpad::LinuxDumper*)
PUBLIC 2df1c 0 (anonymous namespace)::MicrodumpWriter::~MicrodumpWriter()
PUBLIC 2df4a 0 (anonymous namespace)::MicrodumpWriter::Init()
PUBLIC 2dff6 0 (anonymous namespace)::MicrodumpWriter::Dump()
PUBLIC 2e0c2 0 (anonymous namespace)::MicrodumpWriter::LogLine(char const*)
PUBLIC 2e104 0 (anonymous namespace)::MicrodumpWriter::LogAppend(char const*)
PUBLIC 2e134 0 (anonymous namespace)::MicrodumpWriter::LogAppend(char*)
PUBLIC 2e15a 0 (anonymous namespace)::MicrodumpWriter::LogAppend(void const*, unsigned long)
PUBLIC 2e1b0 0 (anonymous namespace)::MicrodumpWriter::LogCommitLine()
PUBLIC 2e1e2 0 (anonymous namespace)::MicrodumpWriter::CaptureCrashingThreadStack(int)
PUBLIC 2e3d2 0 (anonymous namespace)::MicrodumpWriter::DumpProductInformation()
PUBLIC 2e43a 0 (anonymous namespace)::MicrodumpWriter::DumpProcessType()
PUBLIC 2e4a2 0 (anonymous namespace)::MicrodumpWriter::DumpCrashReason()
PUBLIC 2e55a 0 (anonymous namespace)::MicrodumpWriter::DumpOSInformation()
PUBLIC 2e742 0 (anonymous namespace)::MicrodumpWriter::DumpGPUInformation()
PUBLIC 2e7aa 0 (anonymous namespace)::MicrodumpWriter::DumpThreadStack()
PUBLIC 2e954 0 (anonymous namespace)::MicrodumpWriter::DumpCPUState()
PUBLIC 2e9ec 0 (anonymous namespace)::MicrodumpWriter::HaveMappingInfo(google_breakpad::MappingInfo const&)
PUBLIC 2eaca 0 (anonymous namespace)::MicrodumpWriter::DumpModule(google_breakpad::MappingInfo const&, bool, unsigned int, unsigned char const*)
PUBLIC 2ee86 0 (anonymous namespace)::MicrodumpWriter::DumpMappings()
PUBLIC 2eff6 0 (anonymous namespace)::MicrodumpWriter::Alloc(unsigned int)
PUBLIC 2f02b 0 google_breakpad::WriteMicrodump(int, void const*, unsigned long, std::__cxx11::list<google_breakpad::MappingEntry, std::allocator<google_breakpad::MappingEntry> > const&, bool, unsigned long, bool, google_breakpad::MicrodumpExtraInfo const&)
PUBLIC 2f1b0 0 void (anonymous namespace)::MicrodumpWriter::LogAppend<unsigned char>(unsigned char)
PUBLIC 2f216 0 void (anonymous namespace)::MicrodumpWriter::LogAppend<int>(int)
PUBLIC 2f276 0 void (anonymous namespace)::MicrodumpWriter::LogAppend<unsigned long>(unsigned long)
PUBLIC 2f2da 0 void (anonymous namespace)::MicrodumpWriter::LogAppend<unsigned int>(unsigned int)
PUBLIC 2f33a 0 void (anonymous namespace)::MicrodumpWriter::LogAppend<unsigned short>(unsigned short)
PUBLIC 2f3a6 0 buggyFunc()
PUBLIC 2f3ca 0 isSingleInstanceRunning(QString)
PUBLIC 2f4df 0 startSingleInstanceServer(QString)
PUBLIC 2f56c 0 main::{lambda()#1}::operator()() const
PUBLIC 2f5a6 0 main::{lambda()#2}::operator()() const
PUBLIC 2f5e0 0 main
PUBLIC 3048c 0 QtPrivate::RefCount::ref()
PUBLIC 304ce 0 QString::operator=(QString&&)
PUBLIC 304f8 0 QString::operator+=(QString const&)
PUBLIC 3051d 0 QString::fromUtf8(char const*, int)
PUBLIC 30566 0 QString::QString(char const*)
PUBLIC 305ae 0 QString::QString(QStringDataPtr)
PUBLIC 305c8 0 QString::length() const
PUBLIC 305dc 0 QString::constData() const
PUBLIC 305fa 0 QString::QString(QString const&)
PUBLIC 3062a 0 QString::~QString()
PUBLIC 3065e 0 operator+(QString const&, char const*)
PUBLIC 306f5 0 operator+(char const*, QString const&)
PUBLIC 3075c 0 QtSharedPointer::ExternalRefCountData::~ExternalRefCountData()
PUBLIC 30768 0 QtSharedPointer::ExternalRefCountData::destroy()
PUBLIC 30788 0 QtSharedPointer::ExternalRefCountData::operator delete(void*)
PUBLIC 307a4 0 QFlags<QIODevice::OpenModeFlag>::QFlags(QIODevice::OpenModeFlag)
PUBLIC 307bc 0 QDebug::maybeSpace()
PUBLIC 307f2 0 QDebug::operator<<(char const*)
PUBLIC 30870 0 QDebug::operator<<(QString const&)
PUBLIC 308c4 0 QFlags<QLocalServer::SocketOption>::QFlags(QLocalServer::SocketOption)
PUBLIC 308dc 0 CuteMessageLogger::CuteMessageLogger(Logger*, Logger::LogLevel, char const*, int, char const*)
PUBLIC 3093e 0 AutomationStudio::setCoreApplication(QCoreApplication*)
PUBLIC 30984 0 QBasicAtomicInteger<int>::ref()
PUBLIC 3099e 0 void qSwap<QTypedArrayData<unsigned short>*>(QTypedArrayData<unsigned short>*&, QTypedArrayData<unsigned short>*&)
PUBLIC 309c4 0 QTypedArrayData<unsigned short>::data()
PUBLIC 309de 0 QTypedArrayData<unsigned short>::deallocate(QArrayData*)
PUBLIC 30a04 0 QStaticStringData<21>::data_ptr() const
PUBLIC 30a12 0 QSharedPointer<AutomationStudio>::~QSharedPointer()
PUBLIC 30a2e 0 QSharedPointer<AutomationStudio>::operator->() const
PUBLIC 30a48 0 QStaticStringData<13>::data_ptr() const
PUBLIC 30a56 0 bool QAtomicOps<int>::ref<int>(std::atomic<int>&)
PUBLIC 30a75 0 std::remove_reference<QTypedArrayData<unsigned short>*&>::type&& std::move<QTypedArrayData<unsigned short>*&>(QTypedArrayData<unsigned short>*&)
PUBLIC 30a83 0 std::enable_if<std::__and_<std::is_move_constructible<QTypedArrayData<unsigned short>*>, std::is_move_assignable<QTypedArrayData<unsigned short>*> >::value, void>::type std::swap<QTypedArrayData<unsigned short>*>(QTypedArrayData<unsigned short>*&, QTypedArrayData<unsigned short>*&)
PUBLIC 30ad6 0 QSharedPointer<AutomationStudio>::deref()
PUBLIC 30af6 0 QSharedPointer<AutomationStudio>::data() const
PUBLIC 30b08 0 std::__atomic_base<int>::operator++()
PUBLIC 30b22 0 QSharedPointer<AutomationStudio>::deref(QtSharedPointer::ExternalRefCountData*)
PUBLIC 30b90 0 AutomationStudio::AutomationStudio(QQmlApplicationEngine*, QObject*)::{lambda()#1}::operator()() const
PUBLIC 30c52 0 AutomationStudio::AutomationStudio(QQmlApplicationEngine*, QObject*)
PUBLIC 31068 0 AutomationStudio::~AutomationStudio()
PUBLIC 31102 0 AutomationStudio::~AutomationStudio()
PUBLIC 3112e 0 AutomationStudio::create(int, char const* const*, QQmlApplicationEngine*, QObject*)
PUBLIC 311a6 0 AutomationStudio::solveImportPaths()
PUBLIC 312c0 0 AutomationStudio::loadPlugins()
PUBLIC 318f6 0 AutomationStudio::loadQml(QUrl const&)
PUBLIC 31920 0 AutomationStudio::loadInternalPlugins()
PUBLIC 31cb9 0 std::remove_reference<AutomationStudio::AutomationStudio(QQmlApplicationEngine*, QObject*)::{lambda()#1}&>::type&& std::move<AutomationStudio::AutomationStudio(QQmlApplicationEngine*, QObject*)::{lambda()#1}&>(std::remove_reference&&)
PUBLIC 31cc7 0 std::enable_if<QtPrivate::FunctionPointer<AutomationStudio::AutomationStudio(QQmlApplicationEngine*, QObject*)::{lambda()#1}>::ArgumentCount==(-1), QMetaObject::Connection>::type QObject::connect<void (Settings::*)(), AutomationStudio::AutomationStudio(QQmlApplicationEngine*, QObject*)::{lambda()#1}>(QtPrivate<void (Settings::*)()>::Object const*, std::enable_if<QtPrivate::FunctionPointer<AutomationStudio::AutomationStudio(QQmlApplicationEngine*, QObject*)::{lambda()#1}>::ArgumentCount==(-1), QMetaObject::Connection>::type, QObject const*, QtPrivate::FunctionPointer, Qt::ConnectionType)
PUBLIC 31d84 0 QtPrivate::QFunctorSlotObject<AutomationStudio::AutomationStudio(QQmlApplicationEngine*, QObject*)::{lambda()#1}, 0, QtPrivate::List<>, void>::QFunctorSlotObject({lambda()#1})
PUBLIC 31dc4 0 QtPrivate::QFunctorSlotObject<AutomationStudio::AutomationStudio(QQmlApplicationEngine*, QObject*)::{lambda()#1}, 0, QtPrivate::List<>, void>::~QFunctorSlotObject()
PUBLIC 31ddf 0 QtPrivate::QFunctorSlotObject<AutomationStudio::AutomationStudio(QQmlApplicationEngine*, QObject*)::{lambda()#1}, 0, QtPrivate::List<>, void>::impl(int, QtPrivate::QSlotObjectBase*, QObject*, void**, bool*)
PUBLIC 31e4f 0 void QtPrivate::Functor<AutomationStudio::AutomationStudio(QQmlApplicationEngine*, QObject*)::{lambda()#1}, 0>::call<QtPrivate::List<>, void>({lambda()#1}&, void*, {lambda()#1}&*)
PUBLIC 31e79 0 QtPrivate::FunctorCall<QtPrivate::IndexesList<>, QtPrivate::List<>, void, AutomationStudio::AutomationStudio(QQmlApplicationEngine*, QObject*)::{lambda()#1}>::call({lambda()#1}&, void**)
PUBLIC 31eae 0 __static_initialization_and_destruction_0(int, int)
PUBLIC 31ef7 0 _GLOBAL__sub_I_automationstudio.cpp
PUBLIC 31f0c 0 QFlag::QFlag(int)
PUBLIC 31f24 0 QFlag::operator int() const
PUBLIC 31f34 0 QFlag::QFlag(unsigned int)
PUBLIC 31f4c 0 QFlag::operator unsigned int() const
PUBLIC 31f5c 0 std::__atomic_base<int>::__atomic_base(int)
PUBLIC 31f74 0 std::atomic<int>::atomic(int)
PUBLIC 31f98 0 QBasicAtomicInteger<int>::QBasicAtomicInteger(int)
PUBLIC 31fbc 0 QAtomicInteger<int>::QAtomicInteger(int)
PUBLIC 31fe0 0 QAtomicInt::QAtomicInt(int)
PUBLIC 32004 0 QtPrivate::RefCount::isShared() const
PUBLIC 3203a 0 QFlags<QArrayData::AllocationOption>::operator|=(QArrayData::AllocationOption)
PUBLIC 3205c 0 QArrayData::detachFlags() const
PUBLIC 32094 0 QArrayData::sharedNull()
PUBLIC 320a2 0 QFlags<QArrayData::AllocationOption>::QFlags(QFlag)
PUBLIC 320c8 0 QFlags<QArrayData::AllocationOption>::operator|(QArrayData::AllocationOption) const
PUBLIC 32106 0 QByteArray::QByteArray()
PUBLIC 32124 0 QByteArray::size() const
PUBLIC 32138 0 unsigned int const& qMax<unsigned int>(unsigned int const&, unsigned int const&)
PUBLIC 32160 0 QByteArray::reserve(int)
PUBLIC 3222a 0 QString::QString()
PUBLIC 32248 0 int const& qMax<int>(int const&, int const&)
PUBLIC 32270 0 QtPrivate::QSlotObjectBase::QSlotObjectBase(void (*)(int, QtPrivate::QSlotObjectBase*, QObject*, void**, bool*))
PUBLIC 322a0 0 QtPrivate::QSlotObjectBase::~QSlotObjectBase()
PUBLIC 322ac 0 QListData::dispose()
PUBLIC 322ca 0 QListData::size() const
PUBLIC 322ec 0 QListData::at(int) const
PUBLIC 32320 0 QListData::begin() const
PUBLIC 32348 0 QListData::end() const
PUBLIC 32370 0 QListSpecialMethods<QString>::~QListSpecialMethods()
PUBLIC 3237c 0 QStringList::QStringList()
PUBLIC 32398 0 QStringList::~QStringList()
PUBLIC 323b4 0 QStringList::QStringList(QStringList&&)
PUBLIC 323da 0 QStringList::operator<<(QString const&)
PUBLIC 32403 0 QtPrivate::ConnectionTypes<QtPrivate::List<>, true>::types()
PUBLIC 3240e 0 std::__atomic_base<int>::__atomic_base()
PUBLIC 3241a 0 std::atomic<int>::atomic()
PUBLIC 32436 0 QBasicAtomicInteger<int>::QBasicAtomicInteger()
PUBLIC 32452 0 QtSharedPointer::ExternalRefCountData::ExternalRefCountData(void (*)(QtSharedPointer::ExternalRefCountData*))
PUBLIC 324b4 0 QDebug::QDebug(QDebug const&)
PUBLIC 324e1 0 QCoreApplication::instance()
PUBLIC 324f2 0 AutomationStudio::coreApplication() const
PUBLIC 32504 0 AutomationStudio::setReleaseVersion(QString)
PUBLIC 325a2 0 AutomationStudio::setBuildInfo(QString)
PUBLIC 32640 0 AutomationStudio::dir() const
PUBLIC 32652 0 QFlags<QDir::Filter>::QFlags(QDir::Filter)
PUBLIC 3266a 0 QFlags<QDir::Filter>::QFlags(QFlag)
PUBLIC 32690 0 QFlags<QDir::SortFlag>::QFlags(QDir::SortFlag)
PUBLIC 326a8 0 QFlags<QDir::Filter>::operator|(QDir::Filter) const
PUBLIC 326e6 0 operator|(QDir::Filter, QDir::Filter)
PUBLIC 32718 0 QtPrivate::QForeachContainer<QStringList>::~QForeachContainer()
PUBLIC 32734 0 QBasicAtomicInteger<int>::store(int)
PUBLIC 32757 0 QTypedArrayData<char>::sharedNull()
PUBLIC 32762 0 QTypedArrayData<unsigned short>::sharedNull()
PUBLIC 3276e 0 QListSpecialMethods<QString>::QListSpecialMethods()
PUBLIC 3277a 0 QList<QString>::QList()
PUBLIC 327a4 0 QList<QString>::~QList()
PUBLIC 327ec 0 QList<QString>::append(QString const&)
PUBLIC 328e4 0 QList<QString>::QList(QList<QString>&&)
PUBLIC 32920 0 QBasicAtomicInteger<int>::loadAcquire() const
PUBLIC 3293a 0 QBasicAtomicInteger<int>::storeRelease(int)
PUBLIC 3295e 0 QList<QString>::operator[](int)
PUBLIC 32994 0 QSharedPointer<AutomationStudio>::QSharedPointer<AutomationStudio>(AutomationStudio*)
PUBLIC 329ce 0 QList<QString>::removeAll(QString const&)
PUBLIC 32b2c 0 QStringList&& std::forward<QStringList>(std::remove_reference<QStringList>::type&)
PUBLIC 32b3a 0 QtPrivate::QForeachContainer<std::decay<QStringList>::type> QtPrivate::qMakeForeachContainer<QStringList>(QStringList&&)
PUBLIC 32b6e 0 std::remove_reference<QStringList&>::type&& std::move<QStringList&>(QStringList&)
PUBLIC 32b7c 0 std::add_const<QStringList>::type& qAsConst<QStringList>(QStringList&)
PUBLIC 32b8a 0 QList<QString>::const_iterator::operator!=(QList<QString>::const_iterator const&) const
PUBLIC 32bac 0 QList<QString>::const_iterator::operator++()
PUBLIC 32bcc 0 QList<QString>::const_iterator::operator*() const
PUBLIC 32bea 0 QQmlPrivate::RegisterType::~RegisterType()
PUBLIC 32c09 0 int qmlRegisterUncreatableType<AutomationStudio>(char const*, int, int, char const*, QString const&)
PUBLIC 32f70 0 int qmlRegisterUncreatableType<QCoreApplication>(char const*, int, int, char const*, QString const&)
PUBLIC 332d7 0 int qmlRegisterUncreatableType<Settings>(char const*, int, int, char const*, QString const&)
PUBLIC 3363e 0 int qmlRegisterUncreatableType<Utilities>(char const*, int, int, char const*, QString const&)
PUBLIC 339a5 0 int qmlRegisterUncreatableType<SystemSettings>(char const*, int, int, char const*, QString const&)
PUBLIC 33d0c 0 int qmlRegisterUncreatableType<SocketIO>(char const*, int, int, char const*, QString const&)
PUBLIC 34073 0 int qmlRegisterUncreatableType<AppUpdater>(char const*, int, int, char const*, QString const&)
PUBLIC 343da 0 void QAtomicOps<int>::store<int>(std::atomic<int>&, int)
PUBLIC 34420 0 QList<QString>::dealloc(QListData::Data*)
PUBLIC 3447e 0 QList<QString>::detach_helper_grow(int, int)
PUBLIC 34654 0 QList<QString>::node_construct(QList<QString>::Node*, QString const&)
PUBLIC 34690 0 QList<QString>::node_destruct(QList<QString>::Node*)
PUBLIC 346b0 0 QList<QString>::node_copy(QList<QString>::Node*, QList<QString>::Node*, QList<QString>::Node*)
PUBLIC 3470e 0 int QAtomicOps<int>::loadAcquire<int>(std::atomic<int> const&)
PUBLIC 34744 0 QFlags<QMetaType::TypeFlag>::operator|=(QMetaType::TypeFlag)
PUBLIC 34766 0 void QAtomicOps<int>::storeRelease<int>(std::atomic<int>&, int)
PUBLIC 347ac 0 QList<QString>::detach()
PUBLIC 347da 0 QList<QString>::Node::t()
PUBLIC 347e8 0 void QSharedPointer<AutomationStudio>::internalConstruct<AutomationStudio, QtSharedPointer::NormalDeleter>(AutomationStudio*, QtSharedPointer::NormalDeleter)
PUBLIC 34876 0 QList<QString>::indexOf(QString const&, int) const
PUBLIC 34962 0 QtPrivate::QForeachContainer<QStringList>::QForeachContainer(QStringList&&)
PUBLIC 349e2 0 QList<QString>::begin() const
PUBLIC 34a16 0 QList<QString>::end() const
PUBLIC 34a4a 0 QVarLengthArray<char, 48>::QVarLengthArray(int)
PUBLIC 34aca 0 QVarLengthArray<char, 48>::~QVarLengthArray()
PUBLIC 34afe 0 QVarLengthArray<char, 48>::data()
PUBLIC 34b10 0 QVarLengthArray<char, 48>::operator[](int)
PUBLIC 34b2e 0 QVarLengthArray<char, 64>::QVarLengthArray(int)
PUBLIC 34bae 0 QVarLengthArray<char, 64>::~QVarLengthArray()
PUBLIC 34be2 0 QVarLengthArray<char, 64>::data()
PUBLIC 34bf4 0 QVarLengthArray<char, 64>::operator[](int)
PUBLIC 34c12 0 QVarLengthArray<char, 48>::constData() const
PUBLIC 34c24 0 QMetaTypeId2<AutomationStudio*>::qt_metatype_id()
PUBLIC 34c2f 0 QtPrivate::QMetaTypeIdHelper<AutomationStudio*, true>::qt_metatype_id()
PUBLIC 34c3a 0 int qRegisterNormalizedMetaType<AutomationStudio*>(QByteArray const&, AutomationStudio**, QtPrivate::MetaTypeDefinedHelper<AutomationStudio*, QMetaTypeId2<AutomationStudio*>::Defined&&(!QMetaTypeId2<AutomationStudio*>::IsBuiltIn)>::DefinedType)
PUBLIC 34d04 0 QVarLengthArray<char, 64>::constData() const
PUBLIC 34d16 0 QtPrivate::QMetaTypeIdHelper<QQmlListProperty<AutomationStudio>, false>::qt_metatype_id()
PUBLIC 34d21 0 int qRegisterNormalizedMetaType<QQmlListProperty<AutomationStudio> >(QByteArray const&, QQmlListProperty<AutomationStudio>*, QtPrivate::MetaTypeDefinedHelper<QQmlListProperty<AutomationStudio>, QMetaTypeId2<QQmlListProperty<AutomationStudio> >::Defined&&(!QMetaTypeId2<QQmlListProperty<AutomationStudio> >::IsBuiltIn)>::DefinedType)
PUBLIC 34dea 0 QObject* (*QQmlPrivate::attachedPropertiesFunc<AutomationStudio>())(QObject*)
PUBLIC 34df5 0 QMetaObject const* QQmlPrivate::attachedPropertiesMetaObject<AutomationStudio>()
PUBLIC 34e00 0 QQmlPrivate::StaticCastSelector<AutomationStudio, QQmlParserStatus>::cast()
PUBLIC 34e0b 0 QQmlPrivate::StaticCastSelector<AutomationStudio, QQmlPropertyValueSource>::cast()
PUBLIC 34e16 0 QQmlPrivate::StaticCastSelector<AutomationStudio, QQmlPropertyValueInterceptor>::cast()
PUBLIC 34e21 0 QMetaTypeId2<QCoreApplication*>::qt_metatype_id()
PUBLIC 34e2c 0 QtPrivate::QMetaTypeIdHelper<QCoreApplication*, true>::qt_metatype_id()
PUBLIC 34e37 0 int qRegisterNormalizedMetaType<QCoreApplication*>(QByteArray const&, QCoreApplication**, QtPrivate::MetaTypeDefinedHelper<QCoreApplication*, QMetaTypeId2<QCoreApplication*>::Defined&&(!QMetaTypeId2<QCoreApplication*>::IsBuiltIn)>::DefinedType)
PUBLIC 34f00 0 QtPrivate::QMetaTypeIdHelper<QQmlListProperty<QCoreApplication>, false>::qt_metatype_id()
PUBLIC 34f0b 0 int qRegisterNormalizedMetaType<QQmlListProperty<QCoreApplication> >(QByteArray const&, QQmlListProperty<QCoreApplication>*, QtPrivate::MetaTypeDefinedHelper<QQmlListProperty<QCoreApplication>, QMetaTypeId2<QQmlListProperty<QCoreApplication> >::Defined&&(!QMetaTypeId2<QQmlListProperty<QCoreApplication> >::IsBuiltIn)>::DefinedType)
PUBLIC 34fd4 0 QObject* (*QQmlPrivate::attachedPropertiesFunc<QCoreApplication>())(QObject*)
PUBLIC 34fdf 0 QMetaObject const* QQmlPrivate::attachedPropertiesMetaObject<QCoreApplication>()
PUBLIC 34fea 0 QQmlPrivate::StaticCastSelector<QCoreApplication, QQmlParserStatus>::cast()
PUBLIC 34ff5 0 QQmlPrivate::StaticCastSelector<QCoreApplication, QQmlPropertyValueSource>::cast()
PUBLIC 35000 0 QQmlPrivate::StaticCastSelector<QCoreApplication, QQmlPropertyValueInterceptor>::cast()
PUBLIC 3500b 0 QMetaTypeId2<Settings*>::qt_metatype_id()
PUBLIC 35016 0 QtPrivate::QMetaTypeIdHelper<Settings*, true>::qt_metatype_id()
PUBLIC 35021 0 int qRegisterNormalizedMetaType<Settings*>(QByteArray const&, Settings**, QtPrivate::MetaTypeDefinedHelper<Settings*, QMetaTypeId2<Settings*>::Defined&&(!QMetaTypeId2<Settings*>::IsBuiltIn)>::DefinedType)
PUBLIC 350ea 0 QtPrivate::QMetaTypeIdHelper<QQmlListProperty<Settings>, false>::qt_metatype_id()
PUBLIC 350f5 0 int qRegisterNormalizedMetaType<QQmlListProperty<Settings> >(QByteArray const&, QQmlListProperty<Settings>*, QtPrivate::MetaTypeDefinedHelper<QQmlListProperty<Settings>, QMetaTypeId2<QQmlListProperty<Settings> >::Defined&&(!QMetaTypeId2<QQmlListProperty<Settings> >::IsBuiltIn)>::DefinedType)
PUBLIC 351be 0 QObject* (*QQmlPrivate::attachedPropertiesFunc<Settings>())(QObject*)
PUBLIC 351c9 0 QMetaObject const* QQmlPrivate::attachedPropertiesMetaObject<Settings>()
PUBLIC 351d4 0 QQmlPrivate::StaticCastSelector<Settings, QQmlParserStatus>::cast()
PUBLIC 351df 0 QQmlPrivate::StaticCastSelector<Settings, QQmlPropertyValueSource>::cast()
PUBLIC 351ea 0 QQmlPrivate::StaticCastSelector<Settings, QQmlPropertyValueInterceptor>::cast()
PUBLIC 351f5 0 QMetaTypeId2<Utilities*>::qt_metatype_id()
PUBLIC 35200 0 QtPrivate::QMetaTypeIdHelper<Utilities*, true>::qt_metatype_id()
PUBLIC 3520b 0 int qRegisterNormalizedMetaType<Utilities*>(QByteArray const&, Utilities**, QtPrivate::MetaTypeDefinedHelper<Utilities*, QMetaTypeId2<Utilities*>::Defined&&(!QMetaTypeId2<Utilities*>::IsBuiltIn)>::DefinedType)
PUBLIC 352d4 0 QtPrivate::QMetaTypeIdHelper<QQmlListProperty<Utilities>, false>::qt_metatype_id()
PUBLIC 352df 0 int qRegisterNormalizedMetaType<QQmlListProperty<Utilities> >(QByteArray const&, QQmlListProperty<Utilities>*, QtPrivate::MetaTypeDefinedHelper<QQmlListProperty<Utilities>, QMetaTypeId2<QQmlListProperty<Utilities> >::Defined&&(!QMetaTypeId2<QQmlListProperty<Utilities> >::IsBuiltIn)>::DefinedType)
PUBLIC 353a8 0 QObject* (*QQmlPrivate::attachedPropertiesFunc<Utilities>())(QObject*)
PUBLIC 353b3 0 QMetaObject const* QQmlPrivate::attachedPropertiesMetaObject<Utilities>()
PUBLIC 353be 0 QQmlPrivate::StaticCastSelector<Utilities, QQmlParserStatus>::cast()
PUBLIC 353c9 0 QQmlPrivate::StaticCastSelector<Utilities, QQmlPropertyValueSource>::cast()
PUBLIC 353d4 0 QQmlPrivate::StaticCastSelector<Utilities, QQmlPropertyValueInterceptor>::cast()
PUBLIC 353df 0 QMetaTypeId2<SystemSettings*>::qt_metatype_id()
PUBLIC 353ea 0 QtPrivate::QMetaTypeIdHelper<SystemSettings*, true>::qt_metatype_id()
PUBLIC 353f5 0 int qRegisterNormalizedMetaType<SystemSettings*>(QByteArray const&, SystemSettings**, QtPrivate::MetaTypeDefinedHelper<SystemSettings*, QMetaTypeId2<SystemSettings*>::Defined&&(!QMetaTypeId2<SystemSettings*>::IsBuiltIn)>::DefinedType)
PUBLIC 354be 0 QtPrivate::QMetaTypeIdHelper<QQmlListProperty<SystemSettings>, false>::qt_metatype_id()
PUBLIC 354c9 0 int qRegisterNormalizedMetaType<QQmlListProperty<SystemSettings> >(QByteArray const&, QQmlListProperty<SystemSettings>*, QtPrivate::MetaTypeDefinedHelper<QQmlListProperty<SystemSettings>, QMetaTypeId2<QQmlListProperty<SystemSettings> >::Defined&&(!QMetaTypeId2<QQmlListProperty<SystemSettings> >::IsBuiltIn)>::DefinedType)
PUBLIC 35592 0 QObject* (*QQmlPrivate::attachedPropertiesFunc<SystemSettings>())(QObject*)
PUBLIC 3559d 0 QMetaObject const* QQmlPrivate::attachedPropertiesMetaObject<SystemSettings>()
PUBLIC 355a8 0 QQmlPrivate::StaticCastSelector<SystemSettings, QQmlParserStatus>::cast()
PUBLIC 355b3 0 QQmlPrivate::StaticCastSelector<SystemSettings, QQmlPropertyValueSource>::cast()
PUBLIC 355be 0 QQmlPrivate::StaticCastSelector<SystemSettings, QQmlPropertyValueInterceptor>::cast()
PUBLIC 355c9 0 QMetaTypeId2<SocketIO*>::qt_metatype_id()
PUBLIC 355d4 0 QtPrivate::QMetaTypeIdHelper<SocketIO*, true>::qt_metatype_id()
PUBLIC 355df 0 int qRegisterNormalizedMetaType<SocketIO*>(QByteArray const&, SocketIO**, QtPrivate::MetaTypeDefinedHelper<SocketIO*, QMetaTypeId2<SocketIO*>::Defined&&(!QMetaTypeId2<SocketIO*>::IsBuiltIn)>::DefinedType)
PUBLIC 356a8 0 QtPrivate::QMetaTypeIdHelper<QQmlListProperty<SocketIO>, false>::qt_metatype_id()
PUBLIC 356b3 0 int qRegisterNormalizedMetaType<QQmlListProperty<SocketIO> >(QByteArray const&, QQmlListProperty<SocketIO>*, QtPrivate::MetaTypeDefinedHelper<QQmlListProperty<SocketIO>, QMetaTypeId2<QQmlListProperty<SocketIO> >::Defined&&(!QMetaTypeId2<QQmlListProperty<SocketIO> >::IsBuiltIn)>::DefinedType)
PUBLIC 3577c 0 QObject* (*QQmlPrivate::attachedPropertiesFunc<SocketIO>())(QObject*)
PUBLIC 35787 0 QMetaObject const* QQmlPrivate::attachedPropertiesMetaObject<SocketIO>()
PUBLIC 35792 0 QQmlPrivate::StaticCastSelector<SocketIO, QQmlParserStatus>::cast()
PUBLIC 3579d 0 QQmlPrivate::StaticCastSelector<SocketIO, QQmlPropertyValueSource>::cast()
PUBLIC 357a8 0 QQmlPrivate::StaticCastSelector<SocketIO, QQmlPropertyValueInterceptor>::cast()
PUBLIC 357b3 0 QMetaTypeId2<AppUpdater*>::qt_metatype_id()
PUBLIC 357be 0 QtPrivate::QMetaTypeIdHelper<AppUpdater*, true>::qt_metatype_id()
PUBLIC 357c9 0 int qRegisterNormalizedMetaType<AppUpdater*>(QByteArray const&, AppUpdater**, QtPrivate::MetaTypeDefinedHelper<AppUpdater*, QMetaTypeId2<AppUpdater*>::Defined&&(!QMetaTypeId2<AppUpdater*>::IsBuiltIn)>::DefinedType)
PUBLIC 35892 0 QtPrivate::QMetaTypeIdHelper<QQmlListProperty<AppUpdater>, false>::qt_metatype_id()
PUBLIC 3589d 0 int qRegisterNormalizedMetaType<QQmlListProperty<AppUpdater> >(QByteArray const&, QQmlListProperty<AppUpdater>*, QtPrivate::MetaTypeDefinedHelper<QQmlListProperty<AppUpdater>, QMetaTypeId2<QQmlListProperty<AppUpdater> >::Defined&&(!QMetaTypeId2<QQmlListProperty<AppUpdater> >::IsBuiltIn)>::DefinedType)
PUBLIC 35966 0 QObject* (*QQmlPrivate::attachedPropertiesFunc<AppUpdater>())(QObject*)
PUBLIC 35971 0 QMetaObject const* QQmlPrivate::attachedPropertiesMetaObject<AppUpdater>()
PUBLIC 3597c 0 QQmlPrivate::StaticCastSelector<AppUpdater, QQmlParserStatus>::cast()
PUBLIC 35987 0 QQmlPrivate::StaticCastSelector<AppUpdater, QQmlPropertyValueSource>::cast()
PUBLIC 35992 0 QQmlPrivate::StaticCastSelector<AppUpdater, QQmlPropertyValueInterceptor>::cast()
PUBLIC 3599e 0 QList<QString>::node_destruct(QList<QString>::Node*, QList<QString>::Node*)
PUBLIC 359d2 0 QList<QString>::detach_helper(int)
PUBLIC 35a6a 0 QList<QString>::detach_helper()
PUBLIC 35a91 0 QtSharedPointer::ExternalRefCountWithCustomDeleter<AutomationStudio, QtSharedPointer::NormalDeleter>::deleter(QtSharedPointer::ExternalRefCountData*)
PUBLIC 35ab8 0 QtSharedPointer::ExternalRefCountWithCustomDeleter<AutomationStudio, QtSharedPointer::NormalDeleter>::create(AutomationStudio*, QtSharedPointer::NormalDeleter, void (*)(QtSharedPointer::ExternalRefCountData*))
PUBLIC 35b40 0 QSharedPointer<AutomationStudio>::enableSharedFromThis(...)
PUBLIC 35b9a 0 QList<QString>::const_iterator::const_iterator(QList<QString>::Node*)
PUBLIC 35bb4 0 QMetaTypeIdQObject<AutomationStudio*, 8>::qt_metatype_id()
PUBLIC 35c9c 0 QtMetaTypePrivate::QMetaTypeFunctionHelper<AutomationStudio*, true>::Destruct(void*)
PUBLIC 35ca7 0 QtMetaTypePrivate::QMetaTypeFunctionHelper<AutomationStudio*, true>::Construct(void*, void const*)
PUBLIC 35cf3 0 QtPrivate::MetaObjectForType<AutomationStudio*, void>::value()
PUBLIC 35d00 0 QtPrivate::SequentialContainerConverterHelper<AutomationStudio*, false>::registerConverter(int)
PUBLIC 35d0e 0 QtPrivate::AssociativeContainerConverterHelper<AutomationStudio*, false>::registerConverter(int)
PUBLIC 35d1c 0 QtPrivate::IsPair<AutomationStudio*>::registerConverter(int)
PUBLIC 35d2a 0 QtPrivate::MetaTypeSmartPointerHelper<AutomationStudio*, void>::registerConverter(int)
PUBLIC 35d38 0 QtMetaTypePrivate::QMetaTypeFunctionHelper<QQmlListProperty<AutomationStudio>, true>::Destruct(void*)
PUBLIC 35d43 0 QtMetaTypePrivate::QMetaTypeFunctionHelper<QQmlListProperty<AutomationStudio>, true>::Construct(void*, void const*)
PUBLIC 35de4 0 QtPrivate::MetaObjectForType<QQmlListProperty<AutomationStudio>, void>::value()
PUBLIC 35def 0 QtPrivate::SequentialContainerConverterHelper<QQmlListProperty<AutomationStudio>, false>::registerConverter(int)
PUBLIC 35dfd 0 QtPrivate::AssociativeContainerConverterHelper<QQmlListProperty<AutomationStudio>, false>::registerConverter(int)
PUBLIC 35e0b 0 QtPrivate::IsPair<QQmlListProperty<AutomationStudio> >::registerConverter(int)
PUBLIC 35e19 0 QtPrivate::MetaTypeSmartPointerHelper<QQmlListProperty<AutomationStudio>, void>::registerConverter(int)
PUBLIC 35e27 0 QQmlPrivate::AttachedPropertySelector<AutomationStudio, 0>::func()
PUBLIC 35e32 0 QQmlPrivate::AttachedPropertySelector<AutomationStudio, 0>::metaObject()
PUBLIC 35e3d 0 QQmlPrivate::StaticCastSelectorClass<AutomationStudio, QQmlParserStatus, 1>::cast()
PUBLIC 35e48 0 QQmlPrivate::StaticCastSelectorClass<AutomationStudio, QQmlPropertyValueSource, 1>::cast()
PUBLIC 35e53 0 QQmlPrivate::StaticCastSelectorClass<AutomationStudio, QQmlPropertyValueInterceptor, 1>::cast()
PUBLIC 35e5e 0 QMetaTypeIdQObject<QCoreApplication*, 8>::qt_metatype_id()
PUBLIC 35f46 0 QtMetaTypePrivate::QMetaTypeFunctionHelper<QCoreApplication*, true>::Destruct(void*)
PUBLIC 35f51 0 QtMetaTypePrivate::QMetaTypeFunctionHelper<QCoreApplication*, true>::Construct(void*, void const*)
PUBLIC 35f9d 0 QtPrivate::MetaObjectForType<QCoreApplication*, void>::value()
PUBLIC 35faa 0 QtPrivate::SequentialContainerConverterHelper<QCoreApplication*, false>::registerConverter(int)
PUBLIC 35fb8 0 QtPrivate::AssociativeContainerConverterHelper<QCoreApplication*, false>::registerConverter(int)
PUBLIC 35fc6 0 QtPrivate::IsPair<QCoreApplication*>::registerConverter(int)
PUBLIC 35fd4 0 QtPrivate::MetaTypeSmartPointerHelper<QCoreApplication*, void>::registerConverter(int)
PUBLIC 35fe2 0 QtMetaTypePrivate::QMetaTypeFunctionHelper<QQmlListProperty<QCoreApplication>, true>::Destruct(void*)
PUBLIC 35fed 0 QtMetaTypePrivate::QMetaTypeFunctionHelper<QQmlListProperty<QCoreApplication>, true>::Construct(void*, void const*)
PUBLIC 3608e 0 QtPrivate::MetaObjectForType<QQmlListProperty<QCoreApplication>, void>::value()
PUBLIC 36099 0 QtPrivate::SequentialContainerConverterHelper<QQmlListProperty<QCoreApplication>, false>::registerConverter(int)
PUBLIC 360a7 0 QtPrivate::AssociativeContainerConverterHelper<QQmlListProperty<QCoreApplication>, false>::registerConverter(int)
PUBLIC 360b5 0 QtPrivate::IsPair<QQmlListProperty<QCoreApplication> >::registerConverter(int)
PUBLIC 360c3 0 QtPrivate::MetaTypeSmartPointerHelper<QQmlListProperty<QCoreApplication>, void>::registerConverter(int)
PUBLIC 360d1 0 QQmlPrivate::AttachedPropertySelector<QCoreApplication, 0>::func()
PUBLIC 360dc 0 QQmlPrivate::AttachedPropertySelector<QCoreApplication, 0>::metaObject()
PUBLIC 360e7 0 QQmlPrivate::StaticCastSelectorClass<QCoreApplication, QQmlParserStatus, 1>::cast()
PUBLIC 360f2 0 QQmlPrivate::StaticCastSelectorClass<QCoreApplication, QQmlPropertyValueSource, 1>::cast()
PUBLIC 360fd 0 QQmlPrivate::StaticCastSelectorClass<QCoreApplication, QQmlPropertyValueInterceptor, 1>::cast()
PUBLIC 36108 0 QMetaTypeIdQObject<Settings*, 8>::qt_metatype_id()
PUBLIC 361f0 0 QtMetaTypePrivate::QMetaTypeFunctionHelper<Settings*, true>::Destruct(void*)
PUBLIC 361fb 0 QtMetaTypePrivate::QMetaTypeFunctionHelper<Settings*, true>::Construct(void*, void const*)
PUBLIC 36247 0 QtPrivate::MetaObjectForType<Settings*, void>::value()
PUBLIC 36254 0 QtPrivate::SequentialContainerConverterHelper<Settings*, false>::registerConverter(int)
PUBLIC 36262 0 QtPrivate::AssociativeContainerConverterHelper<Settings*, false>::registerConverter(int)
PUBLIC 36270 0 QtPrivate::IsPair<Settings*>::registerConverter(int)
PUBLIC 3627e 0 QtPrivate::MetaTypeSmartPointerHelper<Settings*, void>::registerConverter(int)
PUBLIC 3628c 0 QtMetaTypePrivate::QMetaTypeFunctionHelper<QQmlListProperty<Settings>, true>::Destruct(void*)
PUBLIC 36297 0 QtMetaTypePrivate::QMetaTypeFunctionHelper<QQmlListProperty<Settings>, true>::Construct(void*, void const*)
PUBLIC 36338 0 QtPrivate::MetaObjectForType<QQmlListProperty<Settings>, void>::value()
PUBLIC 36343 0 QtPrivate::SequentialContainerConverterHelper<QQmlListProperty<Settings>, false>::registerConverter(int)
PUBLIC 36351 0 QtPrivate::AssociativeContainerConverterHelper<QQmlListProperty<Settings>, false>::registerConverter(int)
PUBLIC 3635f 0 QtPrivate::IsPair<QQmlListProperty<Settings> >::registerConverter(int)
PUBLIC 3636d 0 QtPrivate::MetaTypeSmartPointerHelper<QQmlListProperty<Settings>, void>::registerConverter(int)
PUBLIC 3637b 0 QQmlPrivate::AttachedPropertySelector<Settings, 0>::func()
PUBLIC 36386 0 QQmlPrivate::AttachedPropertySelector<Settings, 0>::metaObject()
PUBLIC 36391 0 QQmlPrivate::StaticCastSelectorClass<Settings, QQmlParserStatus, 1>::cast()
PUBLIC 3639c 0 QQmlPrivate::StaticCastSelectorClass<Settings, QQmlPropertyValueSource, 1>::cast()
PUBLIC 363a7 0 QQmlPrivate::StaticCastSelectorClass<Settings, QQmlPropertyValueInterceptor, 1>::cast()
PUBLIC 363b2 0 QMetaTypeIdQObject<Utilities*, 8>::qt_metatype_id()
PUBLIC 3649a 0 QtMetaTypePrivate::QMetaTypeFunctionHelper<Utilities*, true>::Destruct(void*)
PUBLIC 364a5 0 QtMetaTypePrivate::QMetaTypeFunctionHelper<Utilities*, true>::Construct(void*, void const*)
PUBLIC 364f1 0 QtPrivate::MetaObjectForType<Utilities*, void>::value()
PUBLIC 364fe 0 QtPrivate::SequentialContainerConverterHelper<Utilities*, false>::registerConverter(int)
PUBLIC 3650c 0 QtPrivate::AssociativeContainerConverterHelper<Utilities*, false>::registerConverter(int)
PUBLIC 3651a 0 QtPrivate::IsPair<Utilities*>::registerConverter(int)
PUBLIC 36528 0 QtPrivate::MetaTypeSmartPointerHelper<Utilities*, void>::registerConverter(int)
PUBLIC 36536 0 QtMetaTypePrivate::QMetaTypeFunctionHelper<QQmlListProperty<Utilities>, true>::Destruct(void*)
PUBLIC 36541 0 QtMetaTypePrivate::QMetaTypeFunctionHelper<QQmlListProperty<Utilities>, true>::Construct(void*, void const*)
PUBLIC 365e2 0 QtPrivate::MetaObjectForType<QQmlListProperty<Utilities>, void>::value()
PUBLIC 365ed 0 QtPrivate::SequentialContainerConverterHelper<QQmlListProperty<Utilities>, false>::registerConverter(int)
PUBLIC 365fb 0 QtPrivate::AssociativeContainerConverterHelper<QQmlListProperty<Utilities>, false>::registerConverter(int)
PUBLIC 36609 0 QtPrivate::IsPair<QQmlListProperty<Utilities> >::registerConverter(int)
PUBLIC 36617 0 QtPrivate::MetaTypeSmartPointerHelper<QQmlListProperty<Utilities>, void>::registerConverter(int)
PUBLIC 36625 0 QQmlPrivate::AttachedPropertySelector<Utilities, 0>::func()
PUBLIC 36630 0 QQmlPrivate::AttachedPropertySelector<Utilities, 0>::metaObject()
PUBLIC 3663b 0 QQmlPrivate::StaticCastSelectorClass<Utilities, QQmlParserStatus, 1>::cast()
PUBLIC 36646 0 QQmlPrivate::StaticCastSelectorClass<Utilities, QQmlPropertyValueSource, 1>::cast()
PUBLIC 36651 0 QQmlPrivate::StaticCastSelectorClass<Utilities, QQmlPropertyValueInterceptor, 1>::cast()
PUBLIC 3665c 0 QMetaTypeIdQObject<SystemSettings*, 8>::qt_metatype_id()
PUBLIC 36744 0 QtMetaTypePrivate::QMetaTypeFunctionHelper<SystemSettings*, true>::Destruct(void*)
PUBLIC 3674f 0 QtMetaTypePrivate::QMetaTypeFunctionHelper<SystemSettings*, true>::Construct(void*, void const*)
PUBLIC 3679b 0 QtPrivate::MetaObjectForType<SystemSettings*, void>::value()
PUBLIC 367a8 0 QtPrivate::SequentialContainerConverterHelper<SystemSettings*, false>::registerConverter(int)
PUBLIC 367b6 0 QtPrivate::AssociativeContainerConverterHelper<SystemSettings*, false>::registerConverter(int)
PUBLIC 367c4 0 QtPrivate::IsPair<SystemSettings*>::registerConverter(int)
PUBLIC 367d2 0 QtPrivate::MetaTypeSmartPointerHelper<SystemSettings*, void>::registerConverter(int)
PUBLIC 367e0 0 QtMetaTypePrivate::QMetaTypeFunctionHelper<QQmlListProperty<SystemSettings>, true>::Destruct(void*)
PUBLIC 367eb 0 QtMetaTypePrivate::QMetaTypeFunctionHelper<QQmlListProperty<SystemSettings>, true>::Construct(void*, void const*)
PUBLIC 3688c 0 QtPrivate::MetaObjectForType<QQmlListProperty<SystemSettings>, void>::value()
PUBLIC 36897 0 QtPrivate::SequentialContainerConverterHelper<QQmlListProperty<SystemSettings>, false>::registerConverter(int)
PUBLIC 368a5 0 QtPrivate::AssociativeContainerConverterHelper<QQmlListProperty<SystemSettings>, false>::registerConverter(int)
PUBLIC 368b3 0 QtPrivate::IsPair<QQmlListProperty<SystemSettings> >::registerConverter(int)
PUBLIC 368c1 0 QtPrivate::MetaTypeSmartPointerHelper<QQmlListProperty<SystemSettings>, void>::registerConverter(int)
PUBLIC 368cf 0 QQmlPrivate::AttachedPropertySelector<SystemSettings, 0>::func()
PUBLIC 368da 0 QQmlPrivate::AttachedPropertySelector<SystemSettings, 0>::metaObject()
PUBLIC 368e5 0 QQmlPrivate::StaticCastSelectorClass<SystemSettings, QQmlParserStatus, 1>::cast()
PUBLIC 368f0 0 QQmlPrivate::StaticCastSelectorClass<SystemSettings, QQmlPropertyValueSource, 1>::cast()
PUBLIC 368fb 0 QQmlPrivate::StaticCastSelectorClass<SystemSettings, QQmlPropertyValueInterceptor, 1>::cast()
PUBLIC 36906 0 QMetaTypeIdQObject<SocketIO*, 8>::qt_metatype_id()
PUBLIC 369ee 0 QtMetaTypePrivate::QMetaTypeFunctionHelper<SocketIO*, true>::Destruct(void*)
PUBLIC 369f9 0 QtMetaTypePrivate::QMetaTypeFunctionHelper<SocketIO*, true>::Construct(void*, void const*)
PUBLIC 36a45 0 QtPrivate::MetaObjectForType<SocketIO*, void>::value()
PUBLIC 36a52 0 QtPrivate::SequentialContainerConverterHelper<SocketIO*, false>::registerConverter(int)
PUBLIC 36a60 0 QtPrivate::AssociativeContainerConverterHelper<SocketIO*, false>::registerConverter(int)
PUBLIC 36a6e 0 QtPrivate::IsPair<SocketIO*>::registerConverter(int)
PUBLIC 36a7c 0 QtPrivate::MetaTypeSmartPointerHelper<SocketIO*, void>::registerConverter(int)
PUBLIC 36a8a 0 QtMetaTypePrivate::QMetaTypeFunctionHelper<QQmlListProperty<SocketIO>, true>::Destruct(void*)
PUBLIC 36a95 0 QtMetaTypePrivate::QMetaTypeFunctionHelper<QQmlListProperty<SocketIO>, true>::Construct(void*, void const*)
PUBLIC 36b36 0 QtPrivate::MetaObjectForType<QQmlListProperty<SocketIO>, void>::value()
PUBLIC 36b41 0 QtPrivate::SequentialContainerConverterHelper<QQmlListProperty<SocketIO>, false>::registerConverter(int)
PUBLIC 36b4f 0 QtPrivate::AssociativeContainerConverterHelper<QQmlListProperty<SocketIO>, false>::registerConverter(int)
PUBLIC 36b5d 0 QtPrivate::IsPair<QQmlListProperty<SocketIO> >::registerConverter(int)
PUBLIC 36b6b 0 QtPrivate::MetaTypeSmartPointerHelper<QQmlListProperty<SocketIO>, void>::registerConverter(int)
PUBLIC 36b79 0 QQmlPrivate::AttachedPropertySelector<SocketIO, 0>::func()
PUBLIC 36b84 0 QQmlPrivate::AttachedPropertySelector<SocketIO, 0>::metaObject()
PUBLIC 36b8f 0 QQmlPrivate::StaticCastSelectorClass<SocketIO, QQmlParserStatus, 1>::cast()
PUBLIC 36b9a 0 QQmlPrivate::StaticCastSelectorClass<SocketIO, QQmlPropertyValueSource, 1>::cast()
PUBLIC 36ba5 0 QQmlPrivate::StaticCastSelectorClass<SocketIO, QQmlPropertyValueInterceptor, 1>::cast()
PUBLIC 36bb0 0 QMetaTypeIdQObject<AppUpdater*, 8>::qt_metatype_id()
PUBLIC 36c98 0 QtMetaTypePrivate::QMetaTypeFunctionHelper<AppUpdater*, true>::Destruct(void*)
PUBLIC 36ca3 0 QtMetaTypePrivate::QMetaTypeFunctionHelper<AppUpdater*, true>::Construct(void*, void const*)
PUBLIC 36cef 0 QtPrivate::MetaObjectForType<AppUpdater*, void>::value()
PUBLIC 36cfc 0 QtPrivate::SequentialContainerConverterHelper<AppUpdater*, false>::registerConverter(int)
PUBLIC 36d0a 0 QtPrivate::AssociativeContainerConverterHelper<AppUpdater*, false>::registerConverter(int)
PUBLIC 36d18 0 QtPrivate::IsPair<AppUpdater*>::registerConverter(int)
PUBLIC 36d26 0 QtPrivate::MetaTypeSmartPointerHelper<AppUpdater*, void>::registerConverter(int)
PUBLIC 36d34 0 QtMetaTypePrivate::QMetaTypeFunctionHelper<QQmlListProperty<AppUpdater>, true>::Destruct(void*)
PUBLIC 36d3f 0 QtMetaTypePrivate::QMetaTypeFunctionHelper<QQmlListProperty<AppUpdater>, true>::Construct(void*, void const*)
PUBLIC 36de0 0 QtPrivate::MetaObjectForType<QQmlListProperty<AppUpdater>, void>::value()
PUBLIC 36deb 0 QtPrivate::SequentialContainerConverterHelper<QQmlListProperty<AppUpdater>, false>::registerConverter(int)
PUBLIC 36df9 0 QtPrivate::AssociativeContainerConverterHelper<QQmlListProperty<AppUpdater>, false>::registerConverter(int)
PUBLIC 36e07 0 QtPrivate::IsPair<QQmlListProperty<AppUpdater> >::registerConverter(int)
PUBLIC 36e15 0 QtPrivate::MetaTypeSmartPointerHelper<QQmlListProperty<AppUpdater>, void>::registerConverter(int)
PUBLIC 36e23 0 QQmlPrivate::AttachedPropertySelector<AppUpdater, 0>::func()
PUBLIC 36e2e 0 QQmlPrivate::AttachedPropertySelector<AppUpdater, 0>::metaObject()
PUBLIC 36e39 0 QQmlPrivate::StaticCastSelectorClass<AppUpdater, QQmlParserStatus, 1>::cast()
PUBLIC 36e44 0 QQmlPrivate::StaticCastSelectorClass<AppUpdater, QQmlPropertyValueSource, 1>::cast()
PUBLIC 36e4f 0 QQmlPrivate::StaticCastSelectorClass<AppUpdater, QQmlPropertyValueInterceptor, 1>::cast()
PUBLIC 36e5a 0 QtSharedPointer::CustomDeleter<AutomationStudio, QtSharedPointer::NormalDeleter>::execute()
PUBLIC 36e92 0 QtSharedPointer::CustomDeleter<AutomationStudio, QtSharedPointer::NormalDeleter>::CustomDeleter(AutomationStudio*, QtSharedPointer::NormalDeleter)
PUBLIC 36eac 0 QQmlListProperty<AutomationStudio>::QQmlListProperty()
PUBLIC 36f16 0 QQmlListProperty<QCoreApplication>::QQmlListProperty()
PUBLIC 36f80 0 QQmlListProperty<Settings>::QQmlListProperty()
PUBLIC 36fea 0 QQmlListProperty<Utilities>::QQmlListProperty()
PUBLIC 37054 0 QQmlListProperty<SystemSettings>::QQmlListProperty()
PUBLIC 370be 0 QQmlListProperty<SocketIO>::QQmlListProperty()
PUBLIC 37128 0 QQmlListProperty<AppUpdater>::QQmlListProperty()
PUBLIC 37192 0 QtPrivate::ApplyReturnValue<void>::ApplyReturnValue(void*)
PUBLIC 371ac 0 __gthread_active_p()
PUBLIC 371cb 0 __gnu_cxx::__exchange_and_add(int volatile*, int)
PUBLIC 371e5 0 __gnu_cxx::__atomic_add(int volatile*, int)
PUBLIC 371fd 0 __gnu_cxx::__exchange_and_add_single(int*, int)
PUBLIC 37227 0 __gnu_cxx::__atomic_add_single(int*, int)
PUBLIC 37246 0 __gnu_cxx::__exchange_and_add_dispatch(int*, int)
PUBLIC 37289 0 __gnu_cxx::__atomic_add_dispatch(int*, int)
PUBLIC 372ce 0 Settings::Settings(QObject*, QString)::{lambda()#1}::operator()() const
PUBLIC 37534 0 Settings::Settings(QObject*, QString)::{lambda(QString)#2}::operator()(QString) const
PUBLIC 3767e 0 Settings::Settings(QObject*, QString)::{lambda()#3}::operator()() const::{lambda(sio::message::list const&)#1}::operator()(sio::message::list const) const
PUBLIC 378b0 0 Settings::Settings(QObject*, QString)::{lambda()#3}::operator()() const
PUBLIC 37c86 0 Settings::Settings(QObject*, QString)
PUBLIC 386f6 0 Settings::registerApp()::{lambda(sio::message::list const&)#1}::operator()(sio::message::list const&) const
PUBLIC 389c8 0 Settings::registerApp()
PUBLIC 38e70 0 Settings::~Settings()
PUBLIC 38fdc 0 Settings::~Settings()
PUBLIC 39008 0 Settings::load()
PUBLIC 399bc 0 Settings::save()
PUBLIC 3a1e2 0 Settings::updateBaseSettings()
PUBLIC 3a1ee 0 Settings::loadBaseSettings()
PUBLIC 3aadc 0 Settings::initSocketIO()
PUBLIC 3aafc 0 Settings::backupConfigs()
PUBLIC 3ab66 0 Settings::setBasefileLoaded(bool)
PUBLIC 3abae 0 Settings::check_new_firmware()
PUBLIC 3ac62 0 Settings::update_new_firmware()
PUBLIC 3ad48 0 Settings::Serialize(QJsonObject&)
PUBLIC 3ad76 0 non-virtual thunk to Settings::Serialize(QJsonObject&)
PUBLIC 3ad7c 0 Settings::DeSerialize(QJsonObject&)
PUBLIC 3af82 0 non-virtual thunk to Settings::DeSerialize(QJsonObject&)
PUBLIC 3af8b 0 std::remove_reference<Settings::Settings(QObject*, QString)::{lambda()#1}&>::type&& std::move<Settings::Settings(QObject*, QString)::{lambda()#1}&>(std::remove_reference&&)
PUBLIC 3af99 0 std::enable_if<QtPrivate::FunctionPointer<Settings::Settings(QObject*, QString)::{lambda()#1}>::ArgumentCount==(-1), QMetaObject::Connection>::type QObject::connect<void (AppUpdater::*)(), Settings::Settings(QObject*, QString)::{lambda()#1}>(QtPrivate<void (AppUpdater::*)()>::Object const*, std::enable_if<QtPrivate::FunctionPointer<Settings::Settings(QObject*, QString)::{lambda()#1}>::ArgumentCount==(-1), QMetaObject::Connection>::type, QObject const*, QtPrivate::FunctionPointer, Qt::ConnectionType)
PUBLIC 3b056 0 std::remove_reference<Settings::Settings(QObject*, QString)::{lambda(QString)#2}&>::type&& std::move<Settings::Settings(QObject*, QString)::{lambda(QString)#2}&>(std::remove_reference&&)
PUBLIC 3b064 0 std::enable_if<QtPrivate::FunctionPointer<Settings::Settings(QObject*, QString)::{lambda(QString)#2}>::ArgumentCount==(-1), QMetaObject::Connection>::type QObject::connect<void (SocketIO::*)(QString), Settings::Settings(QObject*, QString)::{lambda(QString)#2}>(QtPrivate<void (SocketIO::*)(QString)>::Object const*, std::enable_if<QtPrivate::FunctionPointer<Settings::Settings(QObject*, QString)::{lambda(QString)#2}>::ArgumentCount==(-1), QMetaObject::Connection>::type, QObject const*, QtPrivate::FunctionPointer, Qt::ConnectionType)
PUBLIC 3b121 0 std::remove_reference<Settings::Settings(QObject*, QString)::{lambda()#3}::operator()() const::{lambda(sio::message::list const&)#1}&>::type&& std::move<Settings::Settings(QObject*, QString)::{lambda()#3}::operator()() const::{lambda(sio::message::list const&)#1}&>(Settings::Settings(QObject*, QString)::{lambda()#3}::operator()() const::{lambda(sio::message::list const&)#1}&)
PUBLIC 3b130 0 std::function<void (sio::message::list const&)>::function<Settings::Settings(QObject*, QString)::{lambda()#3}::operator()() const::{lambda(sio::message::list const&)#1}, void, void>(Settings::Settings(QObject*, QString)::{lambda()#3}::operator()() const::{lambda(sio::message::list const&)#1})
PUBLIC 3b1c9 0 std::remove_reference<Settings::Settings(QObject*, QString)::{lambda()#3}&>::type&& std::move<Settings::Settings(QObject*, QString)::{lambda()#3}&>(std::remove_reference&&)
PUBLIC 3b1d7 0 std::enable_if<QtPrivate::FunctionPointer<Settings::Settings(QObject*, QString)::{lambda()#3}>::ArgumentCount==(-1), QMetaObject::Connection>::type QObject::connect<void (SocketIO::*)(), Settings::Settings(QObject*, QString)::{lambda()#3}>(QtPrivate<void (SocketIO::*)()>::Object const*, std::enable_if<QtPrivate::FunctionPointer<Settings::Settings(QObject*, QString)::{lambda()#3}>::ArgumentCount==(-1), QMetaObject::Connection>::type, QObject const*, QtPrivate::FunctionPointer, Qt::ConnectionType)
PUBLIC 3b294 0 std::remove_reference<Settings::registerApp()::{lambda(sio::message::list const&)#1}&>::type&& std::move<Settings::registerApp()::{lambda(sio::message::list const&)#1}&>(std::remove_reference&&)
PUBLIC 3b2a2 0 std::function<void (sio::message::list const&)>::function<Settings::registerApp()::{lambda(sio::message::list const&)#1}, void, void>(Settings::registerApp()::{lambda(sio::message::list const&)#1})
PUBLIC 3b33c 0 QtPrivate::QFunctorSlotObject<Settings::Settings(QObject*, QString)::{lambda()#1}, 0, QtPrivate::List<>, void>::QFunctorSlotObject({lambda()#1})
PUBLIC 3b37c 0 QtPrivate::QFunctorSlotObject<Settings::Settings(QObject*, QString)::{lambda(QString)#2}, 1, QtPrivate::List<QString>, void>::QFunctorSlotObject({lambda(QString)#2})
PUBLIC 3b3bc 0 bool std::_Function_base::_Base_manager<Settings::Settings(QObject*, QString)::{lambda()#3}::operator()() const::{lambda(sio::message::list const&)#1}>::_M_not_empty_function<sio::message::list const&>(sio::message::list const& const&)
PUBLIC 3b3cb 0 std::_Function_base::_Base_manager<Settings::Settings(QObject*, QString)::{lambda()#3}::operator()() const::{lambda(sio::message::list const&)#1}>::_M_init_functor(std::_Any_data&, sio::message::list const&)
PUBLIC 3b40a 0 std::_Function_handler<void (sio::message::list const&), Settings::Settings(QObject*, QString)::{lambda()#3}::operator()() const::{lambda(sio::message::list const&)#1}>::_M_invoke(std::_Any_data const&, sio::message::list const&)
PUBLIC 3b449 0 std::_Function_base::_Base_manager<Settings::Settings(QObject*, QString)::{lambda()#3}::operator()() const::{lambda(sio::message::list const&)#1}>::_M_manager(std::_Any_data&, Settings::Settings(QObject*, QString)::{lambda()#3}::operator()() const::{lambda(sio::message::list const&)#1} const&, std::_Manager_operation)
PUBLIC 3b4f8 0 QtPrivate::QFunctorSlotObject<Settings::Settings(QObject*, QString)::{lambda()#3}, 0, QtPrivate::List<>, void>::QFunctorSlotObject({lambda()#3})
PUBLIC 3b538 0 bool std::_Function_base::_Base_manager<Settings::registerApp()::{lambda(sio::message::list const&)#1}>::_M_not_empty_function<{lambda(sio::message::list const&)#1}>({lambda(sio::message::list const&)#1} const&)
PUBLIC 3b547 0 std::_Function_base::_Base_manager<Settings::registerApp()::{lambda(sio::message::list const&)#1}>::_M_init_functor(std::_Any_data&, {lambda(sio::message::list const&)#1}&&)
PUBLIC 3b586 0 std::_Function_handler<void (sio::message::list const&), Settings::registerApp()::{lambda(sio::message::list const&)#1}>::_M_invoke(std::_Any_data const&, sio::message::list const&)
PUBLIC 3b5c5 0 std::_Function_base::_Base_manager<Settings::registerApp()::{lambda(sio::message::list const&)#1}>::_M_manager(std::_Any_data&, std::_Function_base::_Base_manager<Settings::registerApp()::{lambda(sio::message::list const&)#1}> const&, std::_Manager_operation)
PUBLIC 3b674 0 QtPrivate::QFunctorSlotObject<Settings::Settings(QObject*, QString)::{lambda()#1}, 0, QtPrivate::List<>, void>::~QFunctorSlotObject()
PUBLIC 3b68f 0 QtPrivate::QFunctorSlotObject<Settings::Settings(QObject*, QString)::{lambda()#1}, 0, QtPrivate::List<>, void>::impl(int, QtPrivate::QSlotObjectBase*, QObject*, void**, bool*)
PUBLIC 3b700 0 QtPrivate::QFunctorSlotObject<Settings::Settings(QObject*, QString)::{lambda(QString)#2}, 1, QtPrivate::List<QString>, void>::~QFunctorSlotObject()
PUBLIC 3b71b 0 QtPrivate::QFunctorSlotObject<Settings::Settings(QObject*, QString)::{lambda(QString)#2}, 1, QtPrivate::List<QString>, void>::impl(int, QtPrivate::QSlotObjectBase*, QObject*, void**, bool*)
PUBLIC 3b78b 0 std::_Function_base::_Base_manager<Settings::Settings(QObject*, QString)::{lambda()#3}::operator()() const::{lambda(sio::message::list const&)#1}>::_M_init_functor(std::_Any_data&, sio::message::list const&, std::integral_constant<bool, true>)
PUBLIC 3b7d7 0 std::_Function_base::_Base_manager<Settings::Settings(QObject*, QString)::{lambda()#3}::operator()() const::{lambda(sio::message::list const&)#1}>::_M_get_pointer(std::_Any_data const&)
PUBLIC 3b802 0 Settings::Settings(QObject*, QString)::{lambda()#3}::operator()() const::{lambda(sio::message::list const&)#1}*& std::_Any_data::_M_access<Settings::Settings(QObject*, QString)::{lambda()#3}::operator()() const::{lambda(sio::message::list const&)#1}*>()
PUBLIC 3b81c 0 std::_Function_base::_Base_manager<Settings::Settings(QObject*, QString)::{lambda()#3}::operator()() const::{lambda(sio::message::list const&)#1}>::_M_clone(std::_Any_data&, Settings::Settings(QObject*, QString)::{lambda()#3}::operator()() const::{lambda(sio::message::list const&)#1} const&, std::integral_constant<bool, true>)
PUBLIC 3b868 0 std::_Function_base::_Base_manager<Settings::Settings(QObject*, QString)::{lambda()#3}::operator()() const::{lambda(sio::message::list const&)#1}>::_M_destroy(std::_Any_data&, std::integral_constant<bool, true>)
PUBLIC 3b884 0 QtPrivate::QFunctorSlotObject<Settings::Settings(QObject*, QString)::{lambda()#3}, 0, QtPrivate::List<>, void>::~QFunctorSlotObject()
PUBLIC 3b89f 0 QtPrivate::QFunctorSlotObject<Settings::Settings(QObject*, QString)::{lambda()#3}, 0, QtPrivate::List<>, void>::impl(int, QtPrivate::QSlotObjectBase*, QObject*, void**, bool*)
PUBLIC 3b90f 0 std::_Function_base::_Base_manager<Settings::registerApp()::{lambda(sio::message::list const&)#1}>::_M_init_functor(std::_Any_data&, {lambda(sio::message::list const&)#1}&&, std::integral_constant<bool, true>)
PUBLIC 3b95b 0 std::_Function_base::_Base_manager<Settings::registerApp()::{lambda(sio::message::list const&)#1}>::_M_get_pointer(std::_Any_data const&)
PUBLIC 3b986 0 Settings::registerApp()::{lambda(sio::message::list const&)#1}*& std::_Any_data::_M_access<Settings::registerApp()::{lambda(sio::message::list const&)#1}*>()
PUBLIC 3b9a0 0 std::_Function_base::_Base_manager<Settings::registerApp()::{lambda(sio::message::list const&)#1}>::_M_clone(std::_Any_data&, std::_Function_base::_Base_manager<Settings::registerApp()::{lambda(sio::message::list const&)#1}> const&, std::integral_constant<bool, true>)
PUBLIC 3b9ec 0 std::_Function_base::_Base_manager<Settings::registerApp()::{lambda(sio::message::list const&)#1}>::_M_destroy(std::_Any_data&, std::integral_constant<bool, true>)
PUBLIC 3ba07 0 void QtPrivate::Functor<Settings::Settings(QObject*, QString)::{lambda()#1}, 0>::call<QtPrivate::List<>, void>({lambda()#1}&, void*, {lambda()#1}&*)
PUBLIC 3ba31 0 void QtPrivate::Functor<Settings::Settings(QObject*, QString)::{lambda(QString)#2}, 1>::call<QtPrivate::List<QString>, void>({lambda(QString)#2}&, void*, {lambda(QString)#2}&*)
PUBLIC 3ba5c 0 Settings::Settings(QObject*, QString)::{lambda()#3}::operator()() const::{lambda(sio::message::list const&)#1} const& std::_Any_data::_M_access<Settings::Settings(QObject*, QString)::{lambda()#3}::operator()() const::{lambda(sio::message::list const&)#1}>() const
PUBLIC 3ba76 0 Settings::Settings(QObject*, QString)::{lambda()#3}::operator()() const::{lambda(sio::message::list const&)#1} const* std::__addressof<Settings::Settings(QObject*, QString)::{lambda()#3}::operator()() const::{lambda(sio::message::list const&)#1} const>(Settings::Settings(QObject*, QString)::{lambda()#3}::operator()() const::{lambda(sio::message::list const&)#1}&)
PUBLIC 3ba84 0 Settings::Settings(QObject*, QString)::{lambda()#3}::operator()() const::{lambda(sio::message::list const&)#1}& std::_Any_data::_M_access<Settings::Settings(QObject*, QString)::{lambda()#3}::operator()() const::{lambda(sio::message::list const&)#1}>()
PUBLIC 3ba9e 0 void QtPrivate::Functor<Settings::Settings(QObject*, QString)::{lambda()#3}, 0>::call<QtPrivate::List<>, void>({lambda()#3}&, void*, {lambda()#3}&*)
PUBLIC 3bac8 0 Settings::registerApp()::{lambda(sio::message::list const&)#1} const& std::_Any_data::_M_access<Settings::registerApp()::{lambda(sio::message::list const&)#1}>() const
PUBLIC 3bae2 0 Settings::registerApp()::{lambda(sio::message::list const&)#1} const* std::__addressof<Settings::registerApp()::{lambda(sio::message::list const&)#1} const>(Settings::registerApp()::{lambda(sio::message::list const&)#1} const&)
PUBLIC 3baf0 0 Settings::registerApp()::{lambda(sio::message::list const&)#1}& std::_Any_data::_M_access<Settings::registerApp()::{lambda(sio::message::list const&)#1}>()
PUBLIC 3bb0a 0 QtPrivate::FunctorCall<QtPrivate::IndexesList<>, QtPrivate::List<>, void, Settings::Settings(QObject*, QString)::{lambda()#1}>::call({lambda()#1}&, void**)
PUBLIC 3bb3f 0 QtPrivate::FunctorCall<QtPrivate::IndexesList<0>, QtPrivate::List<QString>, void, Settings::Settings(QObject*, QString)::{lambda(QString)#2}>::call({lambda(QString)#2}&, void**)
PUBLIC 3bbc2 0 QtPrivate::FunctorCall<QtPrivate::IndexesList<>, QtPrivate::List<>, void, Settings::Settings(QObject*, QString)::{lambda()#3}>::call({lambda()#3}&, void**)
PUBLIC 3bbf7 0 __static_initialization_and_destruction_0(int, int)
PUBLIC 3bc40 0 _GLOBAL__sub_I_settings.cpp
PUBLIC 3bc56 0 QChar::QChar(int)
PUBLIC 3bc70 0 qstrnlen(char const*, unsigned int)
PUBLIC 3bcc0 0 QString::size() const
PUBLIC 3bcd4 0 QString::QString(QByteArray const&)
PUBLIC 3bd34 0 QString::isEmpty() const
PUBLIC 3bd4e 0 QString::operator==(char const*) const
PUBLIC 3bda1 0 operator+(QString const&, QString const&)
PUBLIC 3be04 0 QString::fromStdString(std::__cxx11::basic_string<char, std::char_traits<char>, std::allocator<char> > const&)
PUBLIC 3be4e 0 std::_Any_data::_M_access()
PUBLIC 3be5c 0 std::_Any_data::_M_access() const
PUBLIC 3be6a 0 std::_Function_base::_Function_base()
PUBLIC 3be82 0 std::_Function_base::~_Function_base()
PUBLIC 3beb8 0 QJsonValue::QJsonValue(char const*)
PUBLIC 3bf3a 0 QJsonValueRef::toBool() const
PUBLIC 3bf9e 0 QJsonValueRef::toString() const
PUBLIC 3c00a 0 QIODevice::write(QByteArray const&)
PUBLIC 3c052 0 JsonSerializable::JsonSerializable()
PUBLIC 3c078 0 Project::isDefault() const
PUBLIC 3c08a 0 AppUpdater::serverUrl() const
PUBLIC 3c0b8 0 sio::message::get_flag() const
PUBLIC 3c0ca 0 std::__shared_ptr<sio::message, (__gnu_cxx::_Lock_policy)2>::~__shared_ptr()
PUBLIC 3c0ea 0 std::shared_ptr<sio::message>::~shared_ptr()
PUBLIC 3c106 0 sio::message::list::size() const
PUBLIC 3c120 0 sio::message::list::at(unsigned long) const
PUBLIC 3c146 0 SocketIO::setServerUrl(QString)
PUBLIC 3c1e4 0 User::isDefault() const
PUBLIC 3c1f6 0 Settings::source() const
PUBLIC 3c224 0 Settings::appUpdater() const
PUBLIC 3c23a 0 Settings::appID() const
PUBLIC 3c26a 0 Settings::setSource(QString)
PUBLIC 3c308 0 Settings::setLoaded(bool)
PUBLIC 3c350 0 Settings::setCurrentUser(User*)
PUBLIC 3c396 0 Settings::setAppRegistred(bool)
PUBLIC 3c3de 0 Settings::setAppID(QString)
PUBLIC 3c484 0 Settings::setSelectedProject(Project*)
PUBLIC 3c540 0 Settings::setUseRemoteSettings(bool)
PUBLIC 3c590 0 Settings::setRemoteSettingsBaseLocation(QString)
PUBLIC 3c636 0 Settings::setNewFirmwareAvailable(bool)
PUBLIC 3c686 0 Settings::setSelectingProject(bool)
PUBLIC 3c6d6 0 Settings::useRemoteSettings() const
PUBLIC 3c6ec 0 Settings::remoteSettingsBaseLocation() const
PUBLIC 3c71c 0 QtPrivate::QForeachContainer<QList<QNetworkInterface> >::~QForeachContainer()
PUBLIC 3c738 0 std::function<void (sio::message::list const&)>::~function()
PUBLIC 3c754 0 std::__shared_ptr<sio::message, (__gnu_cxx::_Lock_policy)2>::__shared_ptr(std::__shared_ptr<sio::message, (__gnu_cxx::_Lock_policy)2> const&)
PUBLIC 3c790 0 std::shared_ptr<sio::message>::shared_ptr(std::shared_ptr<sio::message> const&)
PUBLIC 3c7b6 0 std::__shared_count<(__gnu_cxx::_Lock_policy)2>::~__shared_count()
PUBLIC 3c7e0 0 std::__shared_count<(__gnu_cxx::_Lock_policy)2>::__shared_count(std::__shared_count<(__gnu_cxx::_Lock_policy)2> const&)
PUBLIC 3c81c 0 std::vector<std::shared_ptr<sio::message>, std::allocator<std::shared_ptr<sio::message> > >::size() const
PUBLIC 3c842 0 std::vector<std::shared_ptr<sio::message>, std::allocator<std::shared_ptr<sio::message> > >::operator[](unsigned long) const
PUBLIC 3c862 0 std::__shared_ptr<sio::message, (__gnu_cxx::_Lock_policy)2>::operator->() const
PUBLIC 3c874 0 QList<QNetworkInterface>::~QList()
PUBLIC 3c8bb 0 QList<QNetworkInterface>&& std::forward<QList<QNetworkInterface> >(std::remove_reference<QList<QNetworkInterface> >::type&)
PUBLIC 3c8c9 0 QtPrivate::QForeachContainer<std::decay<QList<QNetworkInterface> >::type> QtPrivate::qMakeForeachContainer<QList<QNetworkInterface> >(QList<QNetworkInterface>&&)
PUBLIC 3c8fd 0 std::remove_reference<QList<QNetworkInterface>&>::type&& std::move<QList<QNetworkInterface>&>(QList<QNetworkInterface>&)
PUBLIC 3c90b 0 std::add_const<QList<QNetworkInterface> >::type& qAsConst<QList<QNetworkInterface> >(QList<QNetworkInterface>&)
PUBLIC 3c91a 0 QList<QNetworkInterface>::const_iterator::operator!=(QList<QNetworkInterface>::const_iterator const&) const
PUBLIC 3c93c 0 QList<QNetworkInterface>::const_iterator::operator++()
PUBLIC 3c95c 0 QList<QNetworkInterface>::const_iterator::operator*() const
PUBLIC 3c97a 0 std::unary_function<sio::message::list const&, void>::unary_function()
PUBLIC 3c986 0 std::_Maybe_unary_or_binary_function<void, sio::message::list const&>::_Maybe_unary_or_binary_function()
PUBLIC 3c9a2 0 std::function<void (sio::message::list const&)>::function(decltype(nullptr))
PUBLIC 3c9ce 0 QList<QString>::length() const
PUBLIC 3c9e8 0 std::_Sp_counted_base<(__gnu_cxx::_Lock_policy)2>::_M_release()
PUBLIC 3ca64 0 std::_Sp_counted_base<(__gnu_cxx::_Lock_policy)2>::_M_add_ref_copy()
PUBLIC 3ca88 0 QListSpecialMethods<QNetworkInterface>::~QListSpecialMethods()
PUBLIC 3ca94 0 QList<QNetworkInterface>::dealloc(QListData::Data*)
PUBLIC 3caf2 0 QtPrivate::QForeachContainer<QList<QNetworkInterface> >::QForeachContainer(QList<QNetworkInterface>&&)
PUBLIC 3cb72 0 QList<QNetworkInterface>::begin() const
PUBLIC 3cba6 0 QList<QNetworkInterface>::end() const
PUBLIC 3cbda 0 QListSpecialMethods<QNetworkInterface>::QListSpecialMethods()
PUBLIC 3cbe6 0 QList<QNetworkInterface>::QList(QList<QNetworkInterface>&&)
PUBLIC 3cc22 0 QList<QNetworkInterface>::Node::t()
PUBLIC 3cc30 0 QtPrivate::ConnectionTypes<QtPrivate::List<QString>, true>::types()
PUBLIC 3cc3d 0 sio::message::list const& std::forward<sio::message::list const&>(std::remove_reference<sio::message::list const&>::type&)
PUBLIC 3cc4c 0 std::type_info const*& std::_Any_data::_M_access<std::type_info const*>()
PUBLIC 3cc66 0 QList<QNetworkInterface>::node_destruct(QList<QNetworkInterface>::Node*, QList<QNetworkInterface>::Node*)
PUBLIC 3cc9a 0 QList<QNetworkInterface>::const_iterator::const_iterator(QList<QNetworkInterface>::Node*)
PUBLIC 3ccb4 0 qInitResources_application_qmlcache()
PUBLIC 3ccde 0 qCleanupResources_application_qmlcache()
PUBLIC 3cd08 0 (anonymous namespace)::initializer::initializer()
PUBLIC 3cd1c 0 (anonymous namespace)::initializer::~initializer()
PUBLIC 3cd30 0 __static_initialization_and_destruction_0(int, int)
PUBLIC 3cd76 0 _GLOBAL__sub_I_qrc_application_qmlcache.cpp
PUBLIC 3cd8c 0 (anonymous namespace)::(anonymous namespace)::Q_QGS_unitRegistry::innerFunction()::HolderBase::~HolderBase()
PUBLIC 3cdc2 0 (anonymous namespace)::(anonymous namespace)::Q_QGS_unitRegistry::innerFunction()::HolderBase::HolderBase()
PUBLIC 3cdce 0 (anonymous namespace)::Registry::~Registry()
PUBLIC 3cdea 0 (anonymous namespace)::(anonymous namespace)::Q_QGS_unitRegistry::innerFunction()::Holder::Holder()
PUBLIC 3ce44 0 (anonymous namespace)::(anonymous namespace)::Q_QGS_unitRegistry::innerFunction()::Holder::~Holder()
PUBLIC 3ce6b 0 (anonymous namespace)::(anonymous namespace)::Q_QGS_unitRegistry::innerFunction()
PUBLIC 3cefc 0 (anonymous namespace)::Registry::Registry()::{lambda()#1}::operator()() const
PUBLIC 3cf36 0 (anonymous namespace)::Registry::Registry()::{lambda()#2}::operator()() const
PUBLIC 3cf70 0 (anonymous namespace)::Registry::Registry()
PUBLIC 3d092 0 (anonymous namespace)::Registry::lookupCachedUnit(QUrl const&)
PUBLIC 3d245 0 qInitResources_application()
PUBLIC 3d262 0 (anonymous namespace)::qInitResources_application_ctor_class_::qInitResources_application_ctor_class_()
PUBLIC 3d276 0 qCleanupResources_application()
PUBLIC 3d286 0 QGlobalStatic<(anonymous namespace)::Registry, (anonymous namespace)::(anonymous namespace)::Q_QGS_unitRegistry::innerFunction(), (anonymous namespace)::(anonymous namespace)::Q_QGS_unitRegistry::guard>::operator()()
PUBLIC 3d2b0 0 QGlobalStatic<(anonymous namespace)::Registry, (anonymous namespace)::(anonymous namespace)::Q_QGS_unitRegistry::innerFunction(), (anonymous namespace)::(anonymous namespace)::Q_QGS_unitRegistry::guard>::isDestroyed() const
PUBLIC 3d2d0 0 __static_initialization_and_destruction_0(int, int)
PUBLIC 3d2fc 0 _GLOBAL__sub_I_qmlcache_loader.cpp
PUBLIC 3d312 0 QLatin1Char::QLatin1Char(char)
PUBLIC 3d32c 0 QLatin1Char::unicode() const
PUBLIC 3d340 0 QChar::QChar(QLatin1Char)
PUBLIC 3d368 0 QLatin1String::QLatin1String(char const*)
PUBLIC 3d3aa 0 QString::prepend(QChar)
PUBLIC 3d3d2 0 QString::operator!=(QLatin1String) const
PUBLIC 3d408 0 QHashData::willGrow()
PUBLIC 3d44e 0 QFlags<QUrl::ComponentFormattingOption>::QFlags(QUrl::ComponentFormattingOption)
PUBLIC 3d466 0 QHash<QString, QQmlPrivate::CachedQmlUnit const*>::~QHash()
PUBLIC 3d4a6 0 QHash<QString, QQmlPrivate::CachedQmlUnit const*>::QHash()
PUBLIC 3d4c0 0 QStaticStringData<9>::data_ptr() const
PUBLIC 3d4ce 0 QHash<QString, QQmlPrivate::CachedQmlUnit const*>::insert(QString const&, QQmlPrivate::CachedQmlUnit const* const&)
PUBLIC 3d5ae 0 QStaticStringData<17>::data_ptr() const
PUBLIC 3d5bc 0 QHash<QString, QQmlPrivate::CachedQmlUnit const*>::value(QString const&, QQmlPrivate::CachedQmlUnit const* const&) const
PUBLIC 3d62e 0 QHash<QString, QQmlPrivate::CachedQmlUnit const*>::freeData(QHashData*)
PUBLIC 3d658 0 QHash<QString, QQmlPrivate::CachedQmlUnit const*>::detach()
PUBLIC 3d68a 0 QHash<QString, QQmlPrivate::CachedQmlUnit const*>::findNode(QString const&, unsigned int*) const
PUBLIC 3d6fe 0 QHash<QString, QQmlPrivate::CachedQmlUnit const*>::findNode(QString const&, unsigned int) const
PUBLIC 3d7ac 0 QHash<QString, QQmlPrivate::CachedQmlUnit const*>::createNode(unsigned int, QString const&, QQmlPrivate::CachedQmlUnit const* const&, QHashNode<QString, QQmlPrivate::CachedQmlUnit const*>**)
PUBLIC 3d848 0 QHash<QString, QQmlPrivate::CachedQmlUnit const*>::iterator::iterator(void*)
PUBLIC 3d862 0 QHashNode<QString, QQmlPrivate::CachedQmlUnit const*>::~QHashNode()
PUBLIC 3d882 0 QHash<QString, QQmlPrivate::CachedQmlUnit const*>::deleteNode2(QHashData::Node*)
PUBLIC 3d8a6 0 QHash<QString, QQmlPrivate::CachedQmlUnit const*>::detach_helper()
PUBLIC 3d920 0 QHashNode<QString, QQmlPrivate::CachedQmlUnit const*>::same_key(unsigned int, QString const&) const
PUBLIC 3d968 0 QHash<QString, QQmlPrivate::CachedQmlUnit const*>::alignOfNode()
PUBLIC 3d996 0 QHashNode<QString, QQmlPrivate::CachedQmlUnit const*>::QHashNode(QString const&, QQmlPrivate::CachedQmlUnit const* const&, unsigned int, QHashNode<QString, QQmlPrivate::CachedQmlUnit const*>*)
PUBLIC 3d9ef 0 QHash<QString, QQmlPrivate::CachedQmlUnit const*>::concrete(QHashData::Node*)
PUBLIC 3d9fe 0 QHash<QString, QQmlPrivate::CachedQmlUnit const*>::duplicateNode(QHashData::Node*, void*)
PUBLIC 3da62 0 AutomationStudio::qt_static_metacall(QObject*, QMetaObject::Call, int, void**)
PUBLIC 3e2ca 0 AutomationStudio::metaObject() const
PUBLIC 3e312 0 AutomationStudio::qt_metacast(char const*)
PUBLIC 3e362 0 AutomationStudio::qt_metacall(QMetaObject::Call, int, void**)
PUBLIC 3e466 0 AutomationStudio::systemSettingsChanged(SystemSettings*)
PUBLIC 3e4b0 0 AutomationStudio::coreApplicationChanged(QCoreApplication*)
PUBLIC 3e4fa 0 AutomationStudio::releaseVersionChanged(QString)
PUBLIC 3e544 0 AutomationStudio::buildInfoChanged(QString)
PUBLIC 3e58e 0 AutomationStudio::systemSettings() const
PUBLIC 3e5a0 0 AutomationStudio::utilities() const
PUBLIC 3e5b2 0 AutomationStudio::releaseVersion() const
PUBLIC 3e5e0 0 AutomationStudio::buildInfo() const
PUBLIC 3e60e 0 AutomationStudio::settings()
PUBLIC 3e620 0 int qMetaTypeId<SystemSettings*>()
PUBLIC 3e62b 0 int qRegisterMetaType<SystemSettings*>()
PUBLIC 3e636 0 int qMetaTypeId<QCoreApplication*>()
PUBLIC 3e641 0 int qRegisterMetaType<QCoreApplication*>()
PUBLIC 3e64c 0 int qMetaTypeId<Utilities*>()
PUBLIC 3e657 0 int qRegisterMetaType<Utilities*>()
PUBLIC 3e662 0 QScopedPointer<QObjectData, QScopedPointerDeleter<QObjectData> >::operator->() const
PUBLIC 3e674 0 Settings::qt_static_metacall(QObject*, QMetaObject::Call, int, void**)
PUBLIC 408e4 0 Settings::metaObject() const
PUBLIC 4092c 0 Settings::qt_metacast(char const*)
PUBLIC 409be 0 Settings::qt_metacall(QMetaObject::Call, int, void**)
PUBLIC 40ac2 0 Settings::sourceChanged(QString)
PUBLIC 40b0c 0 Settings::loadedChanged(bool)
PUBLIC 40b58 0 Settings::usersChanged(UsersListModel*)
PUBLIC 40ba2 0 Settings::currentUserChanged(User*)
PUBLIC 40bec 0 Settings::selectedLanguageChanged(QString)
PUBLIC 40c36 0 Settings::useVirtualKeyboardChanged(bool)
PUBLIC 40c82 0 Settings::basefileLoadedChanged(bool)
PUBLIC 40cce 0 Settings::socketIOServerChanged(QString)
PUBLIC 40d18 0 Settings::socketIOChanged(SocketIO*)
PUBLIC 40d62 0 Settings::appRegistredChanged(bool)
PUBLIC 40dae 0 Settings::doUpdate(QString)
PUBLIC 40df8 0 Settings::updateDone()
PUBLIC 40e24 0 Settings::appIDChanged(QString)
PUBLIC 40e6e 0 Settings::appUpdaterChanged(AppUpdater*)
PUBLIC 40eb8 0 Settings::projectsFileChanged(QString)
PUBLIC 40f02 0 Settings::projectsChanged(ProjectsListModel*)
PUBLIC 40f4c 0 Settings::basefileErrorChanged(bool)
PUBLIC 40f98 0 Settings::selectedProjectChanged(Project*)
PUBLIC 40fe2 0 Settings::useKeyboardChanged(bool)
PUBLIC 4102e 0 Settings::useRemoteSettingsChanged(bool)
PUBLIC 4107a 0 Settings::remoteSettingsBaseLocationChanged(QString)
PUBLIC 410c4 0 Settings::newFirmwareAvailableChanged(bool)
PUBLIC 41110 0 Settings::upgradingFirmwareChanged(bool)
PUBLIC 4115c 0 Settings::selectingProjectChanged(bool)
PUBLIC 411a7 0 __static_initialization_and_destruction_0(int, int)
PUBLIC 411f0 0 _GLOBAL__sub_I_moc_settings.cpp
PUBLIC 41206 0 Settings::loaded() const
PUBLIC 41218 0 Settings::sysInfo() const
PUBLIC 41246 0 Settings::cpuType() const
PUBLIC 41274 0 Settings::users() const
PUBLIC 41286 0 Settings::currentUser() const
PUBLIC 41298 0 Settings::selectedLanguage() const
PUBLIC 412c6 0 Settings::useVirtualKeyboard() const
PUBLIC 412d8 0 Settings::basefileLoaded() const
PUBLIC 412ea 0 Settings::socketIO() const
PUBLIC 412fc 0 Settings::appRegistred() const
PUBLIC 4130e 0 Settings::setSelectedanguage(QString)
PUBLIC 413ac 0 Settings::setUseVirtualKeyboard(bool)
PUBLIC 413f4 0 Settings::setSocketIO(SocketIO*)
PUBLIC 4143a 0 Settings::setProjectsFile(QString)
PUBLIC 414e0 0 Settings::setProjects(ProjectsListModel*)
PUBLIC 41530 0 Settings::setUsers(UsersListModel*)
PUBLIC 41566 0 Settings::setAppUpdater(AppUpdater*)
PUBLIC 415b6 0 Settings::setUseKeyboard(bool)
PUBLIC 41606 0 Settings::setUpgradingFirmware(bool)
PUBLIC 41656 0 Settings::projects() const
PUBLIC 4166c 0 Settings::basefileError() const
PUBLIC 41682 0 Settings::selectedProject() const
PUBLIC 41698 0 Settings::useKeyboard() const
PUBLIC 416ae 0 Settings::newFirmwareAvailable() const
PUBLIC 416c4 0 Settings::upgradingFirmware() const
PUBLIC 416da 0 Settings::selectingProject() const
PUBLIC 416ef 0 std::remove_reference<bool&>::type&& std::move<bool&>(bool&)
PUBLIC 416fd 0 QMetaTypeId2<UsersListModel*>::qt_metatype_id()
PUBLIC 41708 0 int qMetaTypeId<UsersListModel*>()
PUBLIC 41713 0 int qRegisterMetaType<UsersListModel*>()
PUBLIC 4171e 0 QMetaTypeId2<User*>::qt_metatype_id()
PUBLIC 41729 0 int qMetaTypeId<User*>()
PUBLIC 41734 0 int qRegisterMetaType<User*>()
PUBLIC 4173f 0 int qMetaTypeId<SocketIO*>()
PUBLIC 4174a 0 int qRegisterMetaType<SocketIO*>()
PUBLIC 41755 0 int qMetaTypeId<AppUpdater*>()
PUBLIC 41760 0 int qRegisterMetaType<AppUpdater*>()
PUBLIC 4176b 0 QMetaTypeId2<ProjectsListModel*>::qt_metatype_id()
PUBLIC 41776 0 int qMetaTypeId<ProjectsListModel*>()
PUBLIC 41781 0 int qRegisterMetaType<ProjectsListModel*>()
PUBLIC 4178c 0 QMetaTypeId2<Project*>::qt_metatype_id()
PUBLIC 41797 0 int qMetaTypeId<Project*>()
PUBLIC 417a2 0 int qRegisterMetaType<Project*>()
PUBLIC 417ad 0 QMetaTypeIdQObject<UsersListModel*, 8>::qt_metatype_id()
PUBLIC 41895 0 QMetaTypeIdQObject<User*, 8>::qt_metatype_id()
PUBLIC 4197d 0 QMetaTypeIdQObject<ProjectsListModel*, 8>::qt_metatype_id()
PUBLIC 41a65 0 QMetaTypeIdQObject<Project*, 8>::qt_metatype_id()
PUBLIC 41b4d 0 QtPrivate::QMetaTypeIdHelper<UsersListModel*, true>::qt_metatype_id()
PUBLIC 41b58 0 int qRegisterNormalizedMetaType<UsersListModel*>(QByteArray const&, UsersListModel**, QtPrivate::MetaTypeDefinedHelper<UsersListModel*, QMetaTypeId2<UsersListModel*>::Defined&&(!QMetaTypeId2<UsersListModel*>::IsBuiltIn)>::DefinedType)
PUBLIC 41c21 0 QtPrivate::QMetaTypeIdHelper<User*, true>::qt_metatype_id()
PUBLIC 41c2c 0 int qRegisterNormalizedMetaType<User*>(QByteArray const&, User**, QtPrivate::MetaTypeDefinedHelper<User*, QMetaTypeId2<User*>::Defined&&(!QMetaTypeId2<User*>::IsBuiltIn)>::DefinedType)
PUBLIC 41cf5 0 QtPrivate::QMetaTypeIdHelper<ProjectsListModel*, true>::qt_metatype_id()
PUBLIC 41d00 0 int qRegisterNormalizedMetaType<ProjectsListModel*>(QByteArray const&, ProjectsListModel**, QtPrivate::MetaTypeDefinedHelper<ProjectsListModel*, QMetaTypeId2<ProjectsListModel*>::Defined&&(!QMetaTypeId2<ProjectsListModel*>::IsBuiltIn)>::DefinedType)
PUBLIC 41dc9 0 QtPrivate::QMetaTypeIdHelper<Project*, true>::qt_metatype_id()
PUBLIC 41dd4 0 int qRegisterNormalizedMetaType<Project*>(QByteArray const&, Project**, QtPrivate::MetaTypeDefinedHelper<Project*, QMetaTypeId2<Project*>::Defined&&(!QMetaTypeId2<Project*>::IsBuiltIn)>::DefinedType)
PUBLIC 41e9d 0 QtMetaTypePrivate::QMetaTypeFunctionHelper<UsersListModel*, true>::Destruct(void*)
PUBLIC 41ea8 0 QtMetaTypePrivate::QMetaTypeFunctionHelper<UsersListModel*, true>::Construct(void*, void const*)
PUBLIC 41ef4 0 QtPrivate::MetaObjectForType<UsersListModel*, void>::value()
PUBLIC 41f01 0 QtPrivate::SequentialContainerConverterHelper<UsersListModel*, false>::registerConverter(int)
PUBLIC 41f0f 0 QtPrivate::AssociativeContainerConverterHelper<UsersListModel*, false>::registerConverter(int)
PUBLIC 41f1d 0 QtPrivate::IsPair<UsersListModel*>::registerConverter(int)
PUBLIC 41f2b 0 QtPrivate::MetaTypeSmartPointerHelper<UsersListModel*, void>::registerConverter(int)
PUBLIC 41f39 0 QtMetaTypePrivate::QMetaTypeFunctionHelper<User*, true>::Destruct(void*)
PUBLIC 41f44 0 QtMetaTypePrivate::QMetaTypeFunctionHelper<User*, true>::Construct(void*, void const*)
PUBLIC 41f90 0 QtPrivate::MetaObjectForType<User*, void>::value()
PUBLIC 41f9d 0 QtPrivate::SequentialContainerConverterHelper<User*, false>::registerConverter(int)
PUBLIC 41fab 0 QtPrivate::AssociativeContainerConverterHelper<User*, false>::registerConverter(int)
PUBLIC 41fb9 0 QtPrivate::IsPair<User*>::registerConverter(int)
PUBLIC 41fc7 0 QtPrivate::MetaTypeSmartPointerHelper<User*, void>::registerConverter(int)
PUBLIC 41fd5 0 QtMetaTypePrivate::QMetaTypeFunctionHelper<ProjectsListModel*, true>::Destruct(void*)
PUBLIC 41fe0 0 QtMetaTypePrivate::QMetaTypeFunctionHelper<ProjectsListModel*, true>::Construct(void*, void const*)
PUBLIC 4202c 0 QtPrivate::MetaObjectForType<ProjectsListModel*, void>::value()
PUBLIC 42039 0 QtPrivate::SequentialContainerConverterHelper<ProjectsListModel*, false>::registerConverter(int)
PUBLIC 42047 0 QtPrivate::AssociativeContainerConverterHelper<ProjectsListModel*, false>::registerConverter(int)
PUBLIC 42055 0 QtPrivate::IsPair<ProjectsListModel*>::registerConverter(int)
PUBLIC 42063 0 QtPrivate::MetaTypeSmartPointerHelper<ProjectsListModel*, void>::registerConverter(int)
PUBLIC 42071 0 QtMetaTypePrivate::QMetaTypeFunctionHelper<Project*, true>::Destruct(void*)
PUBLIC 4207c 0 QtMetaTypePrivate::QMetaTypeFunctionHelper<Project*, true>::Construct(void*, void const*)
PUBLIC 420c8 0 QtPrivate::MetaObjectForType<Project*, void>::value()
PUBLIC 420d5 0 QtPrivate::SequentialContainerConverterHelper<Project*, false>::registerConverter(int)
PUBLIC 420e3 0 QtPrivate::AssociativeContainerConverterHelper<Project*, false>::registerConverter(int)
PUBLIC 420f1 0 QtPrivate::IsPair<Project*>::registerConverter(int)
PUBLIC 420ff 0 QtPrivate::MetaTypeSmartPointerHelper<Project*, void>::registerConverter(int)
PUBLIC 4210e 0 qcm::ContainerModel::qt_static_metacall(QObject*, QMetaObject::Call, int, void**)
PUBLIC 42478 0 qcm::ContainerModel::metaObject() const
PUBLIC 424c0 0 qcm::ContainerModel::qt_metacast(char const*)
PUBLIC 42510 0 qcm::ContainerModel::qt_metacall(QMetaObject::Call, int, void**)
PUBLIC 4260a 0 qcm::ContainerModel::lengthChanged()
PUBLIC 42636 0 QByteArray::QByteArray(QByteArray const&)
PUBLIC 42666 0 qHash(int, unsigned int)
PUBLIC 42678 0 QVariant::QVariant()
PUBLIC 42694 0 QVariant::Private::Private()
PUBLIC 426d6 0 QModelIndex::QModelIndex()
PUBLIC 4270e 0 QModelIndex::isValid() const
PUBLIC 42746 0 qcm::ContainerModel::~ContainerModel()
PUBLIC 42784 0 qcm::ContainerModel::~ContainerModel()
PUBLIC 427b0 0 qcm::ContainerModel::rowCount(QModelIndex const&) const
PUBLIC 427c4 0 qcm::ContainerModel::data(QModelIndex const&, int) const
PUBLIC 427ee 0 qcm::ContainerModel::roleNames() const
PUBLIC 42884 0 qcm::ContainerModel::itemDisplayPropertyChanged()
PUBLIC 4298c 0 qcm::ContainerModel::getLength() const
PUBLIC 429ca 0 qcm::ContainerModel::append(QObject*) const
PUBLIC 429de 0 qcm::ContainerModel::remove(QObject*) const
PUBLIC 429ee 0 qcm::ContainerModel::at(int) const
PUBLIC 42a00 0 qcm::ContainerModel::contains(QObject*) const
PUBLIC 42a38 0 qcm::ContainerModel::indexOf(QObject*) const
PUBLIC 42a4c 0 qcm::ContainerModel::clear() const
PUBLIC 42a5b 0 std::remove_reference<int&>::type&& std::move<int&>(int&)
PUBLIC 42a69 0 std::remove_reference<QObject*&>::type&& std::move<QObject*&>(QObject*&)
PUBLIC 42a78 0 QVector<int>::QVector()
PUBLIC 42a96 0 QVector<int>::~QVector()
PUBLIC 42ad2 0 QHash<int, QByteArray>::QHash()
PUBLIC 42aec 0 QHash<int, QByteArray>::~QHash()
PUBLIC 42b2c 0 QHash<int, QByteArray>::operator[](int const&)
PUBLIC 42c11 0 QTypedArrayData<int>::sharedNull()
PUBLIC 42c1c 0 QVector<int>::freeData(QTypedArrayData<int>*)
PUBLIC 42c7c 0 QHash<int, QByteArray>::freeData(QHashData*)
PUBLIC 42ca6 0 QHash<int, QByteArray>::detach()
PUBLIC 42cd8 0 QHash<int, QByteArray>::findNode(int const&, unsigned int*) const
PUBLIC 42d4c 0 QHash<int, QByteArray>::findNode(int const&, unsigned int) const
PUBLIC 42dfa 0 QHash<int, QByteArray>::createNode(unsigned int, int const&, QByteArray const&, QHashNode<int, QByteArray>**)
PUBLIC 42e96 0 QVector<int>::destruct(int*, int*)
PUBLIC 42eaa 0 QTypedArrayData<int>::begin(int*)
PUBLIC 42ec8 0 QTypedArrayData<int>::end(int*)
PUBLIC 42ef9 0 QTypedArrayData<int>::deallocate(QArrayData*)
PUBLIC 42f1e 0 QHashNode<int, QByteArray>::~QHashNode()
PUBLIC 42f3e 0 QHash<int, QByteArray>::deleteNode2(QHashData::Node*)
PUBLIC 42f62 0 QHash<int, QByteArray>::detach_helper()
PUBLIC 42fdc 0 QHashNode<int, QByteArray>::same_key(unsigned int, int const&) const
PUBLIC 43016 0 QHash<int, QByteArray>::alignOfNode()
PUBLIC 43044 0 QHashNode<int, QByteArray>::QHashNode(int const&, QByteArray const&, unsigned int, QHashNode<int, QByteArray>*)
PUBLIC 4309c 0 QTypedArrayData<int>::data()
PUBLIC 430b6 0 QHash<int, QByteArray>::concrete(QHashData::Node*)
PUBLIC 430c4 0 QHash<int, QByteArray>::duplicateNode(QHashData::Node*, void*)
PUBLIC 43128 0 qcm::AbstractContainer::qt_static_metacall(QObject*, QMetaObject::Call, int, void**)
PUBLIC 431ae 0 qcm::AbstractContainer::metaObject() const
PUBLIC 431f6 0 qcm::AbstractContainer::qt_metacast(char const*)
PUBLIC 43246 0 qcm::AbstractContainer::qt_metacall(QMetaObject::Call, int, void**)
PUBLIC 432f3 0 QMetaTypeId<qcm::ContainerModel*>::qt_metatype_id()
PUBLIC 4334c 0 QPointer<qcm::ContainerModel>::~QPointer()
PUBLIC 43368 0 qcm::AbstractContainer::~AbstractContainer()
PUBLIC 433a6 0 qcm::AbstractContainer::~AbstractContainer()
PUBLIC 433d2 0 qcm::AbstractContainer::getModel()
PUBLIC 43422 0 qcm::AbstractContainer::createModel()
PUBLIC 4342d 0 QMetaTypeId2<qcm::ContainerModel*>::qt_metatype_id()
PUBLIC 43438 0 int qMetaTypeId<qcm::ContainerModel*>()
PUBLIC 43443 0 int qRegisterMetaType<qcm::ContainerModel*>()
PUBLIC 4344e 0 int qRegisterMetaType<qcm::ContainerModel*>(char const*, qcm::ContainerModel**, QtPrivate::MetaTypeDefinedHelper<qcm::ContainerModel*, QMetaTypeId2<qcm::ContainerModel*>::Defined&&(!QMetaTypeId2<qcm::ContainerModel*>::IsBuiltIn)>::DefinedType)
PUBLIC 434be 0 QWeakPointer<QObject>::~QWeakPointer()
PUBLIC 43522 0 QPointer<qcm::ContainerModel>::operator qcm::ContainerModel*() const
PUBLIC 4353c 0 QPointer<qcm::ContainerModel>::data() const
PUBLIC 43556 0 QtPrivate::QMetaTypeIdHelper<qcm::ContainerModel*, true>::qt_metatype_id()
PUBLIC 43561 0 int qRegisterNormalizedMetaType<qcm::ContainerModel*>(QByteArray const&, qcm::ContainerModel**, QtPrivate::MetaTypeDefinedHelper<qcm::ContainerModel*, QMetaTypeId2<qcm::ContainerModel*>::Defined&&(!QMetaTypeId2<qcm::ContainerModel*>::IsBuiltIn)>::DefinedType)
PUBLIC 4362a 0 QWeakPointer<QObject>::data() const
PUBLIC 4366a 0 QtMetaTypePrivate::QMetaTypeFunctionHelper<qcm::ContainerModel*, true>::Destruct(void*)
PUBLIC 43675 0 QtMetaTypePrivate::QMetaTypeFunctionHelper<qcm::ContainerModel*, true>::Construct(void*, void const*)
PUBLIC 436c1 0 QtPrivate::MetaObjectForType<qcm::ContainerModel*, void>::value()
PUBLIC 436ce 0 QtPrivate::SequentialContainerConverterHelper<qcm::ContainerModel*, false>::registerConverter(int)
PUBLIC 436dc 0 QtPrivate::AssociativeContainerConverterHelper<qcm::ContainerModel*, false>::registerConverter(int)
PUBLIC 436ea 0 QtPrivate::IsPair<qcm::ContainerModel*>::registerConverter(int)
PUBLIC 436f8 0 QtPrivate::MetaTypeSmartPointerHelper<qcm::ContainerModel*, void>::registerConverter(int)
PUBLIC 43710 0 __libc_csu_init
PUBLIC 43780 0 __libc_csu_fini
PUBLIC 43784 0 _fini
STACK CFI INIT 12480 2b .cfa: $rsp 8 + .ra: .cfa -8 + ^
STACK CFI INIT 11350 1120 .cfa: $rsp 16 + .ra: .cfa -8 + ^
STACK CFI 11356 .cfa: $rsp 24 +
STACK CFI INIT 12470 8 .cfa: $rsp 8 + .ra: .cfa -8 + ^
STACK CFI INIT 128ca 52 .cfa: $rsp 8 + .ra: .cfa -8 + ^
STACK CFI 128cb $rbp: .cfa -16 + ^ .cfa: $rsp 16 +
STACK CFI 128ce .cfa: $rbp 16 +
STACK CFI 1291b .cfa: $rsp 8 +
STACK CFI INIT 1291c 38 .cfa: $rsp 8 + .ra: .cfa -8 + ^
STACK CFI 1291d $rbp: .cfa -16 + ^ .cfa: $rsp 16 +
STACK CFI 12920 .cfa: $rbp 16 +
STACK CFI 12953 .cfa: $rsp 8 +
STACK CFI INIT 12954 14 .cfa: $rsp 8 + .ra: .cfa -8 + ^
STACK CFI 12955 $rbp: .cfa -16 + ^ .cfa: $rsp 16 +
STACK CFI 12958 .cfa: $rbp 16 +
STACK CFI 12967 .cfa: $rsp 8 +
STACK CFI INIT 12968 43 .cfa: $rsp 8 + .ra: .cfa -8 + ^
STACK CFI 12969 $rbp: .cfa -16 + ^ .cfa: $rsp 16 +
STACK CFI 1296c .cfa: $rbp 16 +
STACK CFI 129aa .cfa: $rsp 8 +
STACK CFI INIT 129ac 1c .cfa: $rsp 8 + .ra: .cfa -8 + ^
STACK CFI 129ad $rbp: .cfa -16 + ^ .cfa: $rsp 16 +
STACK CFI 129b0 .cfa: $rbp 16 +
STACK CFI 129c7 .cfa: $rsp 8 +
STACK CFI INIT 129c8 14 .cfa: $rsp 8 + .ra: .cfa -8 + ^
STACK CFI 129c9 $rbp: .cfa -16 + ^ .cfa: $rsp 16 +
STACK CFI 129cc .cfa: $rbp 16 +
STACK CFI 129db .cfa: $rsp 8 +
STACK CFI INIT 129dc 34 .cfa: $rsp 8 + .ra: .cfa -8 + ^
STACK CFI 129dd $rbp: .cfa -16 + ^ .cfa: $rsp 16 +
STACK CFI 129e0 .cfa: $rbp 16 +
STACK CFI 12a0f .cfa: $rsp 8 +
STACK CFI INIT 12a10 1d .cfa: $rsp 8 + .ra: .cfa -8 + ^
STACK CFI 12a11 $rbp: .cfa -16 + ^ .cfa: $rsp 16 +
STACK CFI 12a14 .cfa: $rbp 16 +
STACK CFI 12a2c .cfa: $rsp 8 +
STACK CFI INIT 12a2e 84 .cfa: $rsp 8 + .ra: .cfa -8 + ^
STACK CFI 12a2f $rbp: .cfa -16 + ^ .cfa: $rsp 16 +
STACK CFI 12a32 .cfa: $rbp 16 +
STACK CFI 12a37 $rbx: .cfa -24 + ^
STACK CFI 12ab1 .cfa: $rsp 8 +
STACK CFI INIT 12ab2 29 .cfa: $rsp 8 + .ra: .cfa -8 + ^
STACK CFI 12ab3 $rbp: .cfa -16 + ^ .cfa: $rsp 16 +
STACK CFI 12ab6 .cfa: $rbp 16 +
STACK CFI 12ada .cfa: $rsp 8 +
STACK CFI INIT 12adc 6b .cfa: $rsp 8 + .ra: .cfa -8 + ^
STACK CFI 12add $rbp: .cfa -16 + ^ .cfa: $rsp 16 +
STACK CFI 12ae0 .cfa: $rbp 16 +
STACK CFI 12ae5 $rbx: .cfa -24 + ^
STACK CFI 12b46 .cfa: $rsp 8 +
STACK CFI INIT 12b48 3a .cfa: $rsp 8 + .ra: .cfa -8 + ^
STACK CFI 12b49 $rbp: .cfa -16 + ^ .cfa: $rsp 16 +
STACK CFI 12b4c .cfa: $rbp 16 +
STACK CFI 12b81 .cfa: $rsp 8 +
STACK CFI INIT 12b82 c5 .cfa: $rsp 8 + .ra: .cfa -8 + ^
STACK CFI 12b83 $rbp: .cfa -16 + ^ .cfa: $rsp 16 +
STACK CFI 12b86 .cfa: $rbp 16 +
STACK CFI 12c46 .cfa: $rsp 8 +
STACK CFI INIT 12c48 19 .cfa: $rsp 8 + .ra: .cfa -8 + ^
STACK CFI 12c49 $rbp: .cfa -16 + ^ .cfa: $rsp 16 +
STACK CFI 12c4c .cfa: $rbp 16 +
STACK CFI 12c60 .cfa: $rsp 8 +
STACK CFI INIT 12c62 39 .cfa: $rsp 8 + .ra: .cfa -8 + ^
STACK CFI 12c63 $rbp: .cfa -16 + ^ .cfa: $rsp 16 +
STACK CFI 12c66 .cfa: $rbp 16 +
STACK CFI 12c6b $rbx: .cfa -24 + ^
STACK CFI 12c9a .cfa: $rsp 8 +
STACK CFI INIT 125b0 2c .cfa: $rsp 8 + .ra: .cfa -8 + ^
STACK CFI 125b1 $rbp: .cfa -16 + ^ .cfa: $rsp 16 +
STACK CFI 125b4 .cfa: $rbp 16 +
STACK CFI 125db .cfa: $rsp 8 +
STACK CFI INIT 12c9c 2f .cfa: $rsp 8 + .ra: .cfa -8 + ^
STACK CFI 12c9d $rbp: .cfa -16 + ^ .cfa: $rsp 16 +
STACK CFI 12ca0 .cfa: $rbp 16 +
STACK CFI 12cca .cfa: $rsp 8 +
STACK CFI INIT 125dc 113 .cfa: $rsp 8 + .ra: .cfa -8 + ^
STACK CFI 125dd $rbp: .cfa -16 + ^ .cfa: $rsp 16 +
STACK CFI 125e0 .cfa: $rbp 16 +
STACK CFI 125ea $r12: .cfa -24 + ^ $rbx: .cfa -32 + ^
STACK CFI 126ee .cfa: $rsp 8 +
STACK CFI INIT 126f0 94 .cfa: $rsp 8 + .ra: .cfa -8 + ^
STACK CFI 126f1 $rbp: .cfa -16 + ^ .cfa: $rsp 16 +
STACK CFI 126f4 .cfa: $rbp 16 +
STACK CFI 126f7 $r12: .cfa -24 + ^ $rbx: .cfa -32 + ^
STACK CFI 12783 .cfa: $rsp 8 +
STACK CFI INIT 12784 31 .cfa: $rsp 8 + .ra: .cfa -8 + ^
STACK CFI 12785 $rbp: .cfa -16 + ^ .cfa: $rsp 16 +
STACK CFI 12788 .cfa: $rbp 16 +
STACK CFI 1278d $rbx: .cfa -24 + ^
STACK CFI 127b4 .cfa: $rsp 8 +
STACK CFI INIT 127b6 36 .cfa: $rsp 8 + .ra: .cfa -8 + ^
STACK CFI 127b7 $rbp: .cfa -16 + ^ .cfa: $rsp 16 +
STACK CFI 127ba .cfa: $rbp 16 +
STACK CFI 127bf $rbx: .cfa -24 + ^
STACK CFI 127eb .cfa: $rsp 8 +
STACK CFI INIT 127ec 1d .cfa: $rsp 8 + .ra: .cfa -8 + ^
STACK CFI 127ed $rbp: .cfa -16 + ^ .cfa: $rsp 16 +
STACK CFI 127f0 .cfa: $rbp 16 +
STACK CFI 12808 .cfa: $rsp 8 +
STACK CFI INIT 1280a 95 .cfa: $rsp 8 + .ra: .cfa -8 + ^
STACK CFI 1280b $rbp: .cfa -16 + ^ .cfa: $rsp 16 +
STACK CFI 1280e .cfa: $rbp 16 +
STACK CFI 1289e .cfa: $rsp 8 +
STACK CFI INIT 128a0 29 .cfa: $rsp 8 + .ra: .cfa -8 + ^
STACK CFI 128a1 $rbp: .cfa -16 + ^ .cfa: $rsp 16 +
STACK CFI 128a4 .cfa: $rbp 16 +
STACK CFI 128c8 .cfa: $rsp 8 +
STACK CFI INIT 12ccc 1a .cfa: $rsp 8 + .ra: .cfa -8 + ^
STACK CFI 12ccd $rbp: .cfa -16 + ^ .cfa: $rsp 16 +
STACK CFI 12cd0 .cfa: $rbp 16 +
STACK CFI 12ce5 .cfa: $rsp 8 +
STACK CFI INIT 12ce6 1a .cfa: $rsp 8 + .ra: .cfa -8 + ^
STACK CFI 12ce7 $rbp: .cfa -16 + ^ .cfa: $rsp 16 +
STACK CFI 12cea .cfa: $rbp 16 +
STACK CFI 12cff .cfa: $rsp 8 +
STACK CFI INIT 12d00 25 .cfa: $rsp 8 + .ra: .cfa -8 + ^
STACK CFI 12d01 $rbp: .cfa -16 + ^ .cfa: $rsp 16 +
STACK CFI 12d04 .cfa: $rbp 16 +
STACK CFI 12d24 .cfa: $rsp 8 +
STACK CFI INIT 12d26 1a .cfa: $rsp 8 + .ra: .cfa -8 + ^
STACK CFI 12d27 $rbp: .cfa -16 + ^ .cfa: $rsp 16 +
STACK CFI 12d2a .cfa: $rbp 16 +
STACK CFI 12d3f .cfa: $rsp 8 +
STACK CFI INIT 12d40 36 .cfa: $rsp 8 + .ra: .cfa -8 + ^
STACK CFI 12d41 $rbp: .cfa -16 + ^ .cfa: $rsp 16 +
STACK CFI 12d44 .cfa: $rbp 16 +
STACK CFI 12d75 .cfa: $rsp 8 +
STACK CFI INIT 12d76 1f .cfa: $rsp 8 + .ra: .cfa -8 + ^
STACK CFI 12d77 $rbp: .cfa -16 + ^ .cfa: $rsp 16 +
STACK CFI 12d7a .cfa: $rbp 16 +
STACK CFI 12d94 .cfa: $rsp 8 +
STACK CFI INIT 12d96 1f .cfa: $rsp 8 + .ra: .cfa -8 + ^
STACK CFI 12d97 $rbp: .cfa -16 + ^ .cfa: $rsp 16 +
STACK CFI 12d9a .cfa: $rbp 16 +
STACK CFI 12db4 .cfa: $rsp 8 +
STACK CFI INIT 1317a 1d .cfa: $rsp 8 + .ra: .cfa -8 + ^
STACK CFI 1317b $rbp: .cfa -16 + ^ .cfa: $rsp 16 +
STACK CFI 1317e .cfa: $rbp 16 +
STACK CFI 13196 .cfa: $rsp 8 +
STACK CFI INIT 13198 1d .cfa: $rsp 8 + .ra: .cfa -8 + ^
STACK CFI 13199 $rbp: .cfa -16 + ^ .cfa: $rsp 16 +
STACK CFI 1319c .cfa: $rbp 16 +
STACK CFI 131b4 .cfa: $rsp 8 +
STACK CFI INIT 131b6 2b .cfa: $rsp 8 + .ra: .cfa -8 + ^
STACK CFI 131b7 $rbp: .cfa -16 + ^ .cfa: $rsp 16 +
STACK CFI 131ba .cfa: $rbp 16 +
STACK CFI 131e0 .cfa: $rsp 8 +
STACK CFI INIT 12db6 49 .cfa: $rsp 8 + .ra: .cfa -8 + ^
STACK CFI 12db7 $rbp: .cfa -16 + ^ .cfa: $rsp 16 +
STACK CFI 12dba .cfa: $rbp 16 +
STACK CFI 12dfe .cfa: $rsp 8 +
STACK CFI INIT 12dff 59 .cfa: $rsp 8 + .ra: .cfa -8 + ^
STACK CFI 12e00 $rbp: .cfa -16 + ^ .cfa: $rsp 16 +
STACK CFI 12e03 .cfa: $rbp 16 +
STACK CFI 12e57 .cfa: $rsp 8 +
STACK CFI INIT 12e58 5a .cfa: $rsp 8 + .ra: .cfa -8 + ^
STACK CFI 12e59 $rbp: .cfa -16 + ^ .cfa: $rsp 16 +
STACK CFI 12e5c .cfa: $rbp 16 +
STACK CFI 12eb1 .cfa: $rsp 8 +
STACK CFI INIT 12eb2 4b .cfa: $rsp 8 + .ra: .cfa -8 + ^
STACK CFI 12eb3 $rbp: .cfa -16 + ^ .cfa: $rsp 16 +
STACK CFI 12eb6 .cfa: $rbp 16 +
STACK CFI 12efc .cfa: $rsp 8 +
STACK CFI INIT 12efe 36 .cfa: $rsp 8 + .ra: .cfa -8 + ^
STACK CFI 12eff $rbp: .cfa -16 + ^ .cfa: $rsp 16 +
STACK CFI 12f02 .cfa: $rbp 16 +
STACK CFI 12f33 .cfa: $rsp 8 +
STACK CFI INIT 12f34 29 .cfa: $rsp 8 + .ra: .cfa -8 + ^
STACK CFI 12f35 $rbp: .cfa -16 + ^ .cfa: $rsp 16 +
STACK CFI 12f38 .cfa: $rbp 16 +
STACK CFI 12f5c .cfa: $rsp 8 +
STACK CFI INIT 12f5e 2b .cfa: $rsp 8 + .ra: .cfa -8 + ^
STACK CFI 12f5f $rbp: .cfa -16 + ^ .cfa: $rsp 16 +
STACK CFI 12f62 .cfa: $rbp 16 +
STACK CFI 12f88 .cfa: $rsp 8 +
STACK CFI INIT 12f8a 1b2 .cfa: $rsp 8 + .ra: .cfa -8 + ^
STACK CFI 12f8b $rbp: .cfa -16 + ^ .cfa: $rsp 16 +
STACK CFI 12f8e .cfa: $rbp 16 +
STACK CFI 1313b .cfa: $rsp 8 +
STACK CFI INIT 1313c 3d .cfa: $rsp 8 + .ra: .cfa -8 + ^
STACK CFI 1313d $rbp: .cfa -16 + ^ .cfa: $rsp 16 +
STACK CFI 13140 .cfa: $rbp 16 +
STACK CFI 13145 $rbx: .cfa -24 + ^
STACK CFI 13178 .cfa: $rsp 8 +
STACK CFI INIT 14fa6 12 .cfa: $rsp 8 + .ra: .cfa -8 + ^
STACK CFI 14fa7 $rbp: .cfa -16 + ^ .cfa: $rsp 16 +
STACK CFI 14faa .cfa: $rbp 16 +
STACK CFI 14fb7 .cfa: $rsp 8 +
STACK CFI INIT 14fb8 16 .cfa: $rsp 8 + .ra: .cfa -8 + ^
STACK CFI 14fb9 $rbp: .cfa -16 + ^ .cfa: $rsp 16 +
STACK CFI 14fbc .cfa: $rbp 16 +
STACK CFI 14fcd .cfa: $rsp 8 +
STACK CFI INIT 14fce 11 .cfa: $rsp 8 + .ra: .cfa -8 + ^
STACK CFI 14fcf $rbp: .cfa -16 + ^ .cfa: $rsp 16 +
STACK CFI 14fd2 .cfa: $rbp 16 +
STACK CFI 14fde .cfa: $rsp 8 +
STACK CFI INIT 14fe0 12 .cfa: $rsp 8 + .ra: .cfa -8 + ^
STACK CFI 14fe1 $rbp: .cfa -16 + ^ .cfa: $rsp 16 +
STACK CFI 14fe4 .cfa: $rbp 16 +
STACK CFI 14ff1 .cfa: $rsp 8 +
STACK CFI INIT 14ff2 16 .cfa: $rsp 8 + .ra: .cfa -8 + ^
STACK CFI 14ff3 $rbp: .cfa -16 + ^ .cfa: $rsp 16 +
STACK CFI 14ff6 .cfa: $rbp 16 +
STACK CFI 15007 .cfa: $rsp 8 +
STACK CFI INIT 15008 12 .cfa: $rsp 8 + .ra: .cfa -8 + ^
STACK CFI 15009 $rbp: .cfa -16 + ^ .cfa: $rsp 16 +
STACK CFI 1500c .cfa: $rbp 16 +
STACK CFI 15019 .cfa: $rsp 8 +
STACK CFI INIT 1501a 12 .cfa: $rsp 8 + .ra: .cfa -8 + ^
STACK CFI 1501b $rbp: .cfa -16 + ^ .cfa: $rsp 16 +
STACK CFI 1501e .cfa: $rbp 16 +
STACK CFI 1502b .cfa: $rsp 8 +
STACK CFI INIT 1502c 12 .cfa: $rsp 8 + .ra: .cfa -8 + ^
STACK CFI 1502d $rbp: .cfa -16 + ^ .cfa: $rsp 16 +
STACK CFI 15030 .cfa: $rbp 16 +
STACK CFI 1503d .cfa: $rsp 8 +
STACK CFI INIT 1503e 12 .cfa: $rsp 8 + .ra: .cfa -8 + ^
STACK CFI 1503f $rbp: .cfa -16 + ^ .cfa: $rsp 16 +
STACK CFI 15042 .cfa: $rbp 16 +
STACK CFI 1504f .cfa: $rsp 8 +
STACK CFI INIT 15050 45 .cfa: $rsp 8 + .ra: .cfa -8 + ^
STACK CFI 15051 $rbp: .cfa -16 + ^ .cfa: $rsp 16 +
STACK CFI 15054 .cfa: $rbp 16 +
STACK CFI 15094 .cfa: $rsp 8 +
STACK CFI INIT 131e2 cc .cfa: $rsp 8 + .ra: .cfa -8 + ^
STACK CFI 131e3 $rbp: .cfa -16 + ^ .cfa: $rsp 16 +
STACK CFI 131e6 .cfa: $rbp 16 +
STACK CFI 131ef $r12: .cfa -32 + ^ $r13: .cfa -24 + ^ $rbx: .cfa -40 + ^
STACK CFI 132ad .cfa: $rsp 8 +
STACK CFI INIT 132ae 49 .cfa: $rsp 8 + .ra: .cfa -8 + ^
STACK CFI 132af $rbp: .cfa -16 + ^ .cfa: $rsp 16 +
STACK CFI 132b2 .cfa: $rbp 16 +
STACK CFI 132f6 .cfa: $rsp 8 +
STACK CFI INIT 132f7 3d .cfa: $rsp 8 + .ra: .cfa -8 + ^
STACK CFI 132f8 $rbp: .cfa -16 + ^ .cfa: $rsp 16 +
STACK CFI 132fb .cfa: $rbp 16 +
STACK CFI 13333 .cfa: $rsp 8 +
STACK CFI INIT 13334 3d .cfa: $rsp 8 + .ra: .cfa -8 + ^
STACK CFI 13335 $rbp: .cfa -16 + ^ .cfa: $rsp 16 +
STACK CFI 13338 .cfa: $rbp 16 +
STACK CFI 13370 .cfa: $rsp 8 +
STACK CFI INIT 13371 53 .cfa: $rsp 8 + .ra: .cfa -8 + ^
STACK CFI 13372 $rbp: .cfa -16 + ^ .cfa: $rsp 16 +
STACK CFI 13375 .cfa: $rbp 16 +
STACK CFI 133c3 .cfa: $rsp 8 +
STACK CFI INIT 133c4 72 .cfa: $rsp 8 + .ra: .cfa -8 + ^
STACK CFI 133c5 $rbp: .cfa -16 + ^ .cfa: $rsp 16 +
STACK CFI 133c8 .cfa: $rbp 16 +
STACK CFI 133cd $rbx: .cfa -24 + ^
STACK CFI 13435 .cfa: $rsp 8 +
STACK CFI INIT 13436 59 .cfa: $rsp 8 + .ra: .cfa -8 + ^
STACK CFI 13437 $rbp: .cfa -16 + ^ .cfa: $rsp 16 +
STACK CFI 1343a .cfa: $rbp 16 +
STACK CFI 1348e .cfa: $rsp 8 +
STACK CFI INIT 1348f 56 .cfa: $rsp 8 + .ra: .cfa -8 + ^
STACK CFI 13490 $rbp: .cfa -16 + ^ .cfa: $rsp 16 +
STACK CFI 13493 .cfa: $rbp 16 +
STACK CFI 134e4 .cfa: $rsp 8 +
STACK CFI INIT 134e5 58 .cfa: $rsp 8 + .ra: .cfa -8 + ^
STACK CFI 134e6 $rbp: .cfa -16 + ^ .cfa: $rsp 16 +
STACK CFI 134e9 .cfa: $rbp 16 +
STACK CFI 1353c .cfa: $rsp 8 +
STACK CFI INIT 1353d 59 .cfa: $rsp 8 + .ra: .cfa -8 + ^
STACK CFI 1353e $rbp: .cfa -16 + ^ .cfa: $rsp 16 +
STACK CFI 13541 .cfa: $rbp 16 +
STACK CFI 13595 .cfa: $rsp 8 +
STACK CFI INIT 13596 68 .cfa: $rsp 8 + .ra: .cfa -8 + ^
STACK CFI 13597 $rbp: .cfa -16 + ^ .cfa: $rsp 16 +
STACK CFI 1359a .cfa: $rbp 16 +
STACK CFI 135fd .cfa: $rsp 8 +
STACK CFI INIT 135fe 8e .cfa: $rsp 8 + .ra: .cfa -8 + ^
STACK CFI 135ff $rbp: .cfa -16 + ^ .cfa: $rsp 16 +
STACK CFI 13602 .cfa: $rbp 16 +
STACK CFI 1360b $r12: .cfa -32 + ^ $r13: .cfa -24 + ^ $rbx: .cfa -40 + ^
STACK CFI 1368b .cfa: $rsp 8 +
STACK CFI INIT 1368c 4b .cfa: $rsp 8 + .ra: .cfa -8 + ^
STACK CFI 1368d $rbp: .cfa -16 + ^ .cfa: $rsp 16 +
STACK CFI 13690 .cfa: $rbp 16 +
STACK CFI 136d6 .cfa: $rsp 8 +
STACK CFI INIT 136d7 22 .cfa: $rsp 8 + .ra: .cfa -8 + ^
STACK CFI 136d8 $rbp: .cfa -16 + ^ .cfa: $rsp 16 +
STACK CFI 136db .cfa: $rbp 16 +
STACK CFI 136f8 .cfa: $rsp 8 +
STACK CFI INIT 136f9 2a .cfa: $rsp 8 + .ra: .cfa -8 + ^
STACK CFI 136fa $rbp: .cfa -16 + ^ .cfa: $rsp 16 +
STACK CFI 136fd .cfa: $rbp 16 +
STACK CFI 13722 .cfa: $rsp 8 +
STACK CFI INIT 15096 4e .cfa: $rsp 8 + .ra: .cfa -8 + ^
STACK CFI 15097 $rbp: .cfa -16 + ^ .cfa: $rsp 16 +
STACK CFI 1509a .cfa: $rbp 16 +
STACK CFI 150e3 .cfa: $rsp 8 +
STACK CFI INIT 150e4 1b .cfa: $rsp 8 + .ra: .cfa -8 + ^
STACK CFI 150e5 $rbp: .cfa -16 + ^ .cfa: $rsp 16 +
STACK CFI 150e8 .cfa: $rbp 16 +
STACK CFI 150fe .cfa: $rsp 8 +
STACK CFI INIT 15100 177 .cfa: $rsp 8 + .ra: .cfa -8 + ^
STACK CFI 15101 $rbp: .cfa -16 + ^ .cfa: $rsp 16 +
STACK CFI 15104 .cfa: $rbp 16 +
STACK CFI 15276 .cfa: $rsp 8 +
STACK CFI INIT 15278 9d .cfa: $rsp 8 + .ra: .cfa -8 + ^
STACK CFI 15279 $rbp: .cfa -16 + ^ .cfa: $rsp 16 +
STACK CFI 1527c .cfa: $rbp 16 +
STACK CFI 15314 .cfa: $rsp 8 +
STACK CFI INIT 15316 59 .cfa: $rsp 8 + .ra: .cfa -8 + ^
STACK CFI 15317 $rbp: .cfa -16 + ^ .cfa: $rsp 16 +
STACK CFI 1531a .cfa: $rbp 16 +
STACK CFI 1536e .cfa: $rsp 8 +
STACK CFI INIT 15370 1c .cfa: $rsp 8 + .ra: .cfa -8 + ^
STACK CFI 15371 $rbp: .cfa -16 + ^ .cfa: $rsp 16 +
STACK CFI 15374 .cfa: $rbp 16 +
STACK CFI 1538b .cfa: $rsp 8 +
STACK CFI INIT 1538c 24 .cfa: $rsp 8 + .ra: .cfa -8 + ^
STACK CFI 1538d $rbp: .cfa -16 + ^ .cfa: $rsp 16 +
STACK CFI 15390 .cfa: $rbp 16 +
STACK CFI 153af .cfa: $rsp 8 +
STACK CFI INIT 13723 d9 .cfa: $rsp 8 + .ra: .cfa -8 + ^
STACK CFI 13724 $rbp: .cfa -16 + ^ .cfa: $rsp 16 +
STACK CFI 13727 .cfa: $rbp 16 +
STACK CFI 137fb .cfa: $rsp 8 +
STACK CFI INIT 137fc b1 .cfa: $rsp 8 + .ra: .cfa -8 + ^
STACK CFI 137fd $rbp: .cfa -16 + ^ .cfa: $rsp 16 +
STACK CFI 13800 .cfa: $rbp 16 +
STACK CFI 138ac .cfa: $rsp 8 +
STACK CFI INIT 138ad 1d .cfa: $rsp 8 + .ra: .cfa -8 + ^
STACK CFI 138ae $rbp: .cfa -16 + ^ .cfa: $rsp 16 +
STACK CFI 138b1 .cfa: $rbp 16 +
STACK CFI 138c9 .cfa: $rsp 8 +
STACK CFI INIT 153b0 1b .cfa: $rsp 8 + .ra: .cfa -8 + ^
STACK CFI 153b1 $rbp: .cfa -16 + ^ .cfa: $rsp 16 +
STACK CFI 153b4 .cfa: $rbp 16 +
STACK CFI 153ca .cfa: $rsp 8 +
STACK CFI INIT 153cc 1b .cfa: $rsp 8 + .ra: .cfa -8 + ^
STACK CFI 153cd $rbp: .cfa -16 + ^ .cfa: $rsp 16 +
STACK CFI 153d0 .cfa: $rbp 16 +
STACK CFI 153e6 .cfa: $rsp 8 +
STACK CFI INIT 138ca 22a .cfa: $rsp 8 + .ra: .cfa -8 + ^
STACK CFI 138cb $rbp: .cfa -16 + ^ .cfa: $rsp 16 +
STACK CFI 138ce .cfa: $rbp 16 +
STACK CFI 138d3 $rbx: .cfa -24 + ^
STACK CFI 13af3 .cfa: $rsp 8 +
STACK CFI INIT 13af4 125 .cfa: $rsp 8 + .ra: .cfa -8 + ^
STACK CFI 13af5 $rbp: .cfa -16 + ^ .cfa: $rsp 16 +
STACK CFI 13af8 .cfa: $rbp 16 +
STACK CFI 13afd $rbx: .cfa -24 + ^
STACK CFI 13c18 .cfa: $rsp 8 +
STACK CFI INIT 13c1a 15f .cfa: $rsp 8 + .ra: .cfa -8 + ^
STACK CFI 13c1b $rbp: .cfa -16 + ^ .cfa: $rsp 16 +
STACK CFI 13c1e .cfa: $rbp 16 +
STACK CFI 13d78 .cfa: $rsp 8 +
STACK CFI INIT 13d7a ac .cfa: $rsp 8 + .ra: .cfa -8 + ^
STACK CFI 13d7b $rbp: .cfa -16 + ^ .cfa: $rsp 16 +
STACK CFI 13d7e .cfa: $rbp 16 +
STACK CFI 13e25 .cfa: $rsp 8 +
STACK CFI INIT 13e26 22b .cfa: $rsp 8 + .ra: .cfa -8 + ^
STACK CFI 13e27 $rbp: .cfa -16 + ^ .cfa: $rsp 16 +
STACK CFI 13e2a .cfa: $rbp 16 +
STACK CFI 13e32 $rbx: .cfa -24 + ^
STACK CFI 14050 .cfa: $rsp 8 +
STACK CFI INIT 14052 7c .cfa: $rsp 8 + .ra: .cfa -8 + ^
STACK CFI 14053 $rbp: .cfa -16 + ^ .cfa: $rsp 16 +
STACK CFI 14056 .cfa: $rbp 16 +
STACK CFI 140cd .cfa: $rsp 8 +
STACK CFI INIT 140ce 1ca .cfa: $rsp 8 + .ra: .cfa -8 + ^
STACK CFI 140cf $rbp: .cfa -16 + ^ .cfa: $rsp 16 +
STACK CFI 140d2 .cfa: $rbp 16 +
STACK CFI 140d7 $rbx: .cfa -24 + ^
STACK CFI 14297 .cfa: $rsp 8 +
STACK CFI INIT 14298 6c .cfa: $rsp 8 + .ra: .cfa -8 + ^
STACK CFI 14299 $rbp: .cfa -16 + ^ .cfa: $rsp 16 +
STACK CFI 1429c .cfa: $rbp 16 +
STACK CFI 14303 .cfa: $rsp 8 +
STACK CFI INIT 14304 39b .cfa: $rsp 8 + .ra: .cfa -8 + ^
STACK CFI 14305 $rbp: .cfa -16 + ^ .cfa: $rsp 16 +
STACK CFI 14308 .cfa: $rbp 16 +
STACK CFI 14310 $rbx: .cfa -24 + ^
STACK CFI 1469e .cfa: $rsp 8 +
STACK CFI INIT 146a0 ac .cfa: $rsp 8 + .ra: .cfa -8 + ^
STACK CFI 146a1 $rbp: .cfa -16 + ^ .cfa: $rsp 16 +
STACK CFI 146a4 .cfa: $rbp 16 +
STACK CFI 146a9 $rbx: .cfa -24 + ^
STACK CFI 1474b .cfa: $rsp 8 +
STACK CFI INIT 1474c ac .cfa: $rsp 8 + .ra: .cfa -8 + ^
STACK CFI 1474d $rbp: .cfa -16 + ^ .cfa: $rsp 16 +
STACK CFI 14750 .cfa: $rbp 16 +
STACK CFI 14755 $rbx: .cfa -24 + ^
STACK CFI 147f7 .cfa: $rsp 8 +
STACK CFI INIT 147f8 1bc .cfa: $rsp 8 + .ra: .cfa -8 + ^
STACK CFI 147f9 $rbp: .cfa -16 + ^ .cfa: $rsp 16 +
STACK CFI 147fc .cfa: $rbp 16 +
STACK CFI 14809 $r12: .cfa -48 + ^ $r13: .cfa -40 + ^ $r14: .cfa -32 + ^ $r15: .cfa -24 + ^ $rbx: .cfa -56 + ^
STACK CFI 149b3 .cfa: $rsp 8 +
STACK CFI INIT 149b4 e3 .cfa: $rsp 8 + .ra: .cfa -8 + ^
STACK CFI 149b5 $rbp: .cfa -16 + ^ .cfa: $rsp 16 +
STACK CFI 149b8 .cfa: $rbp 16 +
STACK CFI 149c0 $rbx: .cfa -24 + ^
STACK CFI 14a96 .cfa: $rsp 8 +
STACK CFI INIT 14a98 1aa .cfa: $rsp 8 + .ra: .cfa -8 + ^
STACK CFI 14a99 $rbp: .cfa -16 + ^ .cfa: $rsp 16 +
STACK CFI 14a9c .cfa: $rbp 16 +
STACK CFI 14c41 .cfa: $rsp 8 +
STACK CFI INIT 14c42 eb .cfa: $rsp 8 + .ra: .cfa -8 + ^
STACK CFI 14c43 $rbp: .cfa -16 + ^ .cfa: $rsp 16 +
STACK CFI 14c46 .cfa: $rbp 16 +
STACK CFI 14d2c .cfa: $rsp 8 +
STACK CFI INIT 14d2e b6 .cfa: $rsp 8 + .ra: .cfa -8 + ^
STACK CFI 14d2f $rbp: .cfa -16 + ^ .cfa: $rsp 16 +
STACK CFI 14d32 .cfa: $rbp 16 +
STACK CFI 14d37 $rbx: .cfa -24 + ^
STACK CFI 14de3 .cfa: $rsp 8 +
STACK CFI INIT 14de4 b3 .cfa: $rsp 8 + .ra: .cfa -8 + ^
STACK CFI 14de5 $rbp: .cfa -16 + ^ .cfa: $rsp 16 +
STACK CFI 14de8 .cfa: $rbp 16 +
STACK CFI 14ded $rbx: .cfa -24 + ^
STACK CFI 14e96 .cfa: $rsp 8 +
STACK CFI INIT 14e98 f8 .cfa: $rsp 8 + .ra: .cfa -8 + ^
STACK CFI 14e99 $rbp: .cfa -16 + ^ .cfa: $rsp 16 +
STACK CFI 14e9c .cfa: $rbp 16 +
STACK CFI 14ea4 $rbx: .cfa -24 + ^
STACK CFI 14f8f .cfa: $rsp 8 +
STACK CFI INIT 14f90 16 .cfa: $rsp 8 + .ra: .cfa -8 + ^
STACK CFI 14f91 $rbp: .cfa -16 + ^ .cfa: $rsp 16 +
STACK CFI 14f94 .cfa: $rbp 16 +
STACK CFI 14fa5 .cfa: $rsp 8 +
STACK CFI INIT 153e8 54 .cfa: $rsp 8 + .ra: .cfa -8 + ^
STACK CFI 153e9 $rbp: .cfa -16 + ^ .cfa: $rsp 16 +
STACK CFI 153ec .cfa: $rbp 16 +
STACK CFI 1543b .cfa: $rsp 8 +
STACK CFI INIT 1543c 11 .cfa: $rsp 8 + .ra: .cfa -8 + ^
STACK CFI 1543d $rbp: .cfa -16 + ^ .cfa: $rsp 16 +
STACK CFI 15440 .cfa: $rbp 16 +
STACK CFI 1544c .cfa: $rsp 8 +
STACK CFI INIT 1544e 1a .cfa: $rsp 8 + .ra: .cfa -8 + ^
STACK CFI 1544f $rbp: .cfa -16 + ^ .cfa: $rsp 16 +
STACK CFI 15452 .cfa: $rbp 16 +
STACK CFI 15467 .cfa: $rsp 8 +
STACK CFI INIT 15468 38 .cfa: $rsp 8 + .ra: .cfa -8 + ^
STACK CFI 15469 $rbp: .cfa -16 + ^ .cfa: $rsp 16 +
STACK CFI 1546c .cfa: $rbp 16 +
STACK CFI 1549f .cfa: $rsp 8 +
STACK CFI INIT 154a0 1b .cfa: $rsp 8 + .ra: .cfa -8 + ^
STACK CFI 154a1 $rbp: .cfa -16 + ^ .cfa: $rsp 16 +
STACK CFI 154a4 .cfa: $rbp 16 +
STACK CFI 154ba .cfa: $rsp 8 +
STACK CFI INIT 154bc 1b .cfa: $rsp 8 + .ra: .cfa -8 + ^
STACK CFI 154bd $rbp: .cfa -16 + ^ .cfa: $rsp 16 +
STACK CFI 154c0 .cfa: $rbp 16 +
STACK CFI 154d6 .cfa: $rsp 8 +
STACK CFI INIT 154d8 27 .cfa: $rsp 8 + .ra: .cfa -8 + ^
STACK CFI 154d9 $rbp: .cfa -16 + ^ .cfa: $rsp 16 +
STACK CFI 154dc .cfa: $rbp 16 +
STACK CFI 154fe .cfa: $rsp 8 +
STACK CFI INIT 15500 1b .cfa: $rsp 8 + .ra: .cfa -8 + ^
STACK CFI 15501 $rbp: .cfa -16 + ^ .cfa: $rsp 16 +
STACK CFI 15504 .cfa: $rbp 16 +
STACK CFI 1551a .cfa: $rsp 8 +
STACK CFI INIT 1551c 1b .cfa: $rsp 8 + .ra: .cfa -8 + ^
STACK CFI 1551d $rbp: .cfa -16 + ^ .cfa: $rsp 16 +
STACK CFI 15520 .cfa: $rbp 16 +
STACK CFI 15536 .cfa: $rsp 8 +
STACK CFI INIT 15538 27 .cfa: $rsp 8 + .ra: .cfa -8 + ^
STACK CFI 15539 $rbp: .cfa -16 + ^ .cfa: $rsp 16 +
STACK CFI 1553c .cfa: $rbp 16 +
STACK CFI 1555e .cfa: $rsp 8 +
STACK CFI INIT 15560 1b .cfa: $rsp 8 + .ra: .cfa -8 + ^
STACK CFI 15561 $rbp: .cfa -16 + ^ .cfa: $rsp 16 +
STACK CFI 15564 .cfa: $rbp 16 +
STACK CFI 1557a .cfa: $rsp 8 +
STACK CFI INIT 1557b e .cfa: $rsp 8 + .ra: .cfa -8 + ^
STACK CFI 1557c $rbp: .cfa -16 + ^ .cfa: $rsp 16 +
STACK CFI 1557f .cfa: $rbp 16 +
STACK CFI 15588 .cfa: $rsp 8 +
STACK CFI INIT 1558a 31 .cfa: $rsp 8 + .ra: .cfa -8 + ^
STACK CFI 1558b $rbp: .cfa -16 + ^ .cfa: $rsp 16 +
STACK CFI 1558e .cfa: $rbp 16 +
STACK CFI 155ba .cfa: $rsp 8 +
STACK CFI INIT 155bc 25 .cfa: $rsp 8 + .ra: .cfa -8 + ^
STACK CFI 155bd $rbp: .cfa -16 + ^ .cfa: $rsp 16 +
STACK CFI 155c0 .cfa: $rbp 16 +
STACK CFI 155e0 .cfa: $rsp 8 +
STACK CFI INIT 155e2 29 .cfa: $rsp 8 + .ra: .cfa -8 + ^
STACK CFI 155e3 $rbp: .cfa -16 + ^ .cfa: $rsp 16 +
STACK CFI 155e6 .cfa: $rbp 16 +
STACK CFI 1560a .cfa: $rsp 8 +
STACK CFI INIT 1560b 38 .cfa: $rsp 8 + .ra: .cfa -8 + ^
STACK CFI 1560c $rbp: .cfa -16 + ^ .cfa: $rsp 16 +
STACK CFI 1560f .cfa: $rbp 16 +
STACK CFI 15642 .cfa: $rsp 8 +
STACK CFI INIT 15644 29 .cfa: $rsp 8 + .ra: .cfa -8 + ^
STACK CFI 15645 $rbp: .cfa -16 + ^ .cfa: $rsp 16 +
STACK CFI 15648 .cfa: $rbp 16 +
STACK CFI 1566c .cfa: $rsp 8 +
STACK CFI INIT 1566e 6f .cfa: $rsp 8 + .ra: .cfa -8 + ^
STACK CFI 1566f $rbp: .cfa -16 + ^ .cfa: $rsp 16 +
STACK CFI 15672 .cfa: $rbp 16 +
STACK CFI 15677 $rbx: .cfa -24 + ^
STACK CFI 156dc .cfa: $rsp 8 +
STACK CFI INIT 156de 41 .cfa: $rsp 8 + .ra: .cfa -8 + ^
STACK CFI 156df $rbp: .cfa -16 + ^ .cfa: $rsp 16 +
STACK CFI 156e2 .cfa: $rbp 16 +
STACK CFI 1571e .cfa: $rsp 8 +
STACK CFI INIT 15720 44 .cfa: $rsp 8 + .ra: .cfa -8 + ^
STACK CFI 15721 $rbp: .cfa -16 + ^ .cfa: $rsp 16 +
STACK CFI 15724 .cfa: $rbp 16 +
STACK CFI 15763 .cfa: $rsp 8 +
STACK CFI INIT 15764 26 .cfa: $rsp 8 + .ra: .cfa -8 + ^
STACK CFI 15765 $rbp: .cfa -16 + ^ .cfa: $rsp 16 +
STACK CFI 15768 .cfa: $rbp 16 +
STACK CFI 15789 .cfa: $rsp 8 +
STACK CFI INIT 1578a 20 .cfa: $rsp 8 + .ra: .cfa -8 + ^
STACK CFI 1578b $rbp: .cfa -16 + ^ .cfa: $rsp 16 +
STACK CFI 1578e .cfa: $rbp 16 +
STACK CFI 157a9 .cfa: $rsp 8 +
STACK CFI INIT 157aa 40 .cfa: $rsp 8 + .ra: .cfa -8 + ^
STACK CFI 157ab $rbp: .cfa -16 + ^ .cfa: $rsp 16 +
STACK CFI 157ae .cfa: $rbp 16 +
STACK CFI 157e9 .cfa: $rsp 8 +
STACK CFI INIT 157ea b .cfa: $rsp 8 + .ra: .cfa -8 + ^
STACK CFI 157eb $rbp: .cfa -16 + ^ .cfa: $rsp 16 +
STACK CFI 157ee .cfa: $rbp 16 +
STACK CFI 157f4 .cfa: $rsp 8 +
STACK CFI INIT 157f6 35 .cfa: $rsp 8 + .ra: .cfa -8 + ^
STACK CFI 157f7 $rbp: .cfa -16 + ^ .cfa: $rsp 16 +
STACK CFI 157fa .cfa: $rbp 16 +
STACK CFI 1582a .cfa: $rsp 8 +
STACK CFI INIT 1582c 28 .cfa: $rsp 8 + .ra: .cfa -8 + ^
STACK CFI 1582d $rbp: .cfa -16 + ^ .cfa: $rsp 16 +
STACK CFI 15830 .cfa: $rbp 16 +
STACK CFI 15853 .cfa: $rsp 8 +
STACK CFI INIT 15854 25 .cfa: $rsp 8 + .ra: .cfa -8 + ^
STACK CFI 15855 $rbp: .cfa -16 + ^ .cfa: $rsp 16 +
STACK CFI 15858 .cfa: $rbp 16 +
STACK CFI 15878 .cfa: $rsp 8 +
STACK CFI INIT 15879 38 .cfa: $rsp 8 + .ra: .cfa -8 + ^
STACK CFI 1587a $rbp: .cfa -16 + ^ .cfa: $rsp 16 +
STACK CFI 1587d .cfa: $rbp 16 +
STACK CFI 158b0 .cfa: $rsp 8 +
STACK CFI INIT 158b2 22 .cfa: $rsp 8 + .ra: .cfa -8 + ^
STACK CFI 158b3 $rbp: .cfa -16 + ^ .cfa: $rsp 16 +
STACK CFI 158b6 .cfa: $rbp 16 +
STACK CFI 158d3 .cfa: $rsp 8 +
STACK CFI INIT 158d4 35 .cfa: $rsp 8 + .ra: .cfa -8 + ^
STACK CFI 158d5 $rbp: .cfa -16 + ^ .cfa: $rsp 16 +
STACK CFI 158d8 .cfa: $rbp 16 +
STACK CFI 15908 .cfa: $rsp 8 +
STACK CFI INIT 1590a 1d .cfa: $rsp 8 + .ra: .cfa -8 + ^
STACK CFI 1590b $rbp: .cfa -16 + ^ .cfa: $rsp 16 +
STACK CFI 1590e .cfa: $rbp 16 +
STACK CFI 15926 .cfa: $rsp 8 +
STACK CFI INIT 15928 4a .cfa: $rsp 8 + .ra: .cfa -8 + ^
STACK CFI 15929 $rbp: .cfa -16 + ^ .cfa: $rsp 16 +
STACK CFI 1592c .cfa: $rbp 16 +
STACK CFI 15971 .cfa: $rsp 8 +
STACK CFI INIT 15972 27 .cfa: $rsp 8 + .ra: .cfa -8 + ^
STACK CFI 15973 $rbp: .cfa -16 + ^ .cfa: $rsp 16 +
STACK CFI 15976 .cfa: $rbp 16 +
STACK CFI 15998 .cfa: $rsp 8 +
STACK CFI INIT 1599a 1b .cfa: $rsp 8 + .ra: .cfa -8 + ^
STACK CFI 1599b $rbp: .cfa -16 + ^ .cfa: $rsp 16 +
STACK CFI 1599e .cfa: $rbp 16 +
STACK CFI 159b4 .cfa: $rsp 8 +
STACK CFI INIT 159b6 7a .cfa: $rsp 8 + .ra: .cfa -8 + ^
STACK CFI 159b7 $rbp: .cfa -16 + ^ .cfa: $rsp 16 +
STACK CFI 159ba .cfa: $rbp 16 +
STACK CFI 15a2f .cfa: $rsp 8 +
STACK CFI INIT 15a30 27 .cfa: $rsp 8 + .ra: .cfa -8 + ^
STACK CFI 15a31 $rbp: .cfa -16 + ^ .cfa: $rsp 16 +
STACK CFI 15a34 .cfa: $rbp 16 +
STACK CFI 15a56 .cfa: $rsp 8 +
STACK CFI INIT 15a58 1b .cfa: $rsp 8 + .ra: .cfa -8 + ^
STACK CFI 15a59 $rbp: .cfa -16 + ^ .cfa: $rsp 16 +
STACK CFI 15a5c .cfa: $rbp 16 +
STACK CFI 15a72 .cfa: $rsp 8 +
STACK CFI INIT 15a74 7a .cfa: $rsp 8 + .ra: .cfa -8 + ^
STACK CFI 15a75 $rbp: .cfa -16 + ^ .cfa: $rsp 16 +
STACK CFI 15a78 .cfa: $rbp 16 +
STACK CFI 15aed .cfa: $rsp 8 +
STACK CFI INIT 15aee 1b .cfa: $rsp 8 + .ra: .cfa -8 + ^
STACK CFI 15aef $rbp: .cfa -16 + ^ .cfa: $rsp 16 +
STACK CFI 15af2 .cfa: $rbp 16 +
STACK CFI 15b08 .cfa: $rsp 8 +
STACK CFI INIT 15b0a 1b .cfa: $rsp 8 + .ra: .cfa -8 + ^
STACK CFI 15b0b $rbp: .cfa -16 + ^ .cfa: $rsp 16 +
STACK CFI 15b0e .cfa: $rbp 16 +
STACK CFI 15b24 .cfa: $rsp 8 +
STACK CFI INIT 15b26 50 .cfa: $rsp 8 + .ra: .cfa -8 + ^
STACK CFI 15b27 $rbp: .cfa -16 + ^ .cfa: $rsp 16 +
STACK CFI 15b2a .cfa: $rbp 16 +
STACK CFI 15b75 .cfa: $rsp 8 +
STACK CFI INIT 15b76 e .cfa: $rsp 8 + .ra: .cfa -8 + ^
STACK CFI 15b77 $rbp: .cfa -16 + ^ .cfa: $rsp 16 +
STACK CFI 15b7a .cfa: $rbp 16 +
STACK CFI 15b83 .cfa: $rsp 8 +
STACK CFI INIT 15b84 82 .cfa: $rsp 8 + .ra: .cfa -8 + ^
STACK CFI 15b85 $rbp: .cfa -16 + ^ .cfa: $rsp 16 +
STACK CFI 15b88 .cfa: $rbp 16 +
STACK CFI 15c05 .cfa: $rsp 8 +
STACK CFI INIT 15c06 1d .cfa: $rsp 8 + .ra: .cfa -8 + ^
STACK CFI 15c07 $rbp: .cfa -16 + ^ .cfa: $rsp 16 +
STACK CFI 15c0a .cfa: $rbp 16 +
STACK CFI 15c22 .cfa: $rsp 8 +
STACK CFI INIT 15c23 25 .cfa: $rsp 8 + .ra: .cfa -8 + ^
STACK CFI 15c24 $rbp: .cfa -16 + ^ .cfa: $rsp 16 +
STACK CFI 15c27 .cfa: $rbp 16 +
STACK CFI 15c47 .cfa: $rsp 8 +
STACK CFI INIT 15c48 47 .cfa: $rsp 8 + .ra: .cfa -8 + ^
STACK CFI 15c49 $rbp: .cfa -16 + ^ .cfa: $rsp 16 +
STACK CFI 15c4c .cfa: $rbp 16 +
STACK CFI 15c51 $rbx: .cfa -24 + ^
STACK CFI 15c8e .cfa: $rsp 8 +
STACK CFI INIT 15c90 e .cfa: $rsp 8 + .ra: .cfa -8 + ^
STACK CFI 15c91 $rbp: .cfa -16 + ^ .cfa: $rsp 16 +
STACK CFI 15c94 .cfa: $rbp 16 +
STACK CFI 15c9d .cfa: $rsp 8 +
STACK CFI INIT 15c9e 30 .cfa: $rsp 8 + .ra: .cfa -8 + ^
STACK CFI 15c9f $rbp: .cfa -16 + ^ .cfa: $rsp 16 +
STACK CFI 15ca2 .cfa: $rbp 16 +
STACK CFI 15ccd .cfa: $rsp 8 +
STACK CFI INIT 15cce 43 .cfa: $rsp 8 + .ra: .cfa -8 + ^
STACK CFI 15ccf $rbp: .cfa -16 + ^ .cfa: $rsp 16 +
STACK CFI 15cd2 .cfa: $rbp 16 +
STACK CFI 15cd7 $rbx: .cfa -24 + ^
STACK CFI 15d10 .cfa: $rsp 8 +
STACK CFI INIT 15d12 3f .cfa: $rsp 8 + .ra: .cfa -8 + ^
STACK CFI 15d13 $rbp: .cfa -16 + ^ .cfa: $rsp 16 +
STACK CFI 15d16 .cfa: $rbp 16 +
STACK CFI 15d50 .cfa: $rsp 8 +
STACK CFI INIT 15d52 b8 .cfa: $rsp 8 + .ra: .cfa -8 + ^
STACK CFI 15d53 $rbp: .cfa -16 + ^ .cfa: $rsp 16 +
STACK CFI 15d56 .cfa: $rbp 16 +
STACK CFI 15d5b $rbx: .cfa -24 + ^
STACK CFI 15e09 .cfa: $rsp 8 +
STACK CFI INIT 15e0a 30 .cfa: $rsp 8 + .ra: .cfa -8 + ^
STACK CFI 15e0b $rbp: .cfa -16 + ^ .cfa: $rsp 16 +
STACK CFI 15e0e .cfa: $rbp 16 +
STACK CFI 15e39 .cfa: $rsp 8 +
STACK CFI INIT 15e3a 31 .cfa: $rsp 8 + .ra: .cfa -8 + ^
STACK CFI 15e3b $rbp: .cfa -16 + ^ .cfa: $rsp 16 +
STACK CFI 15e3e .cfa: $rbp 16 +
STACK CFI 15e6a .cfa: $rsp 8 +
STACK CFI INIT 15e6b 3c .cfa: $rsp 8 + .ra: .cfa -8 + ^
STACK CFI 15e6c $rbp: .cfa -16 + ^ .cfa: $rsp 16 +
STACK CFI 15e6f .cfa: $rbp 16 +
STACK CFI 15e74 $rbx: .cfa -24 + ^
STACK CFI 15ea6 .cfa: $rsp 8 +
STACK CFI INIT 15ea8 e .cfa: $rsp 8 + .ra: .cfa -8 + ^
STACK CFI 15ea9 $rbp: .cfa -16 + ^ .cfa: $rsp 16 +
STACK CFI 15eac .cfa: $rbp 16 +
STACK CFI 15eb5 .cfa: $rsp 8 +
STACK CFI INIT 15eb6 2a .cfa: $rsp 8 + .ra: .cfa -8 + ^
STACK CFI 15eb7 $rbp: .cfa -16 + ^ .cfa: $rsp 16 +
STACK CFI 15eba .cfa: $rbp 16 +
STACK CFI 15edf .cfa: $rsp 8 +
STACK CFI INIT 15ee0 25 .cfa: $rsp 8 + .ra: .cfa -8 + ^
STACK CFI 15ee1 $rbp: .cfa -16 + ^ .cfa: $rsp 16 +
STACK CFI 15ee4 .cfa: $rbp 16 +
STACK CFI 15f04 .cfa: $rsp 8 +
STACK CFI INIT 15f05 e .cfa: $rsp 8 + .ra: .cfa -8 + ^
STACK CFI 15f06 $rbp: .cfa -16 + ^ .cfa: $rsp 16 +
STACK CFI 15f09 .cfa: $rbp 16 +
STACK CFI 15f12 .cfa: $rsp 8 +
STACK CFI INIT 15f14 5d .cfa: $rsp 8 + .ra: .cfa -8 + ^
STACK CFI 15f15 $rbp: .cfa -16 + ^ .cfa: $rsp 16 +
STACK CFI 15f18 .cfa: $rbp 16 +
STACK CFI 15f70 .cfa: $rsp 8 +
STACK CFI INIT 15f72 1a .cfa: $rsp 8 + .ra: .cfa -8 + ^
STACK CFI 15f73 $rbp: .cfa -16 + ^ .cfa: $rsp 16 +
STACK CFI 15f76 .cfa: $rbp 16 +
STACK CFI 15f8b .cfa: $rsp 8 +
STACK CFI INIT 15f8c 25 .cfa: $rsp 8 + .ra: .cfa -8 + ^
STACK CFI 15f8d $rbp: .cfa -16 + ^ .cfa: $rsp 16 +
STACK CFI 15f90 .cfa: $rbp 16 +
STACK CFI 15fb0 .cfa: $rsp 8 +
STACK CFI INIT 15fb1 47 .cfa: $rsp 8 + .ra: .cfa -8 + ^
STACK CFI 15fb2 $rbp: .cfa -16 + ^ .cfa: $rsp 16 +
STACK CFI 15fb5 .cfa: $rbp 16 +
STACK CFI 15fba $rbx: .cfa -24 + ^
STACK CFI 15ff7 .cfa: $rsp 8 +
STACK CFI INIT 15ff8 e .cfa: $rsp 8 + .ra: .cfa -8 + ^
STACK CFI 15ff9 $rbp: .cfa -16 + ^ .cfa: $rsp 16 +
STACK CFI 15ffc .cfa: $rbp 16 +
STACK CFI 16005 .cfa: $rsp 8 +
STACK CFI INIT 16006 5d .cfa: $rsp 8 + .ra: .cfa -8 + ^
STACK CFI 16007 $rbp: .cfa -16 + ^ .cfa: $rsp 16 +
STACK CFI 1600a .cfa: $rbp 16 +
STACK CFI 16062 .cfa: $rsp 8 +
STACK CFI INIT 16064 77 .cfa: $rsp 8 + .ra: .cfa -8 + ^
STACK CFI 16065 $rbp: .cfa -16 + ^ .cfa: $rsp 16 +
STACK CFI 16068 .cfa: $rbp 16 +
STACK CFI 1606d $rbx: .cfa -24 + ^
STACK CFI 160da .cfa: $rsp 8 +
STACK CFI INIT 160dc 28 .cfa: $rsp 8 + .ra: .cfa -8 + ^
STACK CFI 160dd $rbp: .cfa -16 + ^ .cfa: $rsp 16 +
STACK CFI 160e0 .cfa: $rbp 16 +
STACK CFI 16103 .cfa: $rsp 8 +
STACK CFI INIT 16104 36 .cfa: $rsp 8 + .ra: .cfa -8 + ^
STACK CFI 16105 $rbp: .cfa -16 + ^ .cfa: $rsp 16 +
STACK CFI 16108 .cfa: $rbp 16 +
STACK CFI 16139 .cfa: $rsp 8 +
STACK CFI INIT 1613a 37 .cfa: $rsp 8 + .ra: .cfa -8 + ^
STACK CFI 1613b $rbp: .cfa -16 + ^ .cfa: $rsp 16 +
STACK CFI 1613e .cfa: $rbp 16 +
STACK CFI 16170 .cfa: $rsp 8 +
STACK CFI INIT 16172 b .cfa: $rsp 8 + .ra: .cfa -8 + ^
STACK CFI 16173 $rbp: .cfa -16 + ^ .cfa: $rsp 16 +
STACK CFI 16176 .cfa: $rbp 16 +
STACK CFI 1617c .cfa: $rsp 8 +
STACK CFI INIT 1617e 1e .cfa: $rsp 8 + .ra: .cfa -8 + ^
