MODULE Linux x86_64 4626DC518D19AFC81994B8B543C57ED50 AutomationStudio
INFO CODE_ID 51DC2646198DC8AF1994B8B543C57ED57BBC4A80
FUNC 12770 63 0 Breakpad::DumpCallback(google_breakpad::MinidumpDescriptor const&, void*, bool)
FUNC 127d4 113 0 Breakpad::CrashHandlerPrivate::InitCrashHandler(QString const&)
FUNC 128e8 94 0 Breakpad::CrashHandler::instance()
FUNC 1297c 31 0 Breakpad::CrashHandler::CrashHandler()
FUNC 129ae 36 0 Breakpad::CrashHandler::~CrashHandler()
FUNC 129e4 1d 0 Breakpad::CrashHandler::setReportCrashesToSystem(bool)
FUNC 12a02 95 0 Breakpad::CrashHandler::writeMinidump()
FUNC 12a98 29 0 Breakpad::CrashHandler::Init(QString const&)
FUNC 12ac2 52 0 QMessageLogContext::QMessageLogContext(char const*, int, char const*, char const*)
FUNC 12b14 38 0 QMessageLogger::QMessageLogger(char const*, int, char const*)
FUNC 12b4c 14 0 std::operator&(std::memory_order, std::__memory_order_modifier)
FUNC 12b60 43 0 QtPrivate::RefCount::deref()
FUNC 12ba4 1c 0 QArrayData::data()
FUNC 12bc0 14 0 QByteArray::length() const
FUNC 12bd4 34 0 QByteArray::~QByteArray()
FUNC 12c08 1d 0 QByteArray::constData() const
FUNC 12c26 84 0 QByteArray::toStdString[abi:cxx11]() const
FUNC 12caa 29 0 QString::toUtf8() const &
FUNC 12cd4 6b 0 QString::toStdString[abi:cxx11]() const
FUNC 12d40 3a 0 google_breakpad::MicrodumpExtraInfo::MicrodumpExtraInfo()
FUNC 12d7a c5 0 google_breakpad::MinidumpDescriptor::MinidumpDescriptor(std::__cxx11::basic_string<char, std::char_traits<char>, std::allocator<char> > const&)
FUNC 12e40 19 0 Breakpad::CrashHandlerPrivate::CrashHandlerPrivate()
FUNC 12e5a 39 0 Breakpad::CrashHandlerPrivate::~CrashHandlerPrivate()
FUNC 12e94 2f 0 google_breakpad::MinidumpDescriptor::~MinidumpDescriptor()
FUNC 12ec4 1a 0 QBasicAtomicInteger<int>::load() const
FUNC 12ede 1a 0 QBasicAtomicInteger<int>::deref()
FUNC 12ef8 25 0 QTypedArrayData<char>::deallocate(QArrayData*)
FUNC 12f1e 1a 0 QTypedArrayData<char>::data()
FUNC 12f38 36 0 int QAtomicOps<int>::load<int>(std::atomic<int> const&)
FUNC 12f6e 1f 0 bool QAtomicOps<int>::deref<int>(std::atomic<int>&)
FUNC 12f8e 1f 0 std::__atomic_base<int>::operator--()
FUNC 12fae 49 0 sys_close
FUNC 12ff7 59 0 sys_read
FUNC 13050 5a 0 sys_sendmsg
FUNC 130aa 4b 0 sys_pipe
FUNC 130f6 36 0 CrashGenerationClientImpl::CrashGenerationClientImpl
FUNC 1312c 29 0 CrashGenerationClientImpl::~CrashGenerationClientImpl
FUNC 13156 2b 0 CrashGenerationClientImpl::~CrashGenerationClientImpl
FUNC 13182 1b2 0 CrashGenerationClientImpl::RequestDump
FUNC 13334 3d 0 google_breakpad::CrashGenerationClient::TryCreate(int)
FUNC 13372 1d 0 google_breakpad::CrashGenerationClient::CrashGenerationClient()
FUNC 13390 1d 0 google_breakpad::CrashGenerationClient::~CrashGenerationClient()
FUNC 133ae 2b 0 google_breakpad::CrashGenerationClient::~CrashGenerationClient()
FUNC 133da cc 0 sys_clone
FUNC 134a6 49 0 sys_close
FUNC 134ef 3d 0 sys_getpid
FUNC 1352c 3d 0 sys__gettid
FUNC 13569 53 0 sys_munmap
FUNC 135bc 72 0 sys_prctl
FUNC 1362e 59 0 sys_read
FUNC 13687 56 0 sys_sigaltstack
FUNC 136dd 58 0 sys_tgkill
FUNC 13735 59 0 sys_write
FUNC 1378e 68 0 sys_wait4
FUNC 137f6 8e 0 sys_mmap
FUNC 13884 4b 0 sys_pipe
FUNC 138cf 22 0 sys_gettid
FUNC 138f1 2a 0 sys_waitpid
FUNC 1391b d9 0 InstallAlternateStackLocked
FUNC 139f4 b1 0 RestoreAlternateStackLocked
FUNC 13aa5 1d 0 InstallDefaultHandler
FUNC 13ac2 22a 0 google_breakpad::ExceptionHandler::ExceptionHandler(google_breakpad::MinidumpDescriptor const&, bool (*)(void*), bool (*)(google_breakpad::MinidumpDescriptor const&, void*, bool), void*, bool, int)
FUNC 13cec 125 0 google_breakpad::ExceptionHandler::~ExceptionHandler()
FUNC 13e12 15f 0 google_breakpad::ExceptionHandler::InstallHandlersLocked()
FUNC 13f72 ac 0 google_breakpad::ExceptionHandler::RestoreHandlersLocked()
FUNC 1401e 22b 0 google_breakpad::ExceptionHandler::SignalHandler(int, siginfo_t*, void*)
FUNC 1424a 7c 0 google_breakpad::ExceptionHandler::ThreadEntry(void*)
FUNC 142c6 1ca 0 google_breakpad::ExceptionHandler::HandleSignal(int, siginfo_t*, void*)
FUNC 14490 6c 0 google_breakpad::ExceptionHandler::SimulateSignalDelivery(int)
FUNC 144fc 39b 0 google_breakpad::ExceptionHandler::GenerateDump(google_breakpad::ExceptionHandler::CrashContext*)
FUNC 14898 ac 0 google_breakpad::ExceptionHandler::SendContinueSignalToChild()
FUNC 14944 ac 0 google_breakpad::ExceptionHandler::WaitForContinueSignal()
FUNC 149f0 1bc 0 google_breakpad::ExceptionHandler::DoDump(int, void const*, unsigned long)
FUNC 14bac e3 0 google_breakpad::ExceptionHandler::WriteMinidump(std::__cxx11::basic_string<char, std::char_traits<char>, std::allocator<char> > const&, bool (*)(google_breakpad::MinidumpDescriptor const&, void*, bool), void*)
FUNC 14c90 1aa 0 google_breakpad::ExceptionHandler::WriteMinidump()
FUNC 14e3a eb 0 google_breakpad::ExceptionHandler::AddMappingInfo(std::__cxx11::basic_string<char, std::char_traits<char>, std::allocator<char> > const&, unsigned char const*, unsigned long, unsigned long, unsigned long)
FUNC 14f26 b6 0 google_breakpad::ExceptionHandler::RegisterAppMemory(void*, unsigned long)
FUNC 14fdc b3 0 google_breakpad::ExceptionHandler::UnregisterAppMemory(void*)
FUNC 15090 f8 0 google_breakpad::ExceptionHandler::WriteMinidumpForChild(int, int, std::__cxx11::basic_string<char, std::char_traits<char>, std::allocator<char> > const&, bool (*)(google_breakpad::MinidumpDescriptor const&, void*, bool), void*)
FUNC 15188 16 0 google_breakpad::SetFirstChanceExceptionHandler(bool (*)(int, void*, void*))
FUNC 1519e 12 0 operator new(unsigned long, void*)
FUNC 151b0 16 0 google_breakpad::MinidumpDescriptor::IsFD() const
FUNC 151c6 11 0 google_breakpad::MinidumpDescriptor::fd() const
FUNC 151d8 12 0 google_breakpad::MinidumpDescriptor::path() const
FUNC 151ea 16 0 google_breakpad::MinidumpDescriptor::IsMicrodumpOnConsole() const
FUNC 15200 12 0 google_breakpad::MinidumpDescriptor::size_limit() const
FUNC 15212 12 0 google_breakpad::MinidumpDescriptor::address_within_principal_mapping() const
FUNC 15224 12 0 google_breakpad::MinidumpDescriptor::skip_dump_if_principal_mapping_not_referenced()
FUNC 15236 12 0 google_breakpad::MinidumpDescriptor::sanitize_stacks() const
FUNC 15248 45 0 google_breakpad::MinidumpDescriptor::microdump_extra_info()
FUNC 1528e 4e 0 google_breakpad::PageAllocator::PageAllocator()
FUNC 152dc 1b 0 google_breakpad::PageAllocator::~PageAllocator()
FUNC 152f8 177 0 google_breakpad::PageAllocator::Alloc(unsigned long)
FUNC 15470 9d 0 google_breakpad::PageAllocator::GetNPages(unsigned long)
FUNC 1550e 59 0 google_breakpad::PageAllocator::FreeAll()
FUNC 15568 1c 0 google_breakpad::AppMemory::operator==(void const*) const
FUNC 15584 24 0 google_breakpad::ExceptionHandler::IsOutOfProcess() const
FUNC 155a8 1b 0 std::__cxx11::list<google_breakpad::MappingEntry, std::allocator<google_breakpad::MappingEntry> >::~list()
FUNC 155c4 1b 0 std::__cxx11::list<google_breakpad::AppMemory, std::allocator<google_breakpad::AppMemory> >::~list()
FUNC 155e0 54 0 google_breakpad::scoped_ptr<google_breakpad::CrashGenerationClient>::reset(google_breakpad::CrashGenerationClient*)
FUNC 15634 11 0 google_breakpad::scoped_ptr<google_breakpad::CrashGenerationClient>::get() const
FUNC 15646 1a 0 google_breakpad::scoped_ptr<google_breakpad::CrashGenerationClient>::scoped_ptr(google_breakpad::CrashGenerationClient*)
FUNC 15660 38 0 google_breakpad::scoped_ptr<google_breakpad::CrashGenerationClient>::~scoped_ptr()
FUNC 15698 1b 0 std::__cxx11::list<google_breakpad::MappingEntry, std::allocator<google_breakpad::MappingEntry> >::list()
FUNC 156b4 1b 0 std::__cxx11::_List_base<google_breakpad::MappingEntry, std::allocator<google_breakpad::MappingEntry> >::_List_impl::~_List_impl()
FUNC 156d0 27 0 std::__cxx11::_List_base<google_breakpad::MappingEntry, std::allocator<google_breakpad::MappingEntry> >::~_List_base()
FUNC 156f8 1b 0 std::__cxx11::list<google_breakpad::AppMemory, std::allocator<google_breakpad::AppMemory> >::list()
FUNC 15714 1b 0 std::__cxx11::_List_base<google_breakpad::AppMemory, std::allocator<google_breakpad::AppMemory> >::_List_impl::~_List_impl()
FUNC 15730 27 0 std::__cxx11::_List_base<google_breakpad::AppMemory, std::allocator<google_breakpad::AppMemory> >::~_List_base()
FUNC 15758 1b 0 std::vector<google_breakpad::ExceptionHandler*, std::allocator<google_breakpad::ExceptionHandler*> >::vector()
FUNC 15773 e 0 std::remove_reference<google_breakpad::ExceptionHandler*&>::type&& std::move<google_breakpad::ExceptionHandler*&>(google_breakpad::ExceptionHandler*&)
FUNC 15782 31 0 std::vector<google_breakpad::ExceptionHandler*, std::allocator<google_breakpad::ExceptionHandler*> >::push_back(google_breakpad::ExceptionHandler*&&)
FUNC 157b4 25 0 std::vector<google_breakpad::ExceptionHandler*, std::allocator<google_breakpad::ExceptionHandler*> >::begin()
FUNC 157da 29 0 std::vector<google_breakpad::ExceptionHandler*, std::allocator<google_breakpad::ExceptionHandler*> >::end()
FUNC 15803 38 0 __gnu_cxx::__normal_iterator<google_breakpad::ExceptionHandler**, std::vector<google_breakpad::ExceptionHandler*, std::allocator<google_breakpad::ExceptionHandler*> > > std::find<__gnu_cxx::__normal_iterator<google_breakpad::ExceptionHandler**, std::vector<google_breakpad::ExceptionHandler*, std::allocator<google_breakpad::ExceptionHandler*> > >, google_breakpad::ExceptionHandler*>(__gnu_cxx::__normal_iterator<google_breakpad::ExceptionHandler**, std::vector<google_breakpad::ExceptionHandler*, std::allocator<google_breakpad::ExceptionHandler*> > >, __gnu_cxx::__normal_iterator<google_breakpad::ExceptionHandler**, std::vector<google_breakpad::ExceptionHandler*, std::allocator<google_breakpad::ExceptionHandler*> > >, google_breakpad::ExceptionHandler* const&)
FUNC 1583c 29 0 __gnu_cxx::__normal_iterator<google_breakpad::ExceptionHandler* const*, std::vector<google_breakpad::ExceptionHandler*, std::allocator<google_breakpad::ExceptionHandler*> > >::__normal_iterator<google_breakpad::ExceptionHandler**>(__gnu_cxx::__normal_iterator<google_breakpad::ExceptionHandler**, __gnu_cxx::__enable_if<std::__are_same<google_breakpad::ExceptionHandler**, google_breakpad::ExceptionHandler**>::__value, std::vector<google_breakpad::ExceptionHandler*, std::allocator<google_breakpad::ExceptionHandler*> > >::__type> const&)
FUNC 15866 6f 0 std::vector<google_breakpad::ExceptionHandler*, std::allocator<google_breakpad::ExceptionHandler*> >::erase(__gnu_cxx::__normal_iterator<google_breakpad::ExceptionHandler* const*, std::vector<google_breakpad::ExceptionHandler*, std::allocator<google_breakpad::ExceptionHandler*> > >)
FUNC 158d6 41 0 std::vector<google_breakpad::ExceptionHandler*, std::allocator<google_breakpad::ExceptionHandler*> >::empty() const
FUNC 15918 44 0 std::vector<google_breakpad::ExceptionHandler*, std::allocator<google_breakpad::ExceptionHandler*> >::~vector()
FUNC 1595c 26 0 std::vector<google_breakpad::ExceptionHandler*, std::allocator<google_breakpad::ExceptionHandler*> >::size() const
FUNC 15982 20 0 std::vector<google_breakpad::ExceptionHandler*, std::allocator<google_breakpad::ExceptionHandler*> >::operator[](unsigned long)
FUNC 159a2 40 0 google_breakpad::scoped_ptr<google_breakpad::CrashGenerationClient>::operator->() const
FUNC 159e2 b 0 void google_breakpad::ignore_result<int>(int const&)
FUNC 159ee 35 0 std::__cxx11::list<google_breakpad::MappingEntry, std::allocator<google_breakpad::MappingEntry> >::push_back(google_breakpad::MappingEntry const&)
FUNC 15a24 28 0 std::__cxx11::list<google_breakpad::AppMemory, std::allocator<google_breakpad::AppMemory> >::begin()
FUNC 15a4c 25 0 std::__cxx11::list<google_breakpad::AppMemory, std::allocator<google_breakpad::AppMemory> >::end()
FUNC 15a71 38 0 std::_List_iterator<google_breakpad::AppMemory> std::find<std::_List_iterator<google_breakpad::AppMemory>, void*>(std::_List_iterator<google_breakpad::AppMemory>, std::_List_iterator<google_breakpad::AppMemory>, void* const&)
FUNC 15aaa 22 0 std::_List_iterator<google_breakpad::AppMemory>::operator!=(std::_List_iterator<google_breakpad::AppMemory> const&) const
FUNC 15acc 35 0 std::__cxx11::list<google_breakpad::AppMemory, std::allocator<google_breakpad::AppMemory> >::push_back(google_breakpad::AppMemory const&)
FUNC 15b02 1d 0 std::_List_const_iterator<google_breakpad::AppMemory>::_List_const_iterator(std::_List_iterator<google_breakpad::AppMemory> const&)
FUNC 15b20 4a 0 std::__cxx11::list<google_breakpad::AppMemory, std::allocator<google_breakpad::AppMemory> >::erase(std::_List_const_iterator<google_breakpad::AppMemory>)
FUNC 15b6a 27 0 std::__cxx11::_List_base<google_breakpad::MappingEntry, std::allocator<google_breakpad::MappingEntry> >::_List_base()
FUNC 15b92 1b 0 std::allocator<std::_List_node<google_breakpad::MappingEntry> >::~allocator()
FUNC 15bae 7a 0 std::__cxx11::_List_base<google_breakpad::MappingEntry, std::allocator<google_breakpad::MappingEntry> >::_M_clear()
FUNC 15c28 27 0 std::__cxx11::_List_base<google_breakpad::AppMemory, std::allocator<google_breakpad::AppMemory> >::_List_base()
FUNC 15c50 1b 0 std::allocator<std::_List_node<google_breakpad::AppMemory> >::~allocator()
FUNC 15c6c 7a 0 std::__cxx11::_List_base<google_breakpad::AppMemory, std::allocator<google_breakpad::AppMemory> >::_M_clear()
FUNC 15ce6 1b 0 std::_Vector_base<google_breakpad::ExceptionHandler*, std::allocator<google_breakpad::ExceptionHandler*> >::_Vector_impl::~_Vector_impl()
FUNC 15d02 1b 0 std::_Vector_base<google_breakpad::ExceptionHandler*, std::allocator<google_breakpad::ExceptionHandler*> >::_Vector_base()
FUNC 15d1e 50 0 std::_Vector_base<google_breakpad::ExceptionHandler*, std::allocator<google_breakpad::ExceptionHandler*> >::~_Vector_base()
FUNC 15d6e e 0 google_breakpad::ExceptionHandler*&& std::forward<google_breakpad::ExceptionHandler*>(std::remove_reference<google_breakpad::ExceptionHandler*>::type&)
FUNC 15d7c 82 0 void std::vector<google_breakpad::ExceptionHandler*, std::allocator<google_breakpad::ExceptionHandler*> >::emplace_back<google_breakpad::ExceptionHandler*>(google_breakpad::ExceptionHandler*&&)
FUNC 15dfe 1d 0 __gnu_cxx::__normal_iterator<google_breakpad::ExceptionHandler**, std::vector<google_breakpad::ExceptionHandler*, std::allocator<google_breakpad::ExceptionHandler*> > >::__normal_iterator(google_breakpad::ExceptionHandler** const&)
FUNC 15e1b 25 0 __gnu_cxx::__ops::_Iter_equals_val<google_breakpad::ExceptionHandler* const> __gnu_cxx::__ops::__iter_equals_val<google_breakpad::ExceptionHandler* const>(google_breakpad::ExceptionHandler* const&)
FUNC 15e40 47 0 __gnu_cxx::__normal_iterator<google_breakpad::ExceptionHandler**, std::vector<google_breakpad::ExceptionHandler*, std::allocator<google_breakpad::ExceptionHandler*> > > std::__find_if<__gnu_cxx::__normal_iterator<google_breakpad::ExceptionHandler**, std::vector<google_breakpad::ExceptionHandler*, std::allocator<google_breakpad::ExceptionHandler*> > >, __gnu_cxx::__ops::_Iter_equals_val<google_breakpad::ExceptionHandler* const> >(__gnu_cxx::__normal_iterator<google_breakpad::ExceptionHandler**, std::vector<google_breakpad::ExceptionHandler*, std::allocator<google_breakpad::ExceptionHandler*> > >, __gnu_cxx::__normal_iterator<google_breakpad::ExceptionHandler**, std::vector<google_breakpad::ExceptionHandler*, std::allocator<google_breakpad::ExceptionHandler*> > >, __gnu_cxx::__ops::_Iter_equals_val<google_breakpad::ExceptionHandler* const>)
FUNC 15e88 e 0 __gnu_cxx::__normal_iterator<google_breakpad::ExceptionHandler**, std::vector<google_breakpad::ExceptionHandler*, std::allocator<google_breakpad::ExceptionHandler*> > >::base() const
FUNC 15e96 30 0 std::vector<google_breakpad::ExceptionHandler*, std::allocator<google_breakpad::ExceptionHandler*> >::cbegin() const
FUNC 15ec6 43 0 __gnu_cxx::__normal_iterator<google_breakpad::ExceptionHandler* const*, std::vector<google_breakpad::ExceptionHandler*, std::allocator<google_breakpad::ExceptionHandler*> > >::difference_type __gnu_cxx::operator-<google_breakpad::ExceptionHandler* const*, std::vector<google_breakpad::ExceptionHandler*, std::allocator<google_breakpad::ExceptionHandler*> > >(__gnu_cxx::__normal_iterator<google_breakpad::ExceptionHandler* const*, std::vector<google_breakpad::ExceptionHandler*, std::allocator<google_breakpad::ExceptionHandler*> > > const&, __gnu_cxx::__normal_iterator<google_breakpad::ExceptionHandler* const*, std::vector<google_breakpad::ExceptionHandler*, std::allocator<google_breakpad::ExceptionHandler*> > > const&)
FUNC 15f0a 3f 0 __gnu_cxx::__normal_iterator<google_breakpad::ExceptionHandler**, std::vector<google_breakpad::ExceptionHandler*, std::allocator<google_breakpad::ExceptionHandler*> > >::operator+(long) const
FUNC 15f4a b8 0 std::vector<google_breakpad::ExceptionHandler*, std::allocator<google_breakpad::ExceptionHandler*> >::_M_erase(__gnu_cxx::__normal_iterator<google_breakpad::ExceptionHandler**, std::vector<google_breakpad::ExceptionHandler*, std::allocator<google_breakpad::ExceptionHandler*> > >)
FUNC 16002 30 0 std::vector<google_breakpad::ExceptionHandler*, std::allocator<google_breakpad::ExceptionHandler*> >::begin() const
FUNC 16032 31 0 std::vector<google_breakpad::ExceptionHandler*, std::allocator<google_breakpad::ExceptionHandler*> >::end() const
FUNC 16063 3c 0 bool __gnu_cxx::operator==<google_breakpad::ExceptionHandler* const*, std::vector<google_breakpad::ExceptionHandler*, std::allocator<google_breakpad::ExceptionHandler*> > >(__gnu_cxx::__normal_iterator<google_breakpad::ExceptionHandler* const*, std::vector<google_breakpad::ExceptionHandler*, std::allocator<google_breakpad::ExceptionHandler*> > > const&, __gnu_cxx::__normal_iterator<google_breakpad::ExceptionHandler* const*, std::vector<google_breakpad::ExceptionHandler*, std::allocator<google_breakpad::ExceptionHandler*> > > const&)
FUNC 160a0 e 0 std::_Vector_base<google_breakpad::ExceptionHandler*, std::allocator<google_breakpad::ExceptionHandler*> >::_M_get_Tp_allocator()
FUNC 160ae 2a 0 void std::_Destroy<google_breakpad::ExceptionHandler**, google_breakpad::ExceptionHandler*>(google_breakpad::ExceptionHandler**, google_breakpad::ExceptionHandler**, std::allocator<google_breakpad::ExceptionHandler*>&)
FUNC 160d8 25 0 std::__cxx11::list<google_breakpad::MappingEntry, std::allocator<google_breakpad::MappingEntry> >::end()
FUNC 160fd e 0 google_breakpad::MappingEntry const& std::forward<google_breakpad::MappingEntry const&>(std::remove_reference<google_breakpad::MappingEntry const&>::type&)
FUNC 1610c 5d 0 void std::__cxx11::list<google_breakpad::MappingEntry, std::allocator<google_breakpad::MappingEntry> >::_M_insert<google_breakpad::MappingEntry const&>(std::_List_iterator<google_breakpad::MappingEntry>, google_breakpad::MappingEntry const&)
FUNC 1616a 1a 0 std::_List_iterator<google_breakpad::AppMemory>::_List_iterator(std::__detail::_List_node_base*)
FUNC 16184 25 0 __gnu_cxx::__ops::_Iter_equals_val<void* const> __gnu_cxx::__ops::__iter_equals_val<void* const>(void* const&)
FUNC 161a9 47 0 std::_List_iterator<google_breakpad::AppMemory> std::__find_if<std::_List_iterator<google_breakpad::AppMemory>, __gnu_cxx::__ops::_Iter_equals_val<void* const> >(std::_List_iterator<google_breakpad::AppMemory>, std::_List_iterator<google_breakpad::AppMemory>, __gnu_cxx::__ops::_Iter_equals_val<void* const>)
FUNC 161f0 e 0 google_breakpad::AppMemory const& std::forward<google_breakpad::AppMemory const&>(std::remove_reference<google_breakpad::AppMemory const&>::type&)
FUNC 161fe 5d 0 void std::__cxx11::list<google_breakpad::AppMemory, std::allocator<google_breakpad::AppMemory> >::_M_insert<google_breakpad::AppMemory const&>(std::_List_iterator<google_breakpad::AppMemory>, google_breakpad::AppMemory const&)
FUNC 1625c 77 0 std::__cxx11::list<google_breakpad::AppMemory, std::allocator<google_breakpad::AppMemory> >::_M_erase(std::_List_iterator<google_breakpad::AppMemory>)
FUNC 162d4 28 0 std::_List_const_iterator<google_breakpad::AppMemory>::_M_const_cast() const
FUNC 162fc 36 0 std::__cxx11::_List_base<google_breakpad::MappingEntry, std::allocator<google_breakpad::MappingEntry> >::_List_impl::_List_impl()
FUNC 16332 37 0 std::__cxx11::_List_base<google_breakpad::MappingEntry, std::allocator<google_breakpad::MappingEntry> >::_M_init()
FUNC 1636a b 0 __gnu_cxx::new_allocator<std::_List_node<google_breakpad::MappingEntry> >::~new_allocator()
FUNC 16376 1e 0 std::_List_node<google_breakpad::MappingEntry>::_M_valptr()
FUNC 16394 e 0 std::__cxx11::_List_base<google_breakpad::MappingEntry, std::allocator<google_breakpad::MappingEntry> >::_M_get_Node_allocator()
FUNC 163a2 26 0 void std::allocator_traits<std::allocator<std::_List_node<google_breakpad::MappingEntry> > >::destroy<google_breakpad::MappingEntry>(std::allocator<std::_List_node<google_breakpad::MappingEntry> >&, google_breakpad::MappingEntry*)
FUNC 163c8 2b 0 std::__cxx11::_List_base<google_breakpad::MappingEntry, std::allocator<google_breakpad::MappingEntry> >::_M_put_node(std::_List_node<google_breakpad::MappingEntry>*)
FUNC 163f4 36 0 std::__cxx11::_List_base<google_breakpad::AppMemory, std::allocator<google_breakpad::AppMemory> >::_List_impl::_List_impl()
FUNC 1642a 37 0 std::__cxx11::_List_base<google_breakpad::AppMemory, std::allocator<google_breakpad::AppMemory> >::_M_init()
FUNC 16462 b 0 __gnu_cxx::new_allocator<std::_List_node<google_breakpad::AppMemory> >::~new_allocator()
FUNC 1646e 1e 0 std::_List_node<google_breakpad::AppMemory>::_M_valptr()
FUNC 1648c e 0 std::__cxx11::_List_base<google_breakpad::AppMemory, std::allocator<google_breakpad::AppMemory> >::_M_get_Node_allocator()
FUNC 1649a 26 0 void std::allocator_traits<std::allocator<std::_List_node<google_breakpad::AppMemory> > >::destroy<google_breakpad::AppMemory>(std::allocator<std::_List_node<google_breakpad::AppMemory> >&, google_breakpad::AppMemory*)
FUNC 164c0 2b 0 std::__cxx11::_List_base<google_breakpad::AppMemory, std::allocator<google_breakpad::AppMemory> >::_M_put_node(std::_List_node<google_breakpad::AppMemory>*)
FUNC 164ec 3e 0 std::_Vector_base<google_breakpad::ExceptionHandler*, std::allocator<google_breakpad::ExceptionHandler*> >::_Vector_impl::_Vector_impl()
FUNC 1652a 1b 0 std::allocator<google_breakpad::ExceptionHandler*>::~allocator()
FUNC 16546 35 0 std::_Vector_base<google_breakpad::ExceptionHandler*, std::allocator<google_breakpad::ExceptionHandler*> >::_M_deallocate(google_breakpad::ExceptionHandler**, unsigned long)
FUNC 1657b 39 0 void std::allocator_traits<std::allocator<google_breakpad::ExceptionHandler*> >::construct<google_breakpad::ExceptionHandler*, google_breakpad::ExceptionHandler*>(std::allocator<google_breakpad::ExceptionHandler*>&, google_breakpad::ExceptionHandler**, google_breakpad::ExceptionHandler*&&)
FUNC 165b4 1ec 0 void std::vector<google_breakpad::ExceptionHandler*, std::allocator<google_breakpad::ExceptionHandler*> >::_M_emplace_back_aux<google_breakpad::ExceptionHandler*>(google_breakpad::ExceptionHandler*&&)
FUNC 167a0 1a 0 __gnu_cxx::__ops::_Iter_equals_val<google_breakpad::ExceptionHandler* const>::_Iter_equals_val(google_breakpad::ExceptionHandler* const&)
FUNC 167ba a 0 std::iterator_traits<__gnu_cxx::__normal_iterator<google_breakpad::ExceptionHandler**, std::vector<google_breakpad::ExceptionHandler*, std::allocator<google_breakpad::ExceptionHandler*> > > >::iterator_category std::__iterator_category<__gnu_cxx::__normal_iterator<google_breakpad::ExceptionHandler**, std::vector<google_breakpad::ExceptionHandler*, std::allocator<google_breakpad::ExceptionHandler*> > > >(__gnu_cxx::__normal_iterator<google_breakpad::ExceptionHandler**, std::vector<google_breakpad::ExceptionHandler*, std::allocator<google_breakpad::ExceptionHandler*> > > const&)
FUNC 167c4 19c 0 __gnu_cxx::__normal_iterator<google_breakpad::ExceptionHandler**, std::vector<google_breakpad::ExceptionHandler*, std::allocator<google_breakpad::ExceptionHandler*> > > std::__find_if<__gnu_cxx::__normal_iterator<google_breakpad::ExceptionHandler**, std::vector<google_breakpad::ExceptionHandler*, std::allocator<google_breakpad::ExceptionHandler*> > >, __gnu_cxx::__ops::_Iter_equals_val<google_breakpad::ExceptionHandler* const> >(__gnu_cxx::__normal_iterator<google_breakpad::ExceptionHandler**, std::vector<google_breakpad::ExceptionHandler*, std::allocator<google_breakpad::ExceptionHandler*> > >, __gnu_cxx::__normal_iterator<google_breakpad::ExceptionHandler**, std::vector<google_breakpad::ExceptionHandler*, std::allocator<google_breakpad::ExceptionHandler*> > >, __gnu_cxx::__ops::_Iter_equals_val<google_breakpad::ExceptionHandler* const>, std::random_access_iterator_tag)
FUNC 16960 1d 0 __gnu_cxx::__normal_iterator<google_breakpad::ExceptionHandler* const*, std::vector<google_breakpad::ExceptionHandler*, std::allocator<google_breakpad::ExceptionHandler*> > >::__normal_iterator(google_breakpad::ExceptionHandler* const* const&)
FUNC 1697e e 0 __gnu_cxx::__normal_iterator<google_breakpad::ExceptionHandler* const*, std::vector<google_breakpad::ExceptionHandler*, std::allocator<google_breakpad::ExceptionHandler*> > >::base() const
FUNC 1698c 3c 0 bool __gnu_cxx::operator!=<google_breakpad::ExceptionHandler**, std::vector<google_breakpad::ExceptionHandler*, std::allocator<google_breakpad::ExceptionHandler*> > >(__gnu_cxx::__normal_iterator<google_breakpad::ExceptionHandler**, std::vector<google_breakpad::ExceptionHandler*, std::allocator<google_breakpad::ExceptionHandler*> > > const&, __gnu_cxx::__normal_iterator<google_breakpad::ExceptionHandler**, std::vector<google_breakpad::ExceptionHandler*, std::allocator<google_breakpad::ExceptionHandler*> > > const&)
FUNC 169c8 4c 0 __gnu_cxx::__normal_iterator<google_breakpad::ExceptionHandler**, std::vector<google_breakpad::ExceptionHandler*, std::allocator<google_breakpad::ExceptionHandler*> > > std::move<__gnu_cxx::__normal_iterator<google_breakpad::ExceptionHandler**, std::vector<google_breakpad::ExceptionHandler*, std::allocator<google_breakpad::ExceptionHandler*> > >, __gnu_cxx::__normal_iterator<google_breakpad::ExceptionHandler**, std::vector<google_breakpad::ExceptionHandler*, std::allocator<google_breakpad::ExceptionHandler*> > > >(__gnu_cxx::__normal_iterator<google_breakpad::ExceptionHandler**, std::vector<google_breakpad::ExceptionHandler*, std::allocator<google_breakpad::ExceptionHandler*> > >, __gnu_cxx::__normal_iterator<google_breakpad::ExceptionHandler**, std::vector<google_breakpad::ExceptionHandler*, std::allocator<google_breakpad::ExceptionHandler*> > >, __gnu_cxx::__normal_iterator<google_breakpad::ExceptionHandler**, std::vector<google_breakpad::ExceptionHandler*, std::allocator<google_breakpad::ExceptionHandler*> > >)
FUNC 16a14 26 0 void std::allocator_traits<std::allocator<google_breakpad::ExceptionHandler*> >::destroy<google_breakpad::ExceptionHandler*>(std::allocator<google_breakpad::ExceptionHandler*>&, google_breakpad::ExceptionHandler**)
FUNC 16a3a 26 0 void std::_Destroy<google_breakpad::ExceptionHandler**>(google_breakpad::ExceptionHandler**, google_breakpad::ExceptionHandler**)
FUNC 16a60 1a 0 std::_List_iterator<google_breakpad::MappingEntry>::_List_iterator(std::__detail::_List_node_base*)
FUNC 16a7a bf 0 std::_List_node<google_breakpad::MappingEntry>* std::__cxx11::list<google_breakpad::MappingEntry, std::allocator<google_breakpad::MappingEntry> >::_M_create_node<google_breakpad::MappingEntry const&>(google_breakpad::MappingEntry const&)
FUNC 16b3a 2c 0 std::__cxx11::_List_base<google_breakpad::MappingEntry, std::allocator<google_breakpad::MappingEntry> >::_M_inc_size(unsigned long)
FUNC 16b66 1a 0 __gnu_cxx::__ops::_Iter_equals_val<void* const>::_Iter_equals_val(void* const&)
FUNC 16b80 a 0 std::iterator_traits<std::_List_iterator<google_breakpad::AppMemory> >::iterator_category std::__iterator_category<std::_List_iterator<google_breakpad::AppMemory> >(std::_List_iterator<google_breakpad::AppMemory> const&)
FUNC 16b8a 69 0 std::_List_iterator<google_breakpad::AppMemory> std::__find_if<std::_List_iterator<google_breakpad::AppMemory>, __gnu_cxx::__ops::_Iter_equals_val<void* const> >(std::_List_iterator<google_breakpad::AppMemory>, std::_List_iterator<google_breakpad::AppMemory>, __gnu_cxx::__ops::_Iter_equals_val<void* const>, std::input_iterator_tag)
FUNC 16bf4 bf 0 std::_List_node<google_breakpad::AppMemory>* std::__cxx11::list<google_breakpad::AppMemory, std::allocator<google_breakpad::AppMemory> >::_M_create_node<google_breakpad::AppMemory const&>(google_breakpad::AppMemory const&)
FUNC 16cb4 2c 0 std::__cxx11::_List_base<google_breakpad::AppMemory, std::allocator<google_breakpad::AppMemory> >::_M_inc_size(unsigned long)
FUNC 16ce0 29 0 std::__cxx11::_List_base<google_breakpad::AppMemory, std::allocator<google_breakpad::AppMemory> >::_M_dec_size(unsigned long)
FUNC 16d0a 1b 0 std::allocator<std::_List_node<google_breakpad::MappingEntry> >::allocator()
FUNC 16d26 29 0 std::__cxx11::_List_base<google_breakpad::MappingEntry, std::allocator<google_breakpad::MappingEntry> >::_M_set_size(unsigned long)
FUNC 16d50 1a 0 __gnu_cxx::__aligned_membuf<google_breakpad::MappingEntry>::_M_ptr()
FUNC 16d6a f 0 void __gnu_cxx::new_allocator<std::_List_node<google_breakpad::MappingEntry> >::destroy<google_breakpad::MappingEntry>(google_breakpad::MappingEntry*)
FUNC 16d79 2e 0 std::allocator_traits<std::allocator<std::_List_node<google_breakpad::MappingEntry> > >::deallocate(std::allocator<std::_List_node<google_breakpad::MappingEntry> >&, std::_List_node<google_breakpad::MappingEntry>*, unsigned long)
FUNC 16da8 1b 0 std::allocator<std::_List_node<google_breakpad::AppMemory> >::allocator()
FUNC 16dc4 29 0 std::__cxx11::_List_base<google_breakpad::AppMemory, std::allocator<google_breakpad::AppMemory> >::_M_set_size(unsigned long)
FUNC 16dee 1a 0 __gnu_cxx::__aligned_membuf<google_breakpad::AppMemory>::_M_ptr()
FUNC 16e08 f 0 void __gnu_cxx::new_allocator<std::_List_node<google_breakpad::AppMemory> >::destroy<google_breakpad::AppMemory>(google_breakpad::AppMemory*)
FUNC 16e17 2e 0 std::allocator_traits<std::allocator<std::_List_node<google_breakpad::AppMemory> > >::deallocate(std::allocator<std::_List_node<google_breakpad::AppMemory> >&, std::_List_node<google_breakpad::AppMemory>*, unsigned long)
FUNC 16e46 1b 0 std::allocator<google_breakpad::ExceptionHandler*>::allocator()
FUNC 16e62 b 0 __gnu_cxx::new_allocator<google_breakpad::ExceptionHandler*>::~new_allocator()
FUNC 16e6d 2e 0 std::allocator_traits<std::allocator<google_breakpad::ExceptionHandler*> >::deallocate(std::allocator<google_breakpad::ExceptionHandler*>&, google_breakpad::ExceptionHandler**, unsigned long)
FUNC 16e9c 45 0 void __gnu_cxx::new_allocator<google_breakpad::ExceptionHandler*>::construct<google_breakpad::ExceptionHandler*, google_breakpad::ExceptionHandler*>(google_breakpad::ExceptionHandler**, google_breakpad::ExceptionHandler*&&)
FUNC 16ee1 2b 0 unsigned long const& std::max<unsigned long>(unsigned long const&, unsigned long const&)
FUNC 16f0c c9 0 std::vector<google_breakpad::ExceptionHandler*, std::allocator<google_breakpad::ExceptionHandler*> >::_M_check_len(unsigned long, char const*) const
FUNC 16fd6 33 0 std::_Vector_base<google_breakpad::ExceptionHandler*, std::allocator<google_breakpad::ExceptionHandler*> >::_M_allocate(unsigned long)
FUNC 17009 54 0 google_breakpad::ExceptionHandler** std::__uninitialized_move_if_noexcept_a<google_breakpad::ExceptionHandler**, google_breakpad::ExceptionHandler**, std::allocator<google_breakpad::ExceptionHandler*> >(google_breakpad::ExceptionHandler**, google_breakpad::ExceptionHandler**, google_breakpad::ExceptionHandler**, std::allocator<google_breakpad::ExceptionHandler*>&)
FUNC 1705d 43 0 __gnu_cxx::__normal_iterator<google_breakpad::ExceptionHandler**, std::vector<google_breakpad::ExceptionHandler*, std::allocator<google_breakpad::ExceptionHandler*> > >::difference_type __gnu_cxx::operator-<google_breakpad::ExceptionHandler**, std::vector<google_breakpad::ExceptionHandler*, std::allocator<google_breakpad::ExceptionHandler*> > >(__gnu_cxx::__normal_iterator<google_breakpad::ExceptionHandler**, std::vector<google_breakpad::ExceptionHandler*, std::allocator<google_breakpad::ExceptionHandler*> > > const&, __gnu_cxx::__normal_iterator<google_breakpad::ExceptionHandler**, std::vector<google_breakpad::ExceptionHandler*, std::allocator<google_breakpad::ExceptionHandler*> > > const&)
FUNC 170a0 31 0 bool __gnu_cxx::__ops::_Iter_equals_val<google_breakpad::ExceptionHandler* const>::operator()<__gnu_cxx::__normal_iterator<google_breakpad::ExceptionHandler**, std::vector<google_breakpad::ExceptionHandler*, std::allocator<google_breakpad::ExceptionHandler*> > > >(__gnu_cxx::__normal_iterator<google_breakpad::ExceptionHandler**, std::vector<google_breakpad::ExceptionHandler*, std::allocator<google_breakpad::ExceptionHandler*> > >)
FUNC 170d2 20 0 __gnu_cxx::__normal_iterator<google_breakpad::ExceptionHandler**, std::vector<google_breakpad::ExceptionHandler*, std::allocator<google_breakpad::ExceptionHandler*> > >::operator++()
FUNC 170f2 e 0 __gnu_cxx::__normal_iterator<google_breakpad::ExceptionHandler**, std::vector<google_breakpad::ExceptionHandler*, std::allocator<google_breakpad::ExceptionHandler*> > > std::__miter_base<__gnu_cxx::__normal_iterator<google_breakpad::ExceptionHandler**, std::vector<google_breakpad::ExceptionHandler*, std::allocator<google_breakpad::ExceptionHandler*> > > >(__gnu_cxx::__normal_iterator<google_breakpad::ExceptionHandler**, std::vector<google_breakpad::ExceptionHandler*, std::allocator<google_breakpad::ExceptionHandler*> > >)
FUNC 17100 73 0 __gnu_cxx::__normal_iterator<google_breakpad::ExceptionHandler**, std::vector<google_breakpad::ExceptionHandler*, std::allocator<google_breakpad::ExceptionHandler*> > > std::__copy_move_a2<true, __gnu_cxx::__normal_iterator<google_breakpad::ExceptionHandler**, std::vector<google_breakpad::ExceptionHandler*, std::allocator<google_breakpad::ExceptionHandler*> > >, __gnu_cxx::__normal_iterator<google_breakpad::ExceptionHandler**, std::vector<google_breakpad::ExceptionHandler*, std::allocator<google_breakpad::ExceptionHandler*> > > >(__gnu_cxx::__normal_iterator<google_breakpad::ExceptionHandler**, std::vector<google_breakpad::ExceptionHandler*, std::allocator<google_breakpad::ExceptionHandler*> > >, __gnu_cxx::__normal_iterator<google_breakpad::ExceptionHandler**, std::vector<google_breakpad::ExceptionHandler*, std::allocator<google_breakpad::ExceptionHandler*> > >, __gnu_cxx::__normal_iterator<google_breakpad::ExceptionHandler**, std::vector<google_breakpad::ExceptionHandler*, std::allocator<google_breakpad::ExceptionHandler*> > >)
FUNC 17174 f 0 void __gnu_cxx::new_allocator<google_breakpad::ExceptionHandler*>::destroy<google_breakpad::ExceptionHandler*>(google_breakpad::ExceptionHandler**)
FUNC 17183 f 0 void std::_Destroy_aux<true>::__destroy<google_breakpad::ExceptionHandler**>(google_breakpad::ExceptionHandler**, google_breakpad::ExceptionHandler**)
FUNC 17192 1f 0 std::__cxx11::_List_base<google_breakpad::MappingEntry, std::allocator<google_breakpad::MappingEntry> >::_M_get_node()
FUNC 171b2 39 0 std::__allocated_ptr<std::allocator<std::_List_node<google_breakpad::MappingEntry> > >::__allocated_ptr(std::allocator<std::_List_node<google_breakpad::MappingEntry> >&, std::_List_node<google_breakpad::MappingEntry>*)
FUNC 171ec 3b 0 std::__allocated_ptr<std::allocator<std::_List_node<google_breakpad::MappingEntry> > >::~__allocated_ptr()
FUNC 17227 39 0 void std::allocator_traits<std::allocator<std::_List_node<google_breakpad::MappingEntry> > >::construct<google_breakpad::MappingEntry, google_breakpad::MappingEntry const&>(std::allocator<std::_List_node<google_breakpad::MappingEntry> >&, google_breakpad::MappingEntry*, google_breakpad::MappingEntry const&)
FUNC 17260 1e 0 std::__allocated_ptr<std::allocator<std::_List_node<google_breakpad::MappingEntry> > >::operator=(decltype(nullptr))
FUNC 1727e 1e 0 std::_List_node<unsigned long>::_M_valptr()
FUNC 1729c 39 0 bool __gnu_cxx::__ops::_Iter_equals_val<void* const>::operator()<std::_List_iterator<google_breakpad::AppMemory> >(std::_List_iterator<google_breakpad::AppMemory>)
FUNC 172d6 1f 0 std::_List_iterator<google_breakpad::AppMemory>::operator++()
FUNC 172f6 1f 0 std::__cxx11::_List_base<google_breakpad::AppMemory, std::allocator<google_breakpad::AppMemory> >::_M_get_node()
FUNC 17316 39 0 std::__allocated_ptr<std::allocator<std::_List_node<google_breakpad::AppMemory> > >::__allocated_ptr(std::allocator<std::_List_node<google_breakpad::AppMemory> >&, std::_List_node<google_breakpad::AppMemory>*)
FUNC 17350 3b 0 std::__allocated_ptr<std::allocator<std::_List_node<google_breakpad::AppMemory> > >::~__allocated_ptr()
FUNC 1738b 39 0 void std::allocator_traits<std::allocator<std::_List_node<google_breakpad::AppMemory> > >::construct<google_breakpad::AppMemory, google_breakpad::AppMemory const&>(std::allocator<std::_List_node<google_breakpad::AppMemory> >&, google_breakpad::AppMemory*, google_breakpad::AppMemory const&)
FUNC 173c4 1e 0 std::__allocated_ptr<std::allocator<std::_List_node<google_breakpad::AppMemory> > >::operator=(decltype(nullptr))
FUNC 173e2 b 0 __gnu_cxx::new_allocator<std::_List_node<google_breakpad::MappingEntry> >::new_allocator()
FUNC 173ee e 0 __gnu_cxx::__aligned_membuf<google_breakpad::MappingEntry>::_M_addr()
FUNC 173fc 23 0 __gnu_cxx::new_allocator<std::_List_node<google_breakpad::MappingEntry> >::deallocate(std::_List_node<google_breakpad::MappingEntry>*, unsigned long)
FUNC 17420 b 0 __gnu_cxx::new_allocator<std::_List_node<google_breakpad::AppMemory> >::new_allocator()
FUNC 1742c e 0 __gnu_cxx::__aligned_membuf<google_breakpad::AppMemory>::_M_addr()
FUNC 1743a 23 0 __gnu_cxx::new_allocator<std::_List_node<google_breakpad::AppMemory> >::deallocate(std::_List_node<google_breakpad::AppMemory>*, unsigned long)
FUNC 1745e b 0 __gnu_cxx::new_allocator<google_breakpad::ExceptionHandler*>::new_allocator()
FUNC 1746a 23 0 __gnu_cxx::new_allocator<google_breakpad::ExceptionHandler*>::deallocate(google_breakpad::ExceptionHandler**, unsigned long)
FUNC 1748e 22 0 std::vector<google_breakpad::ExceptionHandler*, std::allocator<google_breakpad::ExceptionHandler*> >::max_size() const
FUNC 174b0 2a 0 std::allocator_traits<std::allocator<google_breakpad::ExceptionHandler*> >::allocate(std::allocator<google_breakpad::ExceptionHandler*>&, unsigned long)
FUNC 174da 25 0 std::move_iterator<google_breakpad::ExceptionHandler**> std::__make_move_if_noexcept_iterator<google_breakpad::ExceptionHandler*, std::move_iterator<google_breakpad::ExceptionHandler**> >(google_breakpad::ExceptionHandler**)
FUNC 174ff 31 0 google_breakpad::ExceptionHandler** std::__uninitialized_copy_a<std::move_iterator<google_breakpad::ExceptionHandler**>, google_breakpad::ExceptionHandler**, google_breakpad::ExceptionHandler*>(std::move_iterator<google_breakpad::ExceptionHandler**>, std::move_iterator<google_breakpad::ExceptionHandler**>, google_breakpad::ExceptionHandler**, std::allocator<google_breakpad::ExceptionHandler*>&)
FUNC 17530 11 0 __gnu_cxx::__normal_iterator<google_breakpad::ExceptionHandler**, std::vector<google_breakpad::ExceptionHandler*, std::allocator<google_breakpad::ExceptionHandler*> > >::operator*() const
FUNC 17541 1d 0 google_breakpad::ExceptionHandler** std::__niter_base<google_breakpad::ExceptionHandler**, std::vector<google_breakpad::ExceptionHandler*, std::allocator<google_breakpad::ExceptionHandler*> > >(__gnu_cxx::__normal_iterator<google_breakpad::ExceptionHandler**, std::vector<google_breakpad::ExceptionHandler*, std::allocator<google_breakpad::ExceptionHandler*> > >)
FUNC 1755e 31 0 google_breakpad::ExceptionHandler** std::__copy_move_a<true, google_breakpad::ExceptionHandler**, google_breakpad::ExceptionHandler**>(google_breakpad::ExceptionHandler**, google_breakpad::ExceptionHandler**, google_breakpad::ExceptionHandler**)
FUNC 1758f 2a 0 std::allocator_traits<std::allocator<std::_List_node<google_breakpad::MappingEntry> > >::allocate(std::allocator<std::_List_node<google_breakpad::MappingEntry> >&, unsigned long)
FUNC 175b9 e 0 std::allocator<std::_List_node<google_breakpad::MappingEntry> >* std::__addressof<std::allocator<std::_List_node<google_breakpad::MappingEntry> > >(std::allocator<std::_List_node<google_breakpad::MappingEntry> >&)
FUNC 175c8 56 0 void __gnu_cxx::new_allocator<std::_List_node<google_breakpad::MappingEntry> >::construct<google_breakpad::MappingEntry, google_breakpad::MappingEntry const&>(google_breakpad::MappingEntry*, google_breakpad::MappingEntry const&)
FUNC 1761e 1a 0 __gnu_cxx::__aligned_membuf<unsigned long>::_M_ptr()
FUNC 17638 1d 0 std::_List_iterator<google_breakpad::AppMemory>::operator*() const
FUNC 17655 2a 0 std::allocator_traits<std::allocator<std::_List_node<google_breakpad::AppMemory> > >::allocate(std::allocator<std::_List_node<google_breakpad::AppMemory> >&, unsigned long)
FUNC 1767f e 0 std::allocator<std::_List_node<google_breakpad::AppMemory> >* std::__addressof<std::allocator<std::_List_node<google_breakpad::AppMemory> > >(std::allocator<std::_List_node<google_breakpad::AppMemory> >&)
FUNC 1768e 53 0 void __gnu_cxx::new_allocator<std::_List_node<google_breakpad::AppMemory> >::construct<google_breakpad::AppMemory, google_breakpad::AppMemory const&>(google_breakpad::AppMemory*, google_breakpad::AppMemory const&)
FUNC 176e1 1a 0 std::allocator_traits<std::allocator<google_breakpad::ExceptionHandler*> >::max_size(std::allocator<google_breakpad::ExceptionHandler*> const&)
FUNC 176fc e 0 std::_Vector_base<google_breakpad::ExceptionHandler*, std::allocator<google_breakpad::ExceptionHandler*> >::_M_get_Tp_allocator() const
FUNC 1770a 42 0 __gnu_cxx::new_allocator<google_breakpad::ExceptionHandler*>::allocate(unsigned long, void const*)
FUNC 1774c 1a 0 std::move_iterator<google_breakpad::ExceptionHandler**>::move_iterator(google_breakpad::ExceptionHandler**)
FUNC 17766 31 0 google_breakpad::ExceptionHandler** std::uninitialized_copy<std::move_iterator<google_breakpad::ExceptionHandler**>, google_breakpad::ExceptionHandler**>(std::move_iterator<google_breakpad::ExceptionHandler**>, std::move_iterator<google_breakpad::ExceptionHandler**>, google_breakpad::ExceptionHandler**)
FUNC 17797 65 0 google_breakpad::ExceptionHandler** std::__copy_move<true, true, std::random_access_iterator_tag>::__copy_m<google_breakpad::ExceptionHandler*>(google_breakpad::ExceptionHandler* const*, google_breakpad::ExceptionHandler* const*, google_breakpad::ExceptionHandler**)
FUNC 177fc 53 0 __gnu_cxx::new_allocator<std::_List_node<google_breakpad::MappingEntry> >::allocate(unsigned long, void const*)
FUNC 17850 e 0 __gnu_cxx::__aligned_membuf<unsigned long>::_M_addr()
FUNC 1785e 42 0 __gnu_cxx::new_allocator<std::_List_node<google_breakpad::AppMemory> >::allocate(unsigned long, void const*)
FUNC 178a0 14 0 __gnu_cxx::new_allocator<google_breakpad::ExceptionHandler*>::max_size() const
FUNC 178b4 2d 0 google_breakpad::ExceptionHandler** std::__uninitialized_copy<true>::__uninit_copy<std::move_iterator<google_breakpad::ExceptionHandler**>, google_breakpad::ExceptionHandler**>(std::move_iterator<google_breakpad::ExceptionHandler**>, std::move_iterator<google_breakpad::ExceptionHandler**>, google_breakpad::ExceptionHandler**)
FUNC 178e2 14 0 __gnu_cxx::new_allocator<std::_List_node<google_breakpad::MappingEntry> >::max_size() const
FUNC 178f6 14 0 __gnu_cxx::new_allocator<std::_List_node<google_breakpad::AppMemory> >::max_size() const
FUNC 1790a 4c 0 google_breakpad::ExceptionHandler** std::copy<std::move_iterator<google_breakpad::ExceptionHandler**>, google_breakpad::ExceptionHandler**>(std::move_iterator<google_breakpad::ExceptionHandler**>, std::move_iterator<google_breakpad::ExceptionHandler**>, google_breakpad::ExceptionHandler**)
FUNC 17956 22 0 decltype (__miter_base(({parm#1}.base)())) std::__miter_base<google_breakpad::ExceptionHandler**>(std::move_iterator<google_breakpad::ExceptionHandler**>)
FUNC 17978 58 0 google_breakpad::ExceptionHandler** std::__copy_move_a2<true, google_breakpad::ExceptionHandler**, google_breakpad::ExceptionHandler**>(google_breakpad::ExceptionHandler**, google_breakpad::ExceptionHandler**, google_breakpad::ExceptionHandler**)
FUNC 179d0 11 0 std::move_iterator<google_breakpad::ExceptionHandler**>::base() const
FUNC 179e1 e 0 google_breakpad::ExceptionHandler** std::__miter_base<google_breakpad::ExceptionHandler**>(google_breakpad::ExceptionHandler**)
FUNC 179ef e 0 google_breakpad::ExceptionHandler** std::__niter_base<google_breakpad::ExceptionHandler**>(google_breakpad::ExceptionHandler**)
FUNC 179fe 103 0 google_breakpad::MinidumpDescriptor::MinidumpDescriptor(google_breakpad::MinidumpDescriptor const&)
FUNC 17b02 11f 0 google_breakpad::MinidumpDescriptor::operator=(google_breakpad::MinidumpDescriptor const&)
FUNC 17c22 1bc 0 google_breakpad::MinidumpDescriptor::UpdatePath()
FUNC 17dde 62 0 std::__cxx11::basic_string<char, std::char_traits<char>, std::allocator<char> > std::operator+<char, std::char_traits<char>, std::allocator<char> >(std::__cxx11::basic_string<char, std::char_traits<char>, std::allocator<char> > const&, char const*)
FUNC 17e40 e 0 std::remove_reference<std::__cxx11::basic_string<char, std::char_traits<char>, std::allocator<char> >&>::type&& std::move<std::__cxx11::basic_string<char, std::char_traits<char>, std::allocator<char> >&>(std::__cxx11::basic_string<char, std::char_traits<char>, std::allocator<char> >&)
FUNC 17e4e 47 0 std::__cxx11::basic_string<char, std::char_traits<char>, std::allocator<char> > std::operator+<char, std::char_traits<char>, std::allocator<char> >(std::__cxx11::basic_string<char, std::char_traits<char>, std::allocator<char> >&&, char const*)
FUNC 17e96 49 0 sys_close
FUNC 17edf 53 0 sys_munmap
FUNC 17f32 5a 0 sys_open
FUNC 17f8c 59 0 sys_read
FUNC 17fe5 8e 0 sys_mmap
FUNC 18074 1b6 0 MinidumpWriter::MinidumpWriter
FUNC 1822a 14c 0 MinidumpWriter::Init
FUNC 18376 69 0 MinidumpWriter::~MinidumpWriter
FUNC 183e0 16f 0 MinidumpWriter::CrashingThreadReferencesPrincipalMapping
FUNC 18550 68a 0 MinidumpWriter::Dump
FUNC 18bda 2f1 0 MinidumpWriter::FillThreadStack
FUNC 18ecc 835 0 MinidumpWriter::WriteThreadListStream
FUNC 19702 1ab 0 MinidumpWriter::WriteAppMemory
FUNC 198ad 4e 0 MinidumpWriter::ShouldIncludeMapping
FUNC 198fc e3 0 MinidumpWriter::HaveMappingInfo
FUNC 199e0 38c 0 MinidumpWriter::WriteMappings
FUNC 19d6c 2dc 0 MinidumpWriter::FillRawModule
FUNC 1a048 167 0 MinidumpWriter::WriteMemoryListStream
FUNC 1a1b0 169 0 MinidumpWriter::WriteExceptionStream
FUNC 1a31a f0 0 MinidumpWriter::WriteSystemInfoStream
FUNC 1a40a 7b2 0 MinidumpWriter::WriteDSODebugStream
FUNC 1abbc 1b 0 MinidumpWriter::set_minidump_size_limit
FUNC 1abd8 35 0 MinidumpWriter::Alloc
FUNC 1ac0e 1e 0 MinidumpWriter::GetCrashThread
FUNC 1ac2c 2f 0 MinidumpWriter::NullifyDirectoryEntry
FUNC 1ac5c 3a8 0 MinidumpWriter::WriteCPUInformation
FUNC 1b004 23c 0 MinidumpWriter::WriteFile
FUNC 1b240 1fc 0 MinidumpWriter::WriteOSInformation
FUNC 1b43c 8c 0 MinidumpWriter::WriteProcFile
FUNC 1b4c8 1af 0 WriteMinidumpImpl
FUNC 1b677 db 0 google_breakpad::WriteMinidump(char const*, int, void const*, unsigned long, bool, unsigned long, bool)
FUNC 1b752 d8 0 google_breakpad::WriteMinidump(int, int, void const*, unsigned long, bool, unsigned long, bool)
FUNC 1b82a 170 0 google_breakpad::WriteMinidump(char const*, int, int)
FUNC 1b99a 73 0 google_breakpad::WriteMinidump(char const*, int, void const*, unsigned long, std::__cxx11::list<google_breakpad::MappingEntry, std::allocator<google_breakpad::MappingEntry> > const&, std::__cxx11::list<google_breakpad::AppMemory, std::allocator<google_breakpad::AppMemory> > const&, bool, unsigned long, bool)
FUNC 1ba0d 70 0 google_breakpad::WriteMinidump(int, int, void const*, unsigned long, std::__cxx11::list<google_breakpad::MappingEntry, std::allocator<google_breakpad::MappingEntry> > const&, std::__cxx11::list<google_breakpad::AppMemory, std::allocator<google_breakpad::AppMemory> > const&, bool, unsigned long, bool)
FUNC 1ba7d 68 0 google_breakpad::WriteMinidump(char const*, long, int, void const*, unsigned long, std::__cxx11::list<google_breakpad::MappingEntry, std::allocator<google_breakpad::MappingEntry> > const&, std::__cxx11::list<google_breakpad::AppMemory, std::allocator<google_breakpad::AppMemory> > const&, bool, unsigned long, bool)
FUNC 1bae5 65 0 google_breakpad::WriteMinidump(int, long, int, void const*, unsigned long, std::__cxx11::list<google_breakpad::MappingEntry, std::allocator<google_breakpad::MappingEntry> > const&, std::__cxx11::list<google_breakpad::AppMemory, std::allocator<google_breakpad::AppMemory> > const&, bool, unsigned long, bool)
FUNC 1bb4a d0 0 google_breakpad::WriteMinidump(char const*, std::__cxx11::list<google_breakpad::MappingEntry, std::allocator<google_breakpad::MappingEntry> > const&, std::__cxx11::list<google_breakpad::AppMemory, std::allocator<google_breakpad::AppMemory> > const&, google_breakpad::LinuxDumper*)
FUNC 1bc1a 25 0 operator new(unsigned long, google_breakpad::PageAllocator&)
FUNC 1bc40 12 0 google_breakpad::LinuxDumper::threads()
FUNC 1bc52 14 0 google_breakpad::LinuxDumper::mappings()
FUNC 1bc66 14 0 google_breakpad::LinuxDumper::auxv()
FUNC 1bc7a 12 0 google_breakpad::LinuxDumper::allocator()
FUNC 1bc8c 12 0 google_breakpad::LinuxDumper::crash_address() const
FUNC 1bc9e 1b 0 google_breakpad::LinuxDumper::set_crash_address(unsigned long)
FUNC 1bcba 11 0 google_breakpad::LinuxDumper::crash_signal() const
FUNC 1bccc 18 0 google_breakpad::LinuxDumper::set_crash_signal(int)
FUNC 1bce4 11 0 google_breakpad::LinuxDumper::crash_signal_code() const
FUNC 1bcf6 11 0 google_breakpad::LinuxDumper::crash_thread() const
FUNC 1bd08 18 0 google_breakpad::LinuxDumper::set_crash_thread(int)
FUNC 1bd20 11 0 google_breakpad::MinidumpFileWriter::position() const
FUNC 1bd32 3f 0 google_breakpad::UntypedMDRVA::UntypedMDRVA(google_breakpad::MinidumpFileWriter*)
FUNC 1bd72 11 0 google_breakpad::UntypedMDRVA::position() const
FUNC 1bd84 23 0 google_breakpad::UntypedMDRVA::location() const
FUNC 1bda8 31 0 google_breakpad::UntypedMDRVA::Copy(void const*, unsigned long)
FUNC 1bdda 2a 0 google_breakpad::LineReader::LineReader(int)
FUNC 1be04 1a6 0 google_breakpad::LineReader::GetNextLine(char const**, unsigned int*)
FUNC 1bfaa 88 0 google_breakpad::LineReader::PopLine(unsigned int)
FUNC 1c032 31 0 google_breakpad::ProcCpuInfoReader::ProcCpuInfoReader(int)
FUNC 1c064 18a 0 google_breakpad::ProcCpuInfoReader::GetNextField(char const**)
FUNC 1c1ee 5e 0 google_breakpad::ProcCpuInfoReader::GetValueAndLen(unsigned long*)
FUNC 1c24c 1b 0 google_breakpad::wasteful_vector<MDMemoryDescriptor>::~wasteful_vector()
FUNC 1c267 2b 0 unsigned long const& std::min<unsigned long>(unsigned long const&, unsigned long const&)
FUNC 1c292 1b 0 google_breakpad::wasteful_vector<unsigned char>::~wasteful_vector()
FUNC 1c2ae 1b 0 google_breakpad::auto_wasteful_vector<unsigned char, 20u>::~auto_wasteful_vector()
FUNC 1c2ca 1b 0 google_breakpad::wasteful_vector<char>::~wasteful_vector()
FUNC 1c2e6 27 0 std::vector<int, google_breakpad::PageStdAllocator<int> >::size() const
FUNC 1c30e 21 0 std::vector<int, google_breakpad::PageStdAllocator<int> >::operator[](unsigned long) const
FUNC 1c330 1b 0 google_breakpad::PageStdAllocator<MDMemoryDescriptor>::~PageStdAllocator()
FUNC 1c34c 7b 0 google_breakpad::wasteful_vector<MDMemoryDescriptor>::wasteful_vector(google_breakpad::PageAllocator*, unsigned int)
FUNC 1c3c8 45 0 std::vector<MDMemoryDescriptor, google_breakpad::PageStdAllocator<MDMemoryDescriptor> >::~vector()
FUNC 1c40e 52 0 google_breakpad::TypedMDRVA<MDRawDirectory>::TypedMDRVA(google_breakpad::MinidumpFileWriter*)
FUNC 1c460 27 0 google_breakpad::TypedMDRVA<MDRawDirectory>::~TypedMDRVA()
FUNC 1c488 55 0 google_breakpad::TypedMDRVA<MDRawHeader>::TypedMDRVA(google_breakpad::MinidumpFileWriter*)
FUNC 1c4de 27 0 google_breakpad::TypedMDRVA<MDRawHeader>::~TypedMDRVA()
FUNC 1c506 30 0 google_breakpad::TypedMDRVA<MDRawHeader>::Allocate()
FUNC 1c536 64 0 google_breakpad::TypedMDRVA<MDRawDirectory>::AllocateArray(unsigned long)
FUNC 1c59a 12 0 google_breakpad::TypedMDRVA<MDRawHeader>::get()
FUNC 1c5ac 7b 0 google_breakpad::TypedMDRVA<MDRawDirectory>::CopyIndex(unsigned int, MDRawDirectory*)
FUNC 1c627 e 0 MDMemoryDescriptor const& std::forward<MDMemoryDescriptor const&>(std::remove_reference<MDMemoryDescriptor const&>::type&)
FUNC 1c636 6c 0 std::vector<MDMemoryDescriptor, google_breakpad::PageStdAllocator<MDMemoryDescriptor> >::push_back(MDMemoryDescriptor const&)
FUNC 1c6a2 3c 0 google_breakpad::TypedMDRVA<unsigned int>::TypedMDRVA(google_breakpad::MinidumpFileWriter*)
FUNC 1c6de 27 0 google_breakpad::TypedMDRVA<unsigned int>::~TypedMDRVA()
FUNC 1c706 71 0 google_breakpad::TypedMDRVA<unsigned int>::AllocateObjectAndArray(unsigned long, unsigned long)
FUNC 1c778 12 0 google_breakpad::TypedMDRVA<unsigned int>::get()
FUNC 1c78a 27 0 std::vector<google_breakpad::MappingInfo*, google_breakpad::PageStdAllocator<google_breakpad::MappingInfo*> >::size() const
FUNC 1c7b2 21 0 std::vector<google_breakpad::MappingInfo*, google_breakpad::PageStdAllocator<google_breakpad::MappingInfo*> >::operator[](unsigned long) const
FUNC 1c7d4 4c 0 google_breakpad::TypedMDRVA<MDRawContextAMD64>::TypedMDRVA(google_breakpad::MinidumpFileWriter*)
FUNC 1c820 2a 0 google_breakpad::TypedMDRVA<MDRawContextAMD64>::~TypedMDRVA()
FUNC 1c84a 33 0 google_breakpad::TypedMDRVA<MDRawContextAMD64>::Allocate()
FUNC 1c87e 12 0 google_breakpad::TypedMDRVA<MDRawContextAMD64>::get()
FUNC 1c890 84 0 google_breakpad::TypedMDRVA<unsigned int>::CopyIndexAfterObject(unsigned int, void const*, unsigned long)
FUNC 1c914 28 0 std::__cxx11::list<google_breakpad::AppMemory, std::allocator<google_breakpad::AppMemory> >::begin() const
FUNC 1c93c 25 0 std::__cxx11::list<google_breakpad::AppMemory, std::allocator<google_breakpad::AppMemory> >::end() const
FUNC 1c962 22 0 std::_List_const_iterator<google_breakpad::AppMemory>::operator!=(std::_List_const_iterator<google_breakpad::AppMemory> const&) const
FUNC 1c984 1f 0 std::_List_const_iterator<google_breakpad::AppMemory>::operator++()
FUNC 1c9a4 1d 0 std::_List_const_iterator<google_breakpad::AppMemory>::operator->() const
FUNC 1c9c2 28 0 std::__cxx11::list<google_breakpad::MappingEntry, std::allocator<google_breakpad::MappingEntry> >::begin() const
FUNC 1c9ea 25 0 std::__cxx11::list<google_breakpad::MappingEntry, std::allocator<google_breakpad::MappingEntry> >::end() const
FUNC 1ca10 22 0 std::_List_const_iterator<google_breakpad::MappingEntry>::operator!=(std::_List_const_iterator<google_breakpad::MappingEntry> const&) const
FUNC 1ca32 1f 0 std::_List_const_iterator<google_breakpad::MappingEntry>::operator++()
FUNC 1ca52 1d 0 std::_List_const_iterator<google_breakpad::MappingEntry>::operator->() const
FUNC 1ca70 1a 0 std::__cxx11::list<google_breakpad::MappingEntry, std::allocator<google_breakpad::MappingEntry> >::size() const
FUNC 1ca8a 30 0 google_breakpad::TypedMDRVA<unsigned int>::Allocate()
FUNC 1caba 1b 0 google_breakpad::PageStdAllocator<unsigned char>::~PageStdAllocator()
FUNC 1cad6 81 0 google_breakpad::auto_wasteful_vector<unsigned char, 20u>::auto_wasteful_vector(google_breakpad::PageAllocator*)
FUNC 1cb58 45 0 std::vector<unsigned char, google_breakpad::PageStdAllocator<unsigned char> >::~vector()
FUNC 1cb9e 29 0 std::vector<unsigned char, google_breakpad::PageStdAllocator<unsigned char> >::end()
FUNC 1cbc8 29 0 __gnu_cxx::__normal_iterator<unsigned char const*, std::vector<unsigned char, google_breakpad::PageStdAllocator<unsigned char> > >::__normal_iterator<unsigned char*>(__gnu_cxx::__normal_iterator<unsigned char*, __gnu_cxx::__enable_if<std::__are_same<unsigned char*, unsigned char*>::__value, std::vector<unsigned char, google_breakpad::PageStdAllocator<unsigned char> > >::__type> const&)
FUNC 1cbf2 ac 0 __gnu_cxx::__normal_iterator<unsigned char*, std::vector<unsigned char, google_breakpad::PageStdAllocator<unsigned char> > > std::vector<unsigned char, google_breakpad::PageStdAllocator<unsigned char> >::insert<unsigned char const*, void>(__gnu_cxx::__normal_iterator<unsigned char const*, std::vector<unsigned char, google_breakpad::PageStdAllocator<unsigned char> > >, unsigned char const*, unsigned char const*)
FUNC 1cc9e 41 0 std::vector<unsigned char, google_breakpad::PageStdAllocator<unsigned char> >::empty() const
FUNC 1cce0 23 0 std::vector<unsigned char, google_breakpad::PageStdAllocator<unsigned char> >::size() const
FUNC 1cd04 1d 0 std::vector<unsigned char, google_breakpad::PageStdAllocator<unsigned char> >::operator[](unsigned long)
FUNC 1cd22 27 0 std::vector<MDMemoryDescriptor, google_breakpad::PageStdAllocator<MDMemoryDescriptor> >::size() const
FUNC 1cd4a 21 0 std::vector<MDMemoryDescriptor, google_breakpad::PageStdAllocator<MDMemoryDescriptor> >::operator[](unsigned long)
FUNC 1cd6c 4c 0 google_breakpad::TypedMDRVA<MDRawExceptionStream>::TypedMDRVA(google_breakpad::MinidumpFileWriter*)
FUNC 1cdb8 2a 0 google_breakpad::TypedMDRVA<MDRawExceptionStream>::~TypedMDRVA()
FUNC 1cde2 33 0 google_breakpad::TypedMDRVA<MDRawExceptionStream>::Allocate()
FUNC 1ce16 12 0 google_breakpad::TypedMDRVA<MDRawExceptionStream>::get()
FUNC 1ce28 49 0 google_breakpad::TypedMDRVA<MDRawSystemInfo>::TypedMDRVA(google_breakpad::MinidumpFileWriter*)
FUNC 1ce72 27 0 google_breakpad::TypedMDRVA<MDRawSystemInfo>::~TypedMDRVA()
FUNC 1ce9a 30 0 google_breakpad::TypedMDRVA<MDRawSystemInfo>::Allocate()
FUNC 1ceca 12 0 google_breakpad::TypedMDRVA<MDRawSystemInfo>::get()
FUNC 1cedc 21 0 std::vector<unsigned long, google_breakpad::PageStdAllocator<unsigned long> >::operator[](unsigned long) const
FUNC 1cefe 54 0 google_breakpad::TypedMDRVA<MDRawLinkMap64>::TypedMDRVA(google_breakpad::MinidumpFileWriter*)
FUNC 1cf52 27 0 google_breakpad::TypedMDRVA<MDRawLinkMap64>::~TypedMDRVA()
FUNC 1cf7a 64 0 google_breakpad::TypedMDRVA<MDRawLinkMap64>::AllocateArray(unsigned long)
FUNC 1cfde 7b 0 google_breakpad::TypedMDRVA<MDRawLinkMap64>::CopyIndex(unsigned int, MDRawLinkMap64*)
FUNC 1d05a 76 0 google_breakpad::TypedMDRVA<MDRawDebug64>::TypedMDRVA(google_breakpad::MinidumpFileWriter*)
FUNC 1d0d0 27 0 google_breakpad::TypedMDRVA<MDRawDebug64>::~TypedMDRVA()
FUNC 1d0f8 71 0 google_breakpad::TypedMDRVA<MDRawDebug64>::AllocateObjectAndArray(unsigned long, unsigned long)
FUNC 1d16a 12 0 google_breakpad::TypedMDRVA<MDRawDebug64>::get()
FUNC 1d17c 1b 0 google_breakpad::PageStdAllocator<char>::~PageStdAllocator()
FUNC 1d198 7b 0 google_breakpad::wasteful_vector<char>::wasteful_vector(google_breakpad::PageAllocator*, unsigned int)
FUNC 1d214 45 0 std::vector<char, google_breakpad::PageStdAllocator<char> >::~vector()
FUNC 1d25a 89 0 std::vector<char, google_breakpad::PageStdAllocator<char> >::resize(unsigned long)
FUNC 1d2e4 1d 0 std::vector<char, google_breakpad::PageStdAllocator<char> >::operator[](unsigned long)
FUNC 1d302 84 0 google_breakpad::TypedMDRVA<MDRawDebug64>::CopyIndexAfterObject(unsigned int, void const*, unsigned long)
FUNC 1d386 42 0 google_breakpad::PageStdAllocator<MDMemoryDescriptor>::PageStdAllocator(google_breakpad::PageAllocator&)
FUNC 1d3c8 1b 0 std::allocator<MDMemoryDescriptor>::~allocator()
FUNC 1d3e4 26 0 std::vector<MDMemoryDescriptor, google_breakpad::PageStdAllocator<MDMemoryDescriptor> >::vector(google_breakpad::PageStdAllocator<MDMemoryDescriptor> const&)
FUNC 1d40a 146 0 std::vector<MDMemoryDescriptor, google_breakpad::PageStdAllocator<MDMemoryDescriptor> >::reserve(unsigned long)
FUNC 1d550 1b 0 std::_Vector_base<MDMemoryDescriptor, google_breakpad::PageStdAllocator<MDMemoryDescriptor> >::_Vector_impl::~_Vector_impl()
FUNC 1d56c 52 0 std::_Vector_base<MDMemoryDescriptor, google_breakpad::PageStdAllocator<MDMemoryDescriptor> >::~_Vector_base()
FUNC 1d5be e 0 std::_Vector_base<MDMemoryDescriptor, google_breakpad::PageStdAllocator<MDMemoryDescriptor> >::_M_get_Tp_allocator()
FUNC 1d5cc 46 0 void std::_Destroy<MDMemoryDescriptor*, google_breakpad::PageStdAllocator<MDMemoryDescriptor> >(MDMemoryDescriptor*, MDMemoryDescriptor*, google_breakpad::PageStdAllocator<MDMemoryDescriptor>&)
FUNC 1d612 34 0 google_breakpad::TypedMDRVA<MDRawDirectory>::Flush()
FUNC 1d646 34 0 google_breakpad::TypedMDRVA<MDRawHeader>::Flush()
FUNC 1d67a b 0 google_breakpad::minidump_size<MDRawHeader>::size()
FUNC 1d685 b 0 google_breakpad::minidump_size<MDRawDirectory>::size()
FUNC 1d690 39 0 decltype (_S_construct({parm#1}, {parm#2}, (forward<MDMemoryDescriptor const&>)({parm#3}))) std::allocator_traits<google_breakpad::PageStdAllocator<MDMemoryDescriptor> >::construct<MDMemoryDescriptor, MDMemoryDescriptor const&>(google_breakpad::PageStdAllocator<MDMemoryDescriptor>&, MDMemoryDescriptor*, MDMemoryDescriptor const&)
FUNC 1d6ca 1ee 0 void std::vector<MDMemoryDescriptor, google_breakpad::PageStdAllocator<MDMemoryDescriptor> >::_M_emplace_back_aux<MDMemoryDescriptor const&>(MDMemoryDescriptor const&)
FUNC 1d8b8 34 0 google_breakpad::TypedMDRVA<unsigned int>::Flush()
FUNC 1d8ec b 0 google_breakpad::minidump_size<unsigned int>::size()
FUNC 1d8f8 34 0 google_breakpad::TypedMDRVA<MDRawContextAMD64>::Flush()
FUNC 1d92c b 0 google_breakpad::minidump_size<MDRawContextAMD64>::size()
FUNC 1d938 1a 0 std::_List_const_iterator<google_breakpad::AppMemory>::_List_const_iterator(std::__detail::_List_node_base const*)
FUNC 1d952 1e 0 std::_List_node<google_breakpad::AppMemory>::_M_valptr() const
FUNC 1d970 1a 0 std::_List_const_iterator<google_breakpad::MappingEntry>::_List_const_iterator(std::__detail::_List_node_base const*)
FUNC 1d98a 1e 0 std::_List_node<google_breakpad::MappingEntry>::_M_valptr() const
FUNC 1d9a8 1d 0 std::__cxx11::_List_base<google_breakpad::MappingEntry, std::allocator<google_breakpad::MappingEntry> >::_M_node_count() const
FUNC 1d9c6 4a 0 google_breakpad::PageStdAllocator<unsigned char>::PageStdAllocator(google_breakpad::PageAllocator&, unsigned char*, unsigned long)
FUNC 1da10 1b 0 std::allocator<unsigned char>::~allocator()
FUNC 1da2c 26 0 std::allocator<unsigned char>::allocator(std::allocator<unsigned char> const&)
FUNC 1da52 26 0 google_breakpad::wasteful_vector<unsigned char>::wasteful_vector(google_breakpad::PageStdAllocator<unsigned char>)
FUNC 1da78 137 0 std::vector<unsigned char, google_breakpad::PageStdAllocator<unsigned char> >::reserve(unsigned long)
FUNC 1dbb0 1b 0 std::_Vector_base<unsigned char, google_breakpad::PageStdAllocator<unsigned char> >::_Vector_impl::~_Vector_impl()
FUNC 1dbcc 4e 0 std::_Vector_base<unsigned char, google_breakpad::PageStdAllocator<unsigned char> >::~_Vector_base()
FUNC 1dc1a e 0 std::_Vector_base<unsigned char, google_breakpad::PageStdAllocator<unsigned char> >::_M_get_Tp_allocator()
FUNC 1dc28 46 0 void std::_Destroy<unsigned char*, google_breakpad::PageStdAllocator<unsigned char> >(unsigned char*, unsigned char*, google_breakpad::PageStdAllocator<unsigned char>&)
FUNC 1dc6e 1d 0 __gnu_cxx::__normal_iterator<unsigned char*, std::vector<unsigned char, google_breakpad::PageStdAllocator<unsigned char> > >::__normal_iterator(unsigned char* const&)
FUNC 1dc8c e 0 __gnu_cxx::__normal_iterator<unsigned char*, std::vector<unsigned char, google_breakpad::PageStdAllocator<unsigned char> > >::base() const
FUNC 1dc9a 31 0 std::vector<unsigned char, google_breakpad::PageStdAllocator<unsigned char> >::cbegin() const
FUNC 1dccb 3f 0 __gnu_cxx::__normal_iterator<unsigned char const*, std::vector<unsigned char, google_breakpad::PageStdAllocator<unsigned char> > >::difference_type __gnu_cxx::operator-<unsigned char const*, std::vector<unsigned char, google_breakpad::PageStdAllocator<unsigned char> > >(__gnu_cxx::__normal_iterator<unsigned char const*, std::vector<unsigned char, google_breakpad::PageStdAllocator<unsigned char> > > const&, __gnu_cxx::__normal_iterator<unsigned char const*, std::vector<unsigned char, google_breakpad::PageStdAllocator<unsigned char> > > const&)
FUNC 1dd0a 29 0 std::vector<unsigned char, google_breakpad::PageStdAllocator<unsigned char> >::begin()
FUNC 1dd34 3b 0 __gnu_cxx::__normal_iterator<unsigned char*, std::vector<unsigned char, google_breakpad::PageStdAllocator<unsigned char> > >::operator+(long) const
FUNC 1dd70 3d 0 void std::vector<unsigned char, google_breakpad::PageStdAllocator<unsigned char> >::_M_insert_dispatch<unsigned char const*>(__gnu_cxx::__normal_iterator<unsigned char*, std::vector<unsigned char, google_breakpad::PageStdAllocator<unsigned char> > >, unsigned char const*, unsigned char const*, std::__false_type)
FUNC 1ddae 31 0 std::vector<unsigned char, google_breakpad::PageStdAllocator<unsigned char> >::begin() const
FUNC 1dde0 31 0 std::vector<unsigned char, google_breakpad::PageStdAllocator<unsigned char> >::end() const
FUNC 1de11 3c 0 bool __gnu_cxx::operator==<unsigned char const*, std::vector<unsigned char, google_breakpad::PageStdAllocator<unsigned char> > >(__gnu_cxx::__normal_iterator<unsigned char const*, std::vector<unsigned char, google_breakpad::PageStdAllocator<unsigned char> > > const&, __gnu_cxx::__normal_iterator<unsigned char const*, std::vector<unsigned char, google_breakpad::PageStdAllocator<unsigned char> > > const&)
FUNC 1de4e 34 0 google_breakpad::TypedMDRVA<MDRawExceptionStream>::Flush()
FUNC 1de82 b 0 google_breakpad::minidump_size<MDRawExceptionStream>::size()
FUNC 1de8e 34 0 google_breakpad::TypedMDRVA<MDRawSystemInfo>::Flush()
FUNC 1dec2 b 0 google_breakpad::minidump_size<MDRawSystemInfo>::size()
FUNC 1dece 34 0 google_breakpad::TypedMDRVA<MDRawLinkMap64>::Flush()
FUNC 1df02 b 0 google_breakpad::minidump_size<MDRawLinkMap64>::size()
FUNC 1df0e 34 0 google_breakpad::TypedMDRVA<MDRawDebug64>::Flush()
FUNC 1df42 b 0 google_breakpad::minidump_size<MDRawDebug64>::size()
FUNC 1df4e 42 0 google_breakpad::PageStdAllocator<char>::PageStdAllocator(google_breakpad::PageAllocator&)
FUNC 1df90 26 0 std::vector<char, google_breakpad::PageStdAllocator<char> >::vector(google_breakpad::PageStdAllocator<char> const&)
FUNC 1dfb6 137 0 std::vector<char, google_breakpad::PageStdAllocator<char> >::reserve(unsigned long)
FUNC 1e0ee 1b 0 std::_Vector_base<char, google_breakpad::PageStdAllocator<char> >::_Vector_impl::~_Vector_impl()
FUNC 1e10a 4e 0 std::_Vector_base<char, google_breakpad::PageStdAllocator<char> >::~_Vector_base()
FUNC 1e158 e 0 std::_Vector_base<char, google_breakpad::PageStdAllocator<char> >::_M_get_Tp_allocator()
FUNC 1e166 46 0 void std::_Destroy<char*, google_breakpad::PageStdAllocator<char> >(char*, char*, google_breakpad::PageStdAllocator<char>&)
FUNC 1e1ac 23 0 std::vector<char, google_breakpad::PageStdAllocator<char> >::size() const
FUNC 1e1d0 1fe 0 std::vector<char, google_breakpad::PageStdAllocator<char> >::_M_default_append(unsigned long)
FUNC 1e3ce 45 0 std::vector<char, google_breakpad::PageStdAllocator<char> >::_M_erase_at_end(char*)
FUNC 1e414 1b 0 std::allocator<MDMemoryDescriptor>::allocator()
FUNC 1e430 b 0 __gnu_cxx::new_allocator<MDMemoryDescriptor>::~new_allocator()
FUNC 1e43c 26 0 std::_Vector_base<MDMemoryDescriptor, google_breakpad::PageStdAllocator<MDMemoryDescriptor> >::_Vector_base(google_breakpad::PageStdAllocator<MDMemoryDescriptor> const&)
FUNC 1e462 22 0 std::vector<MDMemoryDescriptor, google_breakpad::PageStdAllocator<MDMemoryDescriptor> >::max_size() const
FUNC 1e484 27 0 std::vector<MDMemoryDescriptor, google_breakpad::PageStdAllocator<MDMemoryDescriptor> >::capacity() const
FUNC 1e4ab 25 0 std::move_iterator<MDMemoryDescriptor*> std::__make_move_if_noexcept_iterator<MDMemoryDescriptor, std::move_iterator<MDMemoryDescriptor*> >(MDMemoryDescriptor*)
FUNC 1e4d0 97 0 MDMemoryDescriptor* std::vector<MDMemoryDescriptor, google_breakpad::PageStdAllocator<MDMemoryDescriptor> >::_M_allocate_and_copy<std::move_iterator<MDMemoryDescriptor*> >(unsigned long, std::move_iterator<MDMemoryDescriptor*>, std::move_iterator<MDMemoryDescriptor*>)
FUNC 1e568 35 0 std::_Vector_base<MDMemoryDescriptor, google_breakpad::PageStdAllocator<MDMemoryDescriptor> >::_M_deallocate(MDMemoryDescriptor*, unsigned long)
FUNC 1e59d e 0 MDMemoryDescriptor* std::__addressof<MDMemoryDescriptor>(MDMemoryDescriptor&)
FUNC 1e5ab 2b 0 void std::allocator_traits<google_breakpad::PageStdAllocator<MDMemoryDescriptor> >::destroy<MDMemoryDescriptor>(google_breakpad::PageStdAllocator<MDMemoryDescriptor>&, MDMemoryDescriptor*)
FUNC 1e5d6 39 0 std::enable_if<std::__and_<std::allocator_traits<google_breakpad::PageStdAllocator<MDMemoryDescriptor> >::__construct_helper<MDMemoryDescriptor, MDMemoryDescriptor const&>::type>::value, void>::type std::allocator_traits<google_breakpad::PageStdAllocator<MDMemoryDescriptor> >::_S_construct<MDMemoryDescriptor, MDMemoryDescriptor const&>(google_breakpad::PageStdAllocator<MDMemoryDescriptor>&, MDMemoryDescriptor*, MDMemoryDescriptor const&)
FUNC 1e610 c9 0 std::vector<MDMemoryDescriptor, google_breakpad::PageStdAllocator<MDMemoryDescriptor> >::_M_check_len(unsigned long, char const*) const
FUNC 1e6da 33 0 std::_Vector_base<MDMemoryDescriptor, google_breakpad::PageStdAllocator<MDMemoryDescriptor> >::_M_allocate(unsigned long)
FUNC 1e70d 54 0 MDMemoryDescriptor* std::__uninitialized_move_if_noexcept_a<MDMemoryDescriptor*, MDMemoryDescriptor*, google_breakpad::PageStdAllocator<MDMemoryDescriptor> >(MDMemoryDescriptor*, MDMemoryDescriptor*, MDMemoryDescriptor*, google_breakpad::PageStdAllocator<MDMemoryDescriptor>&)
FUNC 1e762 1a 0 __gnu_cxx::__aligned_membuf<google_breakpad::AppMemory>::_M_ptr() const
FUNC 1e77c 1a 0 __gnu_cxx::__aligned_membuf<google_breakpad::MappingEntry>::_M_ptr() const
FUNC 1e796 1e 0 std::_List_node<unsigned long>::_M_valptr() const
FUNC 1e7b4 1b 0 std::allocator<unsigned char>::allocator()
FUNC 1e7d0 b 0 __gnu_cxx::new_allocator<unsigned char>::~new_allocator()
FUNC 1e7dc f 0 __gnu_cxx::new_allocator<unsigned char>::new_allocator(__gnu_cxx::new_allocator<unsigned char> const&)
FUNC 1e7ec 26 0 std::vector<unsigned char, google_breakpad::PageStdAllocator<unsigned char> >::vector(google_breakpad::PageStdAllocator<unsigned char> const&)
FUNC 1e812 22 0 std::vector<unsigned char, google_breakpad::PageStdAllocator<unsigned char> >::max_size() const
FUNC 1e834 23 0 std::vector<unsigned char, google_breakpad::PageStdAllocator<unsigned char> >::capacity() const
FUNC 1e857 25 0 std::move_iterator<unsigned char*> std::__make_move_if_noexcept_iterator<unsigned char, std::move_iterator<unsigned char*> >(unsigned char*)
FUNC 1e87c 97 0 unsigned char* std::vector<unsigned char, google_breakpad::PageStdAllocator<unsigned char> >::_M_allocate_and_copy<std::move_iterator<unsigned char*> >(unsigned long, std::move_iterator<unsigned char*>, std::move_iterator<unsigned char*>)
FUNC 1e914 35 0 std::_Vector_base<unsigned char, google_breakpad::PageStdAllocator<unsigned char> >::_M_deallocate(unsigned char*, unsigned long)
FUNC 1e949 e 0 unsigned char* std::__addressof<unsigned char>(unsigned char&)
FUNC 1e957 2b 0 void std::allocator_traits<google_breakpad::PageStdAllocator<unsigned char> >::destroy<unsigned char>(google_breakpad::PageStdAllocator<unsigned char>&, unsigned char*)
FUNC 1e982 1d 0 __gnu_cxx::__normal_iterator<unsigned char const*, std::vector<unsigned char, google_breakpad::PageStdAllocator<unsigned char> > >::__normal_iterator(unsigned char const* const&)
FUNC 1e9a0 e 0 __gnu_cxx::__normal_iterator<unsigned char const*, std::vector<unsigned char, google_breakpad::PageStdAllocator<unsigned char> > >::base() const
FUNC 1e9ae 3d2 0 void std::vector<unsigned char, google_breakpad::PageStdAllocator<unsigned char> >::_M_range_insert<unsigned char const*>(__gnu_cxx::__normal_iterator<unsigned char*, std::vector<unsigned char, google_breakpad::PageStdAllocator<unsigned char> > >, unsigned char const*, unsigned char const*, std::forward_iterator_tag)
FUNC 1ed80 26 0 std::_Vector_base<char, google_breakpad::PageStdAllocator<char> >::_Vector_base(google_breakpad::PageStdAllocator<char> const&)
FUNC 1eda6 22 0 std::vector<char, google_breakpad::PageStdAllocator<char> >::max_size() const
FUNC 1edc8 23 0 std::vector<char, google_breakpad::PageStdAllocator<char> >::capacity() const
FUNC 1edeb 25 0 std::move_iterator<char*> std::__make_move_if_noexcept_iterator<char, std::move_iterator<char*> >(char*)
FUNC 1ee10 97 0 char* std::vector<char, google_breakpad::PageStdAllocator<char> >::_M_allocate_and_copy<std::move_iterator<char*> >(unsigned long, std::move_iterator<char*>, std::move_iterator<char*>)
FUNC 1eea8 35 0 std::_Vector_base<char, google_breakpad::PageStdAllocator<char> >::_M_deallocate(char*, unsigned long)
FUNC 1eedd e 0 char* std::__addressof<char>(char&)
FUNC 1eeeb 2b 0 void std::allocator_traits<google_breakpad::PageStdAllocator<char> >::destroy<char>(google_breakpad::PageStdAllocator<char>&, char*)
FUNC 1ef16 92 0 char* std::__uninitialized_default_n_a<char*, unsigned long, google_breakpad::PageStdAllocator<char> >(char*, unsigned long, google_breakpad::PageStdAllocator<char>&)
FUNC 1efa8 c9 0 std::vector<char, google_breakpad::PageStdAllocator<char> >::_M_check_len(unsigned long, char const*) const
FUNC 1f072 33 0 std::_Vector_base<char, google_breakpad::PageStdAllocator<char> >::_M_allocate(unsigned long)
FUNC 1f0a5 54 0 char* std::__uninitialized_move_if_noexcept_a<char*, char*, google_breakpad::PageStdAllocator<char> >(char*, char*, char*, google_breakpad::PageStdAllocator<char>&)
FUNC 1f0fa b 0 __gnu_cxx::new_allocator<MDMemoryDescriptor>::new_allocator()
FUNC 1f106 54 0 google_breakpad::PageStdAllocator<MDMemoryDescriptor>::PageStdAllocator(google_breakpad::PageStdAllocator<MDMemoryDescriptor> const&)
FUNC 1f15a 4a 0 std::_Vector_base<MDMemoryDescriptor, google_breakpad::PageStdAllocator<MDMemoryDescriptor> >::_Vector_impl::_Vector_impl(google_breakpad::PageStdAllocator<MDMemoryDescriptor> const&)
FUNC 1f1a4 1f 0 std::allocator_traits<google_breakpad::PageStdAllocator<MDMemoryDescriptor> >::max_size(google_breakpad::PageStdAllocator<MDMemoryDescriptor> const&)
FUNC 1f1c4 e 0 std::_Vector_base<MDMemoryDescriptor, google_breakpad::PageStdAllocator<MDMemoryDescriptor> >::_M_get_Tp_allocator() const
FUNC 1f1d2 1a 0 std::move_iterator<MDMemoryDescriptor*>::move_iterator(MDMemoryDescriptor*)
FUNC 1f1ec e 0 MDMemoryDescriptor&& std::forward<MDMemoryDescriptor>(std::remove_reference<MDMemoryDescriptor>::type&)
FUNC 1f1fa bf 0 MDMemoryDescriptor* std::__uninitialized_copy_a<std::move_iterator<MDMemoryDescriptor*>, MDMemoryDescriptor*, google_breakpad::PageStdAllocator<MDMemoryDescriptor> >(std::move_iterator<MDMemoryDescriptor*>, std::move_iterator<MDMemoryDescriptor*>, MDMemoryDescriptor*, google_breakpad::PageStdAllocator<MDMemoryDescriptor>&)
FUNC 1f2b9 2e 0 std::allocator_traits<google_breakpad::PageStdAllocator<MDMemoryDescriptor> >::deallocate(google_breakpad::PageStdAllocator<MDMemoryDescriptor>&, MDMemoryDescriptor*, unsigned long)
FUNC 1f2e7 29 0 decltype (({parm#1}.destroy)({parm#2})) std::allocator_traits<google_breakpad::PageStdAllocator<MDMemoryDescriptor> >::_S_destroy<google_breakpad::PageStdAllocator<MDMemoryDescriptor>, MDMemoryDescriptor>(google_breakpad::PageStdAllocator<MDMemoryDescriptor>&, MDMemoryDescriptor*, int)
FUNC 1f310 53 0 void __gnu_cxx::new_allocator<MDMemoryDescriptor>::construct<MDMemoryDescriptor, MDMemoryDescriptor const&>(MDMemoryDescriptor*, MDMemoryDescriptor const&)
FUNC 1f363 2a 0 std::allocator_traits<google_breakpad::PageStdAllocator<MDMemoryDescriptor> >::allocate(google_breakpad::PageStdAllocator<MDMemoryDescriptor>&, unsigned long)
FUNC 1f38e e 0 __gnu_cxx::__aligned_membuf<google_breakpad::AppMemory>::_M_addr() const
FUNC 1f39c e 0 __gnu_cxx::__aligned_membuf<google_breakpad::MappingEntry>::_M_addr() const
FUNC 1f3aa 1a 0 __gnu_cxx::__aligned_membuf<unsigned long>::_M_ptr() const
FUNC 1f3c4 b 0 __gnu_cxx::new_allocator<unsigned char>::new_allocator()
FUNC 1f3d0 26 0 std::_Vector_base<unsigned char, google_breakpad::PageStdAllocator<unsigned char> >::_Vector_base(google_breakpad::PageStdAllocator<unsigned char> const&)
FUNC 1f3f6 1f 0 std::allocator_traits<google_breakpad::PageStdAllocator<unsigned char> >::max_size(google_breakpad::PageStdAllocator<unsigned char> const&)
FUNC 1f416 e 0 std::_Vector_base<unsigned char, google_breakpad::PageStdAllocator<unsigned char> >::_M_get_Tp_allocator() const
FUNC 1f424 1a 0 std::move_iterator<unsigned char*>::move_iterator(unsigned char*)
FUNC 1f43e 33 0 std::_Vector_base<unsigned char, google_breakpad::PageStdAllocator<unsigned char> >::_M_allocate(unsigned long)
FUNC 1f471 e 0 unsigned char&& std::forward<unsigned char>(std::remove_reference<unsigned char>::type&)
FUNC 1f47f bf 0 unsigned char* std::__uninitialized_copy_a<std::move_iterator<unsigned char*>, unsigned char*, google_breakpad::PageStdAllocator<unsigned char> >(std::move_iterator<unsigned char*>, std::move_iterator<unsigned char*>, unsigned char*, google_breakpad::PageStdAllocator<unsigned char>&)
FUNC 1f53e 2e 0 std::allocator_traits<google_breakpad::PageStdAllocator<unsigned char> >::deallocate(google_breakpad::PageStdAllocator<unsigned char>&, unsigned char*, unsigned long)
FUNC 1f56c 29 0 decltype (({parm#1}.destroy)({parm#2})) std::allocator_traits<google_breakpad::PageStdAllocator<unsigned char> >::_S_destroy<google_breakpad::PageStdAllocator<unsigned char>, unsigned char>(google_breakpad::PageStdAllocator<unsigned char>&, unsigned char*, int)
FUNC 1f595 3f 0 std::iterator_traits<unsigned char const*>::difference_type std::distance<unsigned char const*>(unsigned char const*, unsigned char const*)
FUNC 1f5d4 3f 0 __gnu_cxx::__normal_iterator<unsigned char*, std::vector<unsigned char, google_breakpad::PageStdAllocator<unsigned char> > >::difference_type __gnu_cxx::operator-<unsigned char*, std::vector<unsigned char, google_breakpad::PageStdAllocator<unsigned char> > >(__gnu_cxx::__normal_iterator<unsigned char*, std::vector<unsigned char, google_breakpad::PageStdAllocator<unsigned char> > > const&, __gnu_cxx::__normal_iterator<unsigned char*, std::vector<unsigned char, google_breakpad::PageStdAllocator<unsigned char> > > const&)
FUNC 1f613 54 0 unsigned char* std::__uninitialized_move_a<unsigned char*, unsigned char*, google_breakpad::PageStdAllocator<unsigned char> >(unsigned char*, unsigned char*, unsigned char*, google_breakpad::PageStdAllocator<unsigned char>&)
FUNC 1f667 4c 0 unsigned char* std::move_backward<unsigned char*, unsigned char*>(unsigned char*, unsigned char*, unsigned char*)
FUNC 1f6b3 4c 0 __gnu_cxx::__normal_iterator<unsigned char*, std::vector<unsigned char, google_breakpad::PageStdAllocator<unsigned char> > > std::copy<unsigned char const*, __gnu_cxx::__normal_iterator<unsigned char*, std::vector<unsigned char, google_breakpad::PageStdAllocator<unsigned char> > > >(unsigned char const*, unsigned char const*, __gnu_cxx::__normal_iterator<unsigned char*, std::vector<unsigned char, google_breakpad::PageStdAllocator<unsigned char> > >)
FUNC 1f6ff 48 0 void std::advance<unsigned char const*, unsigned long>(unsigned char const*&, unsigned long)
FUNC 1f747 e 0 unsigned char const& std::forward<unsigned char const&>(std::remove_reference<unsigned char const&>::type&)
FUNC 1f755 9d 0 unsigned char* std::__uninitialized_copy_a<unsigned char const*, unsigned char*, google_breakpad::PageStdAllocator<unsigned char> >(unsigned char const*, unsigned char const*, unsigned char*, google_breakpad::PageStdAllocator<unsigned char>&)
FUNC 1f7f2 c9 0 std::vector<unsigned char, google_breakpad::PageStdAllocator<unsigned char> >::_M_check_len(unsigned long, char const*) const
FUNC 1f8bb 54 0 unsigned char* std::__uninitialized_move_if_noexcept_a<unsigned char*, unsigned char*, google_breakpad::PageStdAllocator<unsigned char> >(unsigned char*, unsigned char*, unsigned char*, google_breakpad::PageStdAllocator<unsigned char>&)
FUNC 1f910 54 0 google_breakpad::PageStdAllocator<char>::PageStdAllocator(google_breakpad::PageStdAllocator<char> const&)
FUNC 1f964 4a 0 std::_Vector_base<char, google_breakpad::PageStdAllocator<char> >::_Vector_impl::_Vector_impl(google_breakpad::PageStdAllocator<char> const&)
FUNC 1f9ae 1f 0 std::allocator_traits<google_breakpad::PageStdAllocator<char> >::max_size(google_breakpad::PageStdAllocator<char> const&)
FUNC 1f9ce e 0 std::_Vector_base<char, google_breakpad::PageStdAllocator<char> >::_M_get_Tp_allocator() const
FUNC 1f9dc 1a 0 std::move_iterator<char*>::move_iterator(char*)
FUNC 1f9f6 e 0 char&& std::forward<char>(std::remove_reference<char>::type&)
FUNC 1fa04 bf 0 char* std::__uninitialized_copy_a<std::move_iterator<char*>, char*, google_breakpad::PageStdAllocator<char> >(std::move_iterator<char*>, std::move_iterator<char*>, char*, google_breakpad::PageStdAllocator<char>&)
FUNC 1fac3 2e 0 std::allocator_traits<google_breakpad::PageStdAllocator<char> >::deallocate(google_breakpad::PageStdAllocator<char>&, char*, unsigned long)
FUNC 1faf1 29 0 decltype (({parm#1}.destroy)({parm#2})) std::allocator_traits<google_breakpad::PageStdAllocator<char> >::_S_destroy<google_breakpad::PageStdAllocator<char>, char>(google_breakpad::PageStdAllocator<char>&, char*, int)
FUNC 1fb1a 26 0 decltype (_S_construct({parm#1}, {parm#2})) std::allocator_traits<google_breakpad::PageStdAllocator<char> >::construct<char>(google_breakpad::PageStdAllocator<char>&, char*)
FUNC 1fb40 2a 0 std::allocator_traits<google_breakpad::PageStdAllocator<char> >::allocate(google_breakpad::PageStdAllocator<char>&, unsigned long)
FUNC 1fb6a 26 0 std::allocator<MDMemoryDescriptor>::allocator(std::allocator<MDMemoryDescriptor> const&)
FUNC 1fb90 1d 0 decltype (({parm#1}.max_size)()) std::allocator_traits<google_breakpad::PageStdAllocator<MDMemoryDescriptor> >::_S_max_size<google_breakpad::PageStdAllocator<MDMemoryDescriptor> const>(google_breakpad::PageStdAllocator<MDMemoryDescriptor> const&, int)
FUNC 1fbad 28 0 bool std::operator!=<MDMemoryDescriptor*>(std::move_iterator<MDMemoryDescriptor*> const&, std::move_iterator<MDMemoryDescriptor*> const&)
FUNC 1fbd6 20 0 std::move_iterator<MDMemoryDescriptor*>::operator++()
FUNC 1fbf6 11 0 std::move_iterator<MDMemoryDescriptor*>::operator*() const
FUNC 1fc07 39 0 decltype (_S_construct({parm#1}, {parm#2}, (forward<MDMemoryDescriptor>)({parm#3}))) std::allocator_traits<google_breakpad::PageStdAllocator<MDMemoryDescriptor> >::construct<MDMemoryDescriptor, MDMemoryDescriptor>(google_breakpad::PageStdAllocator<MDMemoryDescriptor>&, MDMemoryDescriptor*, MDMemoryDescriptor&&)
FUNC 1fc40 13 0 google_breakpad::PageStdAllocator<MDMemoryDescriptor>::deallocate(MDMemoryDescriptor*, unsigned long)
FUNC 1fc54 f 0 void __gnu_cxx::new_allocator<MDMemoryDescriptor>::destroy<MDMemoryDescriptor>(MDMemoryDescriptor*)
FUNC 1fc64 50 0 google_breakpad::PageStdAllocator<MDMemoryDescriptor>::allocate(unsigned long, void const*)
FUNC 1fcb4 e 0 __gnu_cxx::__aligned_membuf<unsigned long>::_M_addr() const
FUNC 1fcc2 54 0 google_breakpad::PageStdAllocator<unsigned char>::PageStdAllocator(google_breakpad::PageStdAllocator<unsigned char> const&)
FUNC 1fd16 4a 0 std::_Vector_base<unsigned char, google_breakpad::PageStdAllocator<unsigned char> >::_Vector_impl::_Vector_impl(google_breakpad::PageStdAllocator<unsigned char> const&)
FUNC 1fd60 1d 0 decltype (({parm#1}.max_size)()) std::allocator_traits<google_breakpad::PageStdAllocator<unsigned char> >::_S_max_size<google_breakpad::PageStdAllocator<unsigned char> const>(google_breakpad::PageStdAllocator<unsigned char> const&, int)
FUNC 1fd7d 2a 0 std::allocator_traits<google_breakpad::PageStdAllocator<unsigned char> >::allocate(google_breakpad::PageStdAllocator<unsigned char>&, unsigned long)
FUNC 1fda7 28 0 bool std::operator!=<unsigned char*>(std::move_iterator<unsigned char*> const&, std::move_iterator<unsigned char*> const&)
FUNC 1fdd0 20 0 std::move_iterator<unsigned char*>::operator++()
FUNC 1fdf0 11 0 std::move_iterator<unsigned char*>::operator*() const
FUNC 1fe01 39 0 decltype (_S_construct({parm#1}, {parm#2}, (forward<unsigned char>)({parm#3}))) std::allocator_traits<google_breakpad::PageStdAllocator<unsigned char> >::construct<unsigned char, unsigned char>(google_breakpad::PageStdAllocator<unsigned char>&, unsigned char*, unsigned char&&)
FUNC 1fe3a 13 0 google_breakpad::PageStdAllocator<unsigned char>::deallocate(unsigned char*, unsigned long)
FUNC 1fe4e f 0 void __gnu_cxx::new_allocator<unsigned char>::destroy<unsigned char>(unsigned char*)
FUNC 1fe5d a 0 std::iterator_traits<unsigned char const*>::iterator_category std::__iterator_category<unsigned char const*>(unsigned char const* const&)
FUNC 1fe67 1c 0 std::iterator_traits<unsigned char const*>::difference_type std::__distance<unsigned char const*>(unsigned char const*, unsigned char const*, std::random_access_iterator_tag)
FUNC 1fe83 25 0 std::move_iterator<unsigned char*> std::make_move_iterator<unsigned char*>(unsigned char*)
FUNC 1fea8 e 0 unsigned char* std::__miter_base<unsigned char*>(unsigned char*)
FUNC 1feb6 58 0 unsigned char* std::__copy_move_backward_a2<true, unsigned char*, unsigned char*>(unsigned char*, unsigned char*, unsigned char*)
FUNC 1ff0e e 0 unsigned char const* std::__miter_base<unsigned char const*>(unsigned char const*)
FUNC 1ff1c 73 0 __gnu_cxx::__normal_iterator<unsigned char*, std::vector<unsigned char, google_breakpad::PageStdAllocator<unsigned char> > > std::__copy_move_a2<false, unsigned char const*, __gnu_cxx::__normal_iterator<unsigned char*, std::vector<unsigned char, google_breakpad::PageStdAllocator<unsigned char> > > >(unsigned char const*, unsigned char const*, __gnu_cxx::__normal_iterator<unsigned char*, std::vector<unsigned char, google_breakpad::PageStdAllocator<unsigned char> > >)
FUNC 1ff8f 24 0 void std::__advance<unsigned char const*, long>(unsigned char const*&, long, std::random_access_iterator_tag)
FUNC 1ffb3 39 0 decltype (_S_construct({parm#1}, {parm#2}, (forward<unsigned char const&>)({parm#3}))) std::allocator_traits<google_breakpad::PageStdAllocator<unsigned char> >::construct<unsigned char, unsigned char const&>(google_breakpad::PageStdAllocator<unsigned char>&, unsigned char*, unsigned char const&)
FUNC 1ffec 1d 0 decltype (({parm#1}.max_size)()) std::allocator_traits<google_breakpad::PageStdAllocator<char> >::_S_max_size<google_breakpad::PageStdAllocator<char> const>(google_breakpad::PageStdAllocator<char> const&, int)
FUNC 20009 28 0 bool std::operator!=<char*>(std::move_iterator<char*> const&, std::move_iterator<char*> const&)
FUNC 20032 20 0 std::move_iterator<char*>::operator++()
FUNC 20052 11 0 std::move_iterator<char*>::operator*() const
FUNC 20063 39 0 decltype (_S_construct({parm#1}, {parm#2}, (forward<char>)({parm#3}))) std::allocator_traits<google_breakpad::PageStdAllocator<char> >::construct<char, char>(google_breakpad::PageStdAllocator<char>&, char*, char&&)
FUNC 2009c 13 0 google_breakpad::PageStdAllocator<char>::deallocate(char*, unsigned long)
FUNC 200b0 f 0 void __gnu_cxx::new_allocator<char>::destroy<char>(char*)
FUNC 200bf 26 0 std::enable_if<std::__and_<std::allocator_traits<google_breakpad::PageStdAllocator<char> >::__construct_helper<char>::type>::value, void>::type std::allocator_traits<google_breakpad::PageStdAllocator<char> >::_S_construct<char>(google_breakpad::PageStdAllocator<char>&, char*)
FUNC 200e6 4c 0 google_breakpad::PageStdAllocator<char>::allocate(unsigned long, void const*)
FUNC 20132 f 0 __gnu_cxx::new_allocator<MDMemoryDescriptor>::new_allocator(__gnu_cxx::new_allocator<MDMemoryDescriptor> const&)
FUNC 20142 14 0 __gnu_cxx::new_allocator<MDMemoryDescriptor>::max_size() const
FUNC 20156 39 0 bool std::operator==<MDMemoryDescriptor*>(std::move_iterator<MDMemoryDescriptor*> const&, std::move_iterator<MDMemoryDescriptor*> const&)
FUNC 2018f 39 0 std::enable_if<std::__and_<std::allocator_traits<google_breakpad::PageStdAllocator<MDMemoryDescriptor> >::__construct_helper<MDMemoryDescriptor, MDMemoryDescriptor>::type>::value, void>::type std::allocator_traits<google_breakpad::PageStdAllocator<MDMemoryDescriptor> >::_S_construct<MDMemoryDescriptor, MDMemoryDescriptor>(google_breakpad::PageStdAllocator<MDMemoryDescriptor>&, MDMemoryDescriptor*, MDMemoryDescriptor&&)
FUNC 201c8 11 0 __gnu_cxx::new_allocator<unsigned char>::max_size() const
FUNC 201da 4c 0 google_breakpad::PageStdAllocator<unsigned char>::allocate(unsigned long, void const*)
FUNC 20226 39 0 bool std::operator==<unsigned char*>(std::move_iterator<unsigned char*> const&, std::move_iterator<unsigned char*> const&)
FUNC 2025f 39 0 std::enable_if<std::__and_<std::allocator_traits<google_breakpad::PageStdAllocator<unsigned char> >::__construct_helper<unsigned char, unsigned char>::type>::value, void>::type std::allocator_traits<google_breakpad::PageStdAllocator<unsigned char> >::_S_construct<unsigned char, unsigned char>(google_breakpad::PageStdAllocator<unsigned char>&, unsigned char*, unsigned char&&)
FUNC 20298 e 0 unsigned char* std::__niter_base<unsigned char*>(unsigned char*)
FUNC 202a6 31 0 unsigned char* std::__copy_move_backward_a<true, unsigned char*, unsigned char*>(unsigned char*, unsigned char*, unsigned char*)
FUNC 202d7 e 0 unsigned char const* std::__niter_base<unsigned char const*>(unsigned char const*)
FUNC 202e5 1d 0 unsigned char* std::__niter_base<unsigned char*, std::vector<unsigned char, google_breakpad::PageStdAllocator<unsigned char> > >(__gnu_cxx::__normal_iterator<unsigned char*, std::vector<unsigned char, google_breakpad::PageStdAllocator<unsigned char> > >)
FUNC 20302 31 0 unsigned char* std::__copy_move_a<false, unsigned char const*, unsigned char*>(unsigned char const*, unsigned char const*, unsigned char*)
FUNC 20333 39 0 std::enable_if<std::__and_<std::allocator_traits<google_breakpad::PageStdAllocator<unsigned char> >::__construct_helper<unsigned char, unsigned char const&>::type>::value, void>::type std::allocator_traits<google_breakpad::PageStdAllocator<unsigned char> >::_S_construct<unsigned char, unsigned char const&>(google_breakpad::PageStdAllocator<unsigned char>&, unsigned char*, unsigned char const&)
FUNC 2036c 11 0 __gnu_cxx::new_allocator<char>::max_size() const
FUNC 2037d 39 0 bool std::operator==<char*>(std::move_iterator<char*> const&, std::move_iterator<char*> const&)
FUNC 203b6 39 0 std::enable_if<std::__and_<std::allocator_traits<google_breakpad::PageStdAllocator<char> >::__construct_helper<char, char>::type>::value, void>::type std::allocator_traits<google_breakpad::PageStdAllocator<char> >::_S_construct<char, char>(google_breakpad::PageStdAllocator<char>&, char*, char&&)
FUNC 203f0 2c 0 void __gnu_cxx::new_allocator<char>::construct<char>(char*)
FUNC 2041c 11 0 std::move_iterator<MDMemoryDescriptor*>::base() const
FUNC 2042e 53 0 void __gnu_cxx::new_allocator<MDMemoryDescriptor>::construct<MDMemoryDescriptor, MDMemoryDescriptor>(MDMemoryDescriptor*, MDMemoryDescriptor&&)
FUNC 20482 11 0 std::move_iterator<unsigned char*>::base() const
FUNC 20494 44 0 void __gnu_cxx::new_allocator<unsigned char>::construct<unsigned char, unsigned char>(unsigned char*, unsigned char&&)
FUNC 204d8 64 0 unsigned char* std::__copy_move_backward<true, true, std::random_access_iterator_tag>::__copy_move_b<unsigned char>(unsigned char const*, unsigned char const*, unsigned char*)
FUNC 2053c 51 0 unsigned char* std::__copy_move<false, true, std::random_access_iterator_tag>::__copy_m<unsigned char>(unsigned char const*, unsigned char const*, unsigned char*)
FUNC 2058e 44 0 void __gnu_cxx::new_allocator<unsigned char>::construct<unsigned char, unsigned char const&>(unsigned char*, unsigned char const&)
FUNC 205d2 11 0 std::move_iterator<char*>::base() const
FUNC 205e4 44 0 void __gnu_cxx::new_allocator<char>::construct<char, char>(char*, char&&)
FUNC 20628 2d 0 google_breakpad::LinuxPtraceDumper::~LinuxPtraceDumper()
FUNC 20656 2b 0 google_breakpad::LinuxPtraceDumper::~LinuxPtraceDumper()
FUNC 20682 49 0 sys_close
FUNC 206cb 3d 0 sys_getpid
FUNC 20708 53 0 sys_munmap
FUNC 2075b 5a 0 sys_open
FUNC 207b5 59 0 sys_read
FUNC 2080e 56 0 sys_stat
FUNC 20864 8e 0 sys_mmap
FUNC 208f2 2f 0 IsMappedFileOpenUnsafe
FUNC 20921 36 0 MappingContainsAddress
FUNC 20958 1a1 0 google_breakpad::LinuxDumper::LinuxDumper(int, char const*)
FUNC 20afa 65 0 google_breakpad::LinuxDumper::~LinuxDumper()
FUNC 20b60 2b 0 google_breakpad::LinuxDumper::~LinuxDumper()
FUNC 20b8c 60 0 google_breakpad::LinuxDumper::Init()
FUNC 20bec f 0 google_breakpad::LinuxDumper::LateInit()
FUNC 20bfc 2e1 0 google_breakpad::LinuxDumper::ElfFileIdentifierForMapping(google_breakpad::MappingInfo const&, bool, unsigned int, google_breakpad::wasteful_vector<unsigned char>&)
FUNC 20ede 56 0 google_breakpad::LinuxDumper::SetCrashInfoFromSigInfo(siginfo_t const&)
FUNC 20f34 2a7 0 google_breakpad::LinuxDumper::GetCrashSignalString() const
FUNC 211dc 6a 0 google_breakpad::LinuxDumper::GetMappingAbsolutePath(google_breakpad::MappingInfo const&, char*) const
FUNC 21246 16f 0 ElfFileSoNameFromMappedFile
FUNC 213b5 141 0 ElfFileSoName
FUNC 214f6 124 0 google_breakpad::LinuxDumper::GetMappingEffectiveNameAndPath(google_breakpad::MappingInfo const&, char*, unsigned long, char*, unsigned long)
FUNC 2161a 110 0 google_breakpad::LinuxDumper::ReadAuxv()
FUNC 2172a 5b6 0 google_breakpad::LinuxDumper::EnumerateMappings()
FUNC 21ce0 aa 0 google_breakpad::LinuxDumper::GetStackInfo(void const**, unsigned long*, unsigned long)
FUNC 21d8a 3a8 0 google_breakpad::LinuxDumper::SanitizeStackCopy(unsigned char*, unsigned long, unsigned long, unsigned long)
FUNC 22132 98 0 google_breakpad::LinuxDumper::StackHasPointerToMapping(unsigned char const*, unsigned long, unsigned long, google_breakpad::MappingInfo const&)
FUNC 221ca e6 0 google_breakpad::LinuxDumper::FindMapping(void const*) const
FUNC 222b0 c7 0 google_breakpad::LinuxDumper::FindMappingNoBias(unsigned long) const
FUNC 22378 232 0 google_breakpad::LinuxDumper::HandleDeletedFileInMapping(char*) const
FUNC 225aa 18 0 google_breakpad::LinuxDumper::set_crash_signal_code(int)
FUNC 225c2 11 0 google_breakpad::MemoryRange::data() const
FUNC 225d4 12 0 google_breakpad::MemoryRange::length() const
FUNC 225e6 1a 0 google_breakpad::MemoryMappedFile::data() const
FUNC 22600 1a 0 google_breakpad::MemoryMappedFile::size() const
FUNC 2261a 1b 0 google_breakpad::wasteful_vector<int>::~wasteful_vector()
FUNC 22636 1b 0 google_breakpad::wasteful_vector<google_breakpad::MappingInfo*>::~wasteful_vector()
FUNC 22652 1b 0 google_breakpad::wasteful_vector<unsigned long>::~wasteful_vector()
FUNC 2266e 1b 0 google_breakpad::PageStdAllocator<int>::~PageStdAllocator()
FUNC 2268a 7b 0 google_breakpad::wasteful_vector<int>::wasteful_vector(google_breakpad::PageAllocator*, unsigned int)
FUNC 22706 45 0 std::vector<int, google_breakpad::PageStdAllocator<int> >::~vector()
FUNC 2274c 1b 0 google_breakpad::PageStdAllocator<google_breakpad::MappingInfo*>::~PageStdAllocator()
FUNC 22768 7b 0 google_breakpad::wasteful_vector<google_breakpad::MappingInfo*>::wasteful_vector(google_breakpad::PageAllocator*, unsigned int)
FUNC 227e4 45 0 std::vector<google_breakpad::MappingInfo*, google_breakpad::PageStdAllocator<google_breakpad::MappingInfo*> >::~vector()
FUNC 2282a 1b 0 google_breakpad::PageStdAllocator<unsigned long>::~PageStdAllocator()
FUNC 22846 7b 0 google_breakpad::wasteful_vector<unsigned long>::wasteful_vector(google_breakpad::PageAllocator*, unsigned int)
FUNC 228c2 45 0 std::vector<unsigned long, google_breakpad::PageStdAllocator<unsigned long> >::~vector()
FUNC 22908 8d 0 std::vector<unsigned long, google_breakpad::PageStdAllocator<unsigned long> >::resize(unsigned long)
FUNC 22996 21 0 std::vector<google_breakpad::MappingInfo*, google_breakpad::PageStdAllocator<google_breakpad::MappingInfo*> >::operator[](unsigned long)
FUNC 229b8 21 0 std::vector<unsigned long, google_breakpad::PageStdAllocator<unsigned long> >::operator[](unsigned long)
FUNC 229da 41 0 std::vector<google_breakpad::MappingInfo*, google_breakpad::PageStdAllocator<google_breakpad::MappingInfo*> >::empty() const
FUNC 22a1c 3f 0 std::vector<google_breakpad::MappingInfo*, google_breakpad::PageStdAllocator<google_breakpad::MappingInfo*> >::back()
FUNC 22a5b e 0 google_breakpad::MappingInfo* const& std::forward<google_breakpad::MappingInfo* const&>(std::remove_reference<google_breakpad::MappingInfo* const&>::type&)
FUNC 22a6a 6c 0 std::vector<google_breakpad::MappingInfo*, google_breakpad::PageStdAllocator<google_breakpad::MappingInfo*> >::push_back(google_breakpad::MappingInfo* const&)
FUNC 22ad6 2a 0 bool google_breakpad::SafeReadLink<255ul>(char const*, char (&) [255ul])
FUNC 22b00 42 0 google_breakpad::PageStdAllocator<int>::PageStdAllocator(google_breakpad::PageAllocator&)
FUNC 22b42 1b 0 std::allocator<int>::~allocator()
FUNC 22b5e 26 0 std::vector<int, google_breakpad::PageStdAllocator<int> >::vector(google_breakpad::PageStdAllocator<int> const&)
FUNC 22b84 147 0 std::vector<int, google_breakpad::PageStdAllocator<int> >::reserve(unsigned long)
FUNC 22ccc 1b 0 std::_Vector_base<int, google_breakpad::PageStdAllocator<int> >::_Vector_impl::~_Vector_impl()
FUNC 22ce8 52 0 std::_Vector_base<int, google_breakpad::PageStdAllocator<int> >::~_Vector_base()
FUNC 22d3a e 0 std::_Vector_base<int, google_breakpad::PageStdAllocator<int> >::_M_get_Tp_allocator()
FUNC 22d48 46 0 void std::_Destroy<int*, google_breakpad::PageStdAllocator<int> >(int*, int*, google_breakpad::PageStdAllocator<int>&)
FUNC 22d8e 42 0 google_breakpad::PageStdAllocator<google_breakpad::MappingInfo*>::PageStdAllocator(google_breakpad::PageAllocator&)
FUNC 22dd0 1b 0 std::allocator<google_breakpad::MappingInfo*>::~allocator()
FUNC 22dec 26 0 std::vector<google_breakpad::MappingInfo*, google_breakpad::PageStdAllocator<google_breakpad::MappingInfo*> >::vector(google_breakpad::PageStdAllocator<google_breakpad::MappingInfo*> const&)
FUNC 22e12 147 0 std::vector<google_breakpad::MappingInfo*, google_breakpad::PageStdAllocator<google_breakpad::MappingInfo*> >::reserve(unsigned long)
FUNC 22f5a 1b 0 std::_Vector_base<google_breakpad::MappingInfo*, google_breakpad::PageStdAllocator<google_breakpad::MappingInfo*> >::_Vector_impl::~_Vector_impl()
FUNC 22f76 52 0 std::_Vector_base<google_breakpad::MappingInfo*, google_breakpad::PageStdAllocator<google_breakpad::MappingInfo*> >::~_Vector_base()
FUNC 22fc8 e 0 std::_Vector_base<google_breakpad::MappingInfo*, google_breakpad::PageStdAllocator<google_breakpad::MappingInfo*> >::_M_get_Tp_allocator()
FUNC 22fd6 46 0 void std::_Destroy<google_breakpad::MappingInfo**, google_breakpad::PageStdAllocator<google_breakpad::MappingInfo*> >(google_breakpad::MappingInfo**, google_breakpad::MappingInfo**, google_breakpad::PageStdAllocator<google_breakpad::MappingInfo*>&)
FUNC 2301c 42 0 google_breakpad::PageStdAllocator<unsigned long>::PageStdAllocator(google_breakpad::PageAllocator&)
FUNC 2305e 1b 0 std::allocator<unsigned long>::~allocator()
FUNC 2307a 26 0 std::vector<unsigned long, google_breakpad::PageStdAllocator<unsigned long> >::vector(google_breakpad::PageStdAllocator<unsigned long> const&)
FUNC 230a0 147 0 std::vector<unsigned long, google_breakpad::PageStdAllocator<unsigned long> >::reserve(unsigned long)
FUNC 231e8 1b 0 std::_Vector_base<unsigned long, google_breakpad::PageStdAllocator<unsigned long> >::_Vector_impl::~_Vector_impl()
FUNC 23204 52 0 std::_Vector_base<unsigned long, google_breakpad::PageStdAllocator<unsigned long> >::~_Vector_base()
FUNC 23256 e 0 std::_Vector_base<unsigned long, google_breakpad::PageStdAllocator<unsigned long> >::_M_get_Tp_allocator()
FUNC 23264 46 0 void std::_Destroy<unsigned long*, google_breakpad::PageStdAllocator<unsigned long> >(unsigned long*, unsigned long*, google_breakpad::PageStdAllocator<unsigned long>&)
FUNC 232aa 27 0 std::vector<unsigned long, google_breakpad::PageStdAllocator<unsigned long> >::size() const
FUNC 232d2 20e 0 std::vector<unsigned long, google_breakpad::PageStdAllocator<unsigned long> >::_M_default_append(unsigned long)
FUNC 234e0 45 0 std::vector<unsigned long, google_breakpad::PageStdAllocator<unsigned long> >::_M_erase_at_end(unsigned long*)
FUNC 23526 31 0 std::vector<google_breakpad::MappingInfo*, google_breakpad::PageStdAllocator<google_breakpad::MappingInfo*> >::begin() const
FUNC 23558 31 0 std::vector<google_breakpad::MappingInfo*, google_breakpad::PageStdAllocator<google_breakpad::MappingInfo*> >::end() const
FUNC 23589 3c 0 bool __gnu_cxx::operator==<google_breakpad::MappingInfo* const*, std::vector<google_breakpad::MappingInfo*, google_breakpad::PageStdAllocator<google_breakpad::MappingInfo*> > >(__gnu_cxx::__normal_iterator<google_breakpad::MappingInfo* const*, std::vector<google_breakpad::MappingInfo*, google_breakpad::PageStdAllocator<google_breakpad::MappingInfo*> > > const&, __gnu_cxx::__normal_iterator<google_breakpad::MappingInfo* const*, std::vector<google_breakpad::MappingInfo*, google_breakpad::PageStdAllocator<google_breakpad::MappingInfo*> > > const&)
FUNC 235c6 29 0 std::vector<google_breakpad::MappingInfo*, google_breakpad::PageStdAllocator<google_breakpad::MappingInfo*> >::end()
FUNC 235f0 42 0 __gnu_cxx::__normal_iterator<google_breakpad::MappingInfo**, std::vector<google_breakpad::MappingInfo*, google_breakpad::PageStdAllocator<google_breakpad::MappingInfo*> > >::operator-(long) const
FUNC 23632 11 0 __gnu_cxx::__normal_iterator<google_breakpad::MappingInfo**, std::vector<google_breakpad::MappingInfo*, google_breakpad::PageStdAllocator<google_breakpad::MappingInfo*> > >::operator*() const
FUNC 23643 39 0 decltype (_S_construct({parm#1}, {parm#2}, (forward<google_breakpad::MappingInfo* const&>)({parm#3}))) std::allocator_traits<google_breakpad::PageStdAllocator<google_breakpad::MappingInfo*> >::construct<google_breakpad::MappingInfo*, google_breakpad::MappingInfo* const&>(google_breakpad::PageStdAllocator<google_breakpad::MappingInfo*>&, google_breakpad::MappingInfo**, google_breakpad::MappingInfo* const&)
FUNC 2367c 1f1 0 void std::vector<google_breakpad::MappingInfo*, google_breakpad::PageStdAllocator<google_breakpad::MappingInfo*> >::_M_emplace_back_aux<google_breakpad::MappingInfo* const&>(google_breakpad::MappingInfo* const&)
FUNC 2386e 1b 0 std::allocator<int>::allocator()
FUNC 2388a b 0 __gnu_cxx::new_allocator<int>::~new_allocator()
FUNC 23896 26 0 std::_Vector_base<int, google_breakpad::PageStdAllocator<int> >::_Vector_base(google_breakpad::PageStdAllocator<int> const&)
FUNC 238bc 22 0 std::vector<int, google_breakpad::PageStdAllocator<int> >::max_size() const
FUNC 238de 27 0 std::vector<int, google_breakpad::PageStdAllocator<int> >::capacity() const
FUNC 23905 25 0 std::move_iterator<int*> std::__make_move_if_noexcept_iterator<int, std::move_iterator<int*> >(int*)
FUNC 2392a 97 0 int* std::vector<int, google_breakpad::PageStdAllocator<int> >::_M_allocate_and_copy<std::move_iterator<int*> >(unsigned long, std::move_iterator<int*>, std::move_iterator<int*>)
FUNC 239c2 35 0 std::_Vector_base<int, google_breakpad::PageStdAllocator<int> >::_M_deallocate(int*, unsigned long)
FUNC 239f7 e 0 int* std::__addressof<int>(int&)
FUNC 23a05 2b 0 void std::allocator_traits<google_breakpad::PageStdAllocator<int> >::destroy<int>(google_breakpad::PageStdAllocator<int>&, int*)
FUNC 23a30 1b 0 std::allocator<google_breakpad::MappingInfo*>::allocator()
FUNC 23a4c b 0 __gnu_cxx::new_allocator<google_breakpad::MappingInfo*>::~new_allocator()
FUNC 23a58 26 0 std::_Vector_base<google_breakpad::MappingInfo*, google_breakpad::PageStdAllocator<google_breakpad::MappingInfo*> >::_Vector_base(google_breakpad::PageStdAllocator<google_breakpad::MappingInfo*> const&)
FUNC 23a7e 22 0 std::vector<google_breakpad::MappingInfo*, google_breakpad::PageStdAllocator<google_breakpad::MappingInfo*> >::max_size() const
FUNC 23aa0 27 0 std::vector<google_breakpad::MappingInfo*, google_breakpad::PageStdAllocator<google_breakpad::MappingInfo*> >::capacity() const
FUNC 23ac7 25 0 std::move_iterator<google_breakpad::MappingInfo**> std::__make_move_if_noexcept_iterator<google_breakpad::MappingInfo*, std::move_iterator<google_breakpad::MappingInfo**> >(google_breakpad::MappingInfo**)
FUNC 23aec 97 0 google_breakpad::MappingInfo** std::vector<google_breakpad::MappingInfo*, google_breakpad::PageStdAllocator<google_breakpad::MappingInfo*> >::_M_allocate_and_copy<std::move_iterator<google_breakpad::MappingInfo**> >(unsigned long, std::move_iterator<google_breakpad::MappingInfo**>, std::move_iterator<google_breakpad::MappingInfo**>)
FUNC 23b84 35 0 std::_Vector_base<google_breakpad::MappingInfo*, google_breakpad::PageStdAllocator<google_breakpad::MappingInfo*> >::_M_deallocate(google_breakpad::MappingInfo**, unsigned long)
FUNC 23bb9 e 0 google_breakpad::MappingInfo** std::__addressof<google_breakpad::MappingInfo*>(google_breakpad::MappingInfo*&)
FUNC 23bc7 2b 0 void std::allocator_traits<google_breakpad::PageStdAllocator<google_breakpad::MappingInfo*> >::destroy<google_breakpad::MappingInfo*>(google_breakpad::PageStdAllocator<google_breakpad::MappingInfo*>&, google_breakpad::MappingInfo**)
FUNC 23bf2 1b 0 std::allocator<unsigned long>::allocator()
FUNC 23c0e b 0 __gnu_cxx::new_allocator<unsigned long>::~new_allocator()
FUNC 23c1a 26 0 std::_Vector_base<unsigned long, google_breakpad::PageStdAllocator<unsigned long> >::_Vector_base(google_breakpad::PageStdAllocator<unsigned long> const&)
FUNC 23c40 22 0 std::vector<unsigned long, google_breakpad::PageStdAllocator<unsigned long> >::max_size() const
FUNC 23c62 27 0 std::vector<unsigned long, google_breakpad::PageStdAllocator<unsigned long> >::capacity() const
FUNC 23c89 25 0 std::move_iterator<unsigned long*> std::__make_move_if_noexcept_iterator<unsigned long, std::move_iterator<unsigned long*> >(unsigned long*)
FUNC 23cae 97 0 unsigned long* std::vector<unsigned long, google_breakpad::PageStdAllocator<unsigned long> >::_M_allocate_and_copy<std::move_iterator<unsigned long*> >(unsigned long, std::move_iterator<unsigned long*>, std::move_iterator<unsigned long*>)
FUNC 23d46 35 0 std::_Vector_base<unsigned long, google_breakpad::PageStdAllocator<unsigned long> >::_M_deallocate(unsigned long*, unsigned long)
FUNC 23d7b e 0 unsigned long* std::__addressof<unsigned long>(unsigned long&)
FUNC 23d89 2b 0 void std::allocator_traits<google_breakpad::PageStdAllocator<unsigned long> >::destroy<unsigned long>(google_breakpad::PageStdAllocator<unsigned long>&, unsigned long*)
FUNC 23db4 92 0 unsigned long* std::__uninitialized_default_n_a<unsigned long*, unsigned long, google_breakpad::PageStdAllocator<unsigned long> >(unsigned long*, unsigned long, google_breakpad::PageStdAllocator<unsigned long>&)
FUNC 23e46 c9 0 std::vector<unsigned long, google_breakpad::PageStdAllocator<unsigned long> >::_M_check_len(unsigned long, char const*) const
FUNC 23f10 33 0 std::_Vector_base<unsigned long, google_breakpad::PageStdAllocator<unsigned long> >::_M_allocate(unsigned long)
FUNC 23f43 54 0 unsigned long* std::__uninitialized_move_if_noexcept_a<unsigned long*, unsigned long*, google_breakpad::PageStdAllocator<unsigned long> >(unsigned long*, unsigned long*, unsigned long*, google_breakpad::PageStdAllocator<unsigned long>&)
FUNC 23f98 1d 0 __gnu_cxx::__normal_iterator<google_breakpad::MappingInfo* const*, std::vector<google_breakpad::MappingInfo*, google_breakpad::PageStdAllocator<google_breakpad::MappingInfo*> > >::__normal_iterator(google_breakpad::MappingInfo* const* const&)
FUNC 23fb6 e 0 __gnu_cxx::__normal_iterator<google_breakpad::MappingInfo* const*, std::vector<google_breakpad::MappingInfo*, google_breakpad::PageStdAllocator<google_breakpad::MappingInfo*> > >::base() const
FUNC 23fc4 1d 0 __gnu_cxx::__normal_iterator<google_breakpad::MappingInfo**, std::vector<google_breakpad::MappingInfo*, google_breakpad::PageStdAllocator<google_breakpad::MappingInfo*> > >::__normal_iterator(google_breakpad::MappingInfo** const&)
FUNC 23fe1 39 0 std::enable_if<std::__and_<std::allocator_traits<google_breakpad::PageStdAllocator<google_breakpad::MappingInfo*> >::__construct_helper<google_breakpad::MappingInfo*, google_breakpad::MappingInfo* const&>::type>::value, void>::type std::allocator_traits<google_breakpad::PageStdAllocator<google_breakpad::MappingInfo*> >::_S_construct<google_breakpad::MappingInfo*, google_breakpad::MappingInfo* const&>(google_breakpad::PageStdAllocator<google_breakpad::MappingInfo*>&, google_breakpad::MappingInfo**, google_breakpad::MappingInfo* const&)
FUNC 2401a c9 0 std::vector<google_breakpad::MappingInfo*, google_breakpad::PageStdAllocator<google_breakpad::MappingInfo*> >::_M_check_len(unsigned long, char const*) const
FUNC 240e4 33 0 std::_Vector_base<google_breakpad::MappingInfo*, google_breakpad::PageStdAllocator<google_breakpad::MappingInfo*> >::_M_allocate(unsigned long)
FUNC 24117 54 0 google_breakpad::MappingInfo** std::__uninitialized_move_if_noexcept_a<google_breakpad::MappingInfo**, google_breakpad::MappingInfo**, google_breakpad::PageStdAllocator<google_breakpad::MappingInfo*> >(google_breakpad::MappingInfo**, google_breakpad::MappingInfo**, google_breakpad::MappingInfo**, google_breakpad::PageStdAllocator<google_breakpad::MappingInfo*>&)
FUNC 2416c b 0 __gnu_cxx::new_allocator<int>::new_allocator()
FUNC 24178 54 0 google_breakpad::PageStdAllocator<int>::PageStdAllocator(google_breakpad::PageStdAllocator<int> const&)
FUNC 241cc 4a 0 std::_Vector_base<int, google_breakpad::PageStdAllocator<int> >::_Vector_impl::_Vector_impl(google_breakpad::PageStdAllocator<int> const&)
FUNC 24216 1f 0 std::allocator_traits<google_breakpad::PageStdAllocator<int> >::max_size(google_breakpad::PageStdAllocator<int> const&)
FUNC 24236 e 0 std::_Vector_base<int, google_breakpad::PageStdAllocator<int> >::_M_get_Tp_allocator() const
FUNC 24244 1a 0 std::move_iterator<int*>::move_iterator(int*)
FUNC 2425e 33 0 std::_Vector_base<int, google_breakpad::PageStdAllocator<int> >::_M_allocate(unsigned long)
FUNC 24291 e 0 int&& std::forward<int>(std::remove_reference<int>::type&)
FUNC 2429f bf 0 int* std::__uninitialized_copy_a<std::move_iterator<int*>, int*, google_breakpad::PageStdAllocator<int> >(std::move_iterator<int*>, std::move_iterator<int*>, int*, google_breakpad::PageStdAllocator<int>&)
FUNC 2435e 2e 0 std::allocator_traits<google_breakpad::PageStdAllocator<int> >::deallocate(google_breakpad::PageStdAllocator<int>&, int*, unsigned long)
FUNC 2438c 29 0 decltype (({parm#1}.destroy)({parm#2})) std::allocator_traits<google_breakpad::PageStdAllocator<int> >::_S_destroy<google_breakpad::PageStdAllocator<int>, int>(google_breakpad::PageStdAllocator<int>&, int*, int)
FUNC 243b6 b 0 __gnu_cxx::new_allocator<google_breakpad::MappingInfo*>::new_allocator()
FUNC 243c2 54 0 google_breakpad::PageStdAllocator<google_breakpad::MappingInfo*>::PageStdAllocator(google_breakpad::PageStdAllocator<google_breakpad::MappingInfo*> const&)
FUNC 24416 4a 0 std::_Vector_base<google_breakpad::MappingInfo*, google_breakpad::PageStdAllocator<google_breakpad::MappingInfo*> >::_Vector_impl::_Vector_impl(google_breakpad::PageStdAllocator<google_breakpad::MappingInfo*> const&)
FUNC 24460 1f 0 std::allocator_traits<google_breakpad::PageStdAllocator<google_breakpad::MappingInfo*> >::max_size(google_breakpad::PageStdAllocator<google_breakpad::MappingInfo*> const&)
FUNC 24480 e 0 std::_Vector_base<google_breakpad::MappingInfo*, google_breakpad::PageStdAllocator<google_breakpad::MappingInfo*> >::_M_get_Tp_allocator() const
FUNC 2448e 1a 0 std::move_iterator<google_breakpad::MappingInfo**>::move_iterator(google_breakpad::MappingInfo**)
FUNC 244a8 e 0 google_breakpad::MappingInfo*&& std::forward<google_breakpad::MappingInfo*>(std::remove_reference<google_breakpad::MappingInfo*>::type&)
FUNC 244b6 bf 0 google_breakpad::MappingInfo** std::__uninitialized_copy_a<std::move_iterator<google_breakpad::MappingInfo**>, google_breakpad::MappingInfo**, google_breakpad::PageStdAllocator<google_breakpad::MappingInfo*> >(std::move_iterator<google_breakpad::MappingInfo**>, std::move_iterator<google_breakpad::MappingInfo**>, google_breakpad::MappingInfo**, google_breakpad::PageStdAllocator<google_breakpad::MappingInfo*>&)
FUNC 24575 2e 0 std::allocator_traits<google_breakpad::PageStdAllocator<google_breakpad::MappingInfo*> >::deallocate(google_breakpad::PageStdAllocator<google_breakpad::MappingInfo*>&, google_breakpad::MappingInfo**, unsigned long)
FUNC 245a3 29 0 decltype (({parm#1}.destroy)({parm#2})) std::allocator_traits<google_breakpad::PageStdAllocator<google_breakpad::MappingInfo*> >::_S_destroy<google_breakpad::PageStdAllocator<google_breakpad::MappingInfo*>, google_breakpad::MappingInfo*>(google_breakpad::PageStdAllocator<google_breakpad::MappingInfo*>&, google_breakpad::MappingInfo**, int)
FUNC 245cc b 0 __gnu_cxx::new_allocator<unsigned long>::new_allocator()
FUNC 245d8 54 0 google_breakpad::PageStdAllocator<unsigned long>::PageStdAllocator(google_breakpad::PageStdAllocator<unsigned long> const&)
FUNC 2462c 4a 0 std::_Vector_base<unsigned long, google_breakpad::PageStdAllocator<unsigned long> >::_Vector_impl::_Vector_impl(google_breakpad::PageStdAllocator<unsigned long> const&)
FUNC 24676 1f 0 std::allocator_traits<google_breakpad::PageStdAllocator<unsigned long> >::max_size(google_breakpad::PageStdAllocator<unsigned long> const&)
FUNC 24696 e 0 std::_Vector_base<unsigned long, google_breakpad::PageStdAllocator<unsigned long> >::_M_get_Tp_allocator() const
FUNC 246a4 1a 0 std::move_iterator<unsigned long*>::move_iterator(unsigned long*)
FUNC 246be e 0 unsigned long&& std::forward<unsigned long>(std::remove_reference<unsigned long>::type&)
FUNC 246cc bf 0 unsigned long* std::__uninitialized_copy_a<std::move_iterator<unsigned long*>, unsigned long*, google_breakpad::PageStdAllocator<unsigned long> >(std::move_iterator<unsigned long*>, std::move_iterator<unsigned long*>, unsigned long*, google_breakpad::PageStdAllocator<unsigned long>&)
FUNC 2478b 2e 0 std::allocator_traits<google_breakpad::PageStdAllocator<unsigned long> >::deallocate(google_breakpad::PageStdAllocator<unsigned long>&, unsigned long*, unsigned long)
FUNC 247b9 29 0 decltype (({parm#1}.destroy)({parm#2})) std::allocator_traits<google_breakpad::PageStdAllocator<unsigned long> >::_S_destroy<google_breakpad::PageStdAllocator<unsigned long>, unsigned long>(google_breakpad::PageStdAllocator<unsigned long>&, unsigned long*, int)
FUNC 247e2 26 0 decltype (_S_construct({parm#1}, {parm#2})) std::allocator_traits<google_breakpad::PageStdAllocator<unsigned long> >::construct<unsigned long>(google_breakpad::PageStdAllocator<unsigned long>&, unsigned long*)
FUNC 24808 2a 0 std::allocator_traits<google_breakpad::PageStdAllocator<unsigned long> >::allocate(google_breakpad::PageStdAllocator<unsigned long>&, unsigned long)
FUNC 24832 45 0 void __gnu_cxx::new_allocator<google_breakpad::MappingInfo*>::construct<google_breakpad::MappingInfo*, google_breakpad::MappingInfo* const&>(google_breakpad::MappingInfo**, google_breakpad::MappingInfo* const&)
FUNC 24877 2a 0 std::allocator_traits<google_breakpad::PageStdAllocator<google_breakpad::MappingInfo*> >::allocate(google_breakpad::PageStdAllocator<google_breakpad::MappingInfo*>&, unsigned long)
FUNC 248a2 26 0 std::allocator<int>::allocator(std::allocator<int> const&)
FUNC 248c8 1d 0 decltype (({parm#1}.max_size)()) std::allocator_traits<google_breakpad::PageStdAllocator<int> >::_S_max_size<google_breakpad::PageStdAllocator<int> const>(google_breakpad::PageStdAllocator<int> const&, int)
FUNC 248e5 2a 0 std::allocator_traits<google_breakpad::PageStdAllocator<int> >::allocate(google_breakpad::PageStdAllocator<int>&, unsigned long)
FUNC 2490f 28 0 bool std::operator!=<int*>(std::move_iterator<int*> const&, std::move_iterator<int*> const&)
FUNC 24938 20 0 std::move_iterator<int*>::operator++()
FUNC 24958 11 0 std::move_iterator<int*>::operator*() const
FUNC 24969 39 0 decltype (_S_construct({parm#1}, {parm#2}, (forward<int>)({parm#3}))) std::allocator_traits<google_breakpad::PageStdAllocator<int> >::construct<int, int>(google_breakpad::PageStdAllocator<int>&, int*, int&&)
FUNC 249a2 13 0 google_breakpad::PageStdAllocator<int>::deallocate(int*, unsigned long)
FUNC 249b6 f 0 void __gnu_cxx::new_allocator<int>::destroy<int>(int*)
FUNC 249c6 26 0 std::allocator<google_breakpad::MappingInfo*>::allocator(std::allocator<google_breakpad::MappingInfo*> const&)
FUNC 249ec 1d 0 decltype (({parm#1}.max_size)()) std::allocator_traits<google_breakpad::PageStdAllocator<google_breakpad::MappingInfo*> >::_S_max_size<google_breakpad::PageStdAllocator<google_breakpad::MappingInfo*> const>(google_breakpad::PageStdAllocator<google_breakpad::MappingInfo*> const&, int)
FUNC 24a09 28 0 bool std::operator!=<google_breakpad::MappingInfo**>(std::move_iterator<google_breakpad::MappingInfo**> const&, std::move_iterator<google_breakpad::MappingInfo**> const&)
FUNC 24a32 20 0 std::move_iterator<google_breakpad::MappingInfo**>::operator++()
FUNC 24a52 11 0 std::move_iterator<google_breakpad::MappingInfo**>::operator*() const
FUNC 24a63 39 0 decltype (_S_construct({parm#1}, {parm#2}, (forward<google_breakpad::MappingInfo*>)({parm#3}))) std::allocator_traits<google_breakpad::PageStdAllocator<google_breakpad::MappingInfo*> >::construct<google_breakpad::MappingInfo*, google_breakpad::MappingInfo*>(google_breakpad::PageStdAllocator<google_breakpad::MappingInfo*>&, google_breakpad::MappingInfo**, google_breakpad::MappingInfo*&&)
FUNC 24a9c 13 0 google_breakpad::PageStdAllocator<google_breakpad::MappingInfo*>::deallocate(google_breakpad::MappingInfo**, unsigned long)
FUNC 24ab0 f 0 void __gnu_cxx::new_allocator<google_breakpad::MappingInfo*>::destroy<google_breakpad::MappingInfo*>(google_breakpad::MappingInfo**)
FUNC 24ac0 26 0 std::allocator<unsigned long>::allocator(std::allocator<unsigned long> const&)
FUNC 24ae6 1d 0 decltype (({parm#1}.max_size)()) std::allocator_traits<google_breakpad::PageStdAllocator<unsigned long> >::_S_max_size<google_breakpad::PageStdAllocator<unsigned long> const>(google_breakpad::PageStdAllocator<unsigned long> const&, int)
FUNC 24b03 28 0 bool std::operator!=<unsigned long*>(std::move_iterator<unsigned long*> const&, std::move_iterator<unsigned long*> const&)
FUNC 24b2c 20 0 std::move_iterator<unsigned long*>::operator++()
FUNC 24b4c 11 0 std::move_iterator<unsigned long*>::operator*() const
FUNC 24b5d 39 0 decltype (_S_construct({parm#1}, {parm#2}, (forward<unsigned long>)({parm#3}))) std::allocator_traits<google_breakpad::PageStdAllocator<unsigned long> >::construct<unsigned long, unsigned long>(google_breakpad::PageStdAllocator<unsigned long>&, unsigned long*, unsigned long&&)
FUNC 24b96 13 0 google_breakpad::PageStdAllocator<unsigned long>::deallocate(unsigned long*, unsigned long)
FUNC 24baa f 0 void __gnu_cxx::new_allocator<unsigned long>::destroy<unsigned long>(unsigned long*)
FUNC 24bb9 26 0 std::enable_if<std::__and_<std::allocator_traits<google_breakpad::PageStdAllocator<unsigned long> >::__construct_helper<unsigned long>::type>::value, void>::type std::allocator_traits<google_breakpad::PageStdAllocator<unsigned long> >::_S_construct<unsigned long>(google_breakpad::PageStdAllocator<unsigned long>&, unsigned long*)
FUNC 24be0 50 0 google_breakpad::PageStdAllocator<unsigned long>::allocate(unsigned long, void const*)
FUNC 24c30 50 0 google_breakpad::PageStdAllocator<google_breakpad::MappingInfo*>::allocate(unsigned long, void const*)
FUNC 24c80 f 0 __gnu_cxx::new_allocator<int>::new_allocator(__gnu_cxx::new_allocator<int> const&)
FUNC 24c90 14 0 __gnu_cxx::new_allocator<int>::max_size() const
FUNC 24ca4 50 0 google_breakpad::PageStdAllocator<int>::allocate(unsigned long, void const*)
FUNC 24cf4 39 0 bool std::operator==<int*>(std::move_iterator<int*> const&, std::move_iterator<int*> const&)
FUNC 24d2d 39 0 std::enable_if<std::__and_<std::allocator_traits<google_breakpad::PageStdAllocator<int> >::__construct_helper<int, int>::type>::value, void>::type std::allocator_traits<google_breakpad::PageStdAllocator<int> >::_S_construct<int, int>(google_breakpad::PageStdAllocator<int>&, int*, int&&)
FUNC 24d66 f 0 __gnu_cxx::new_allocator<google_breakpad::MappingInfo*>::new_allocator(__gnu_cxx::new_allocator<google_breakpad::MappingInfo*> const&)
FUNC 24d76 14 0 __gnu_cxx::new_allocator<google_breakpad::MappingInfo*>::max_size() const
FUNC 24d8a 39 0 bool std::operator==<google_breakpad::MappingInfo**>(std::move_iterator<google_breakpad::MappingInfo**> const&, std::move_iterator<google_breakpad::MappingInfo**> const&)
FUNC 24dc3 39 0 std::enable_if<std::__and_<std::allocator_traits<google_breakpad::PageStdAllocator<google_breakpad::MappingInfo*> >::__construct_helper<google_breakpad::MappingInfo*, google_breakpad::MappingInfo*>::type>::value, void>::type std::allocator_traits<google_breakpad::PageStdAllocator<google_breakpad::MappingInfo*> >::_S_construct<google_breakpad::MappingInfo*, google_breakpad::MappingInfo*>(google_breakpad::PageStdAllocator<google_breakpad::MappingInfo*>&, google_breakpad::MappingInfo**, google_breakpad::MappingInfo*&&)
FUNC 24dfc f 0 __gnu_cxx::new_allocator<unsigned long>::new_allocator(__gnu_cxx::new_allocator<unsigned long> const&)
FUNC 24e0c 14 0 __gnu_cxx::new_allocator<unsigned long>::max_size() const
FUNC 24e20 39 0 bool std::operator==<unsigned long*>(std::move_iterator<unsigned long*> const&, std::move_iterator<unsigned long*> const&)
FUNC 24e59 39 0 std::enable_if<std::__and_<std::allocator_traits<google_breakpad::PageStdAllocator<unsigned long> >::__construct_helper<unsigned long, unsigned long>::type>::value, void>::type std::allocator_traits<google_breakpad::PageStdAllocator<unsigned long> >::_S_construct<unsigned long, unsigned long>(google_breakpad::PageStdAllocator<unsigned long>&, unsigned long*, unsigned long&&)
FUNC 24e92 30 0 void __gnu_cxx::new_allocator<unsigned long>::construct<unsigned long>(unsigned long*)
FUNC 24ec2 11 0 std::move_iterator<int*>::base() const
FUNC 24ed4 43 0 void __gnu_cxx::new_allocator<int>::construct<int, int>(int*, int&&)
FUNC 24f18 11 0 std::move_iterator<google_breakpad::MappingInfo**>::base() const
FUNC 24f2a 45 0 void __gnu_cxx::new_allocator<google_breakpad::MappingInfo*>::construct<google_breakpad::MappingInfo*, google_breakpad::MappingInfo*>(google_breakpad::MappingInfo**, google_breakpad::MappingInfo*&&)
FUNC 24f70 11 0 std::move_iterator<unsigned long*>::base() const
FUNC 24f82 45 0 void __gnu_cxx::new_allocator<unsigned long>::construct<unsigned long, unsigned long>(unsigned long*, unsigned long&&)
FUNC 24fc8 49 0 sys_close
FUNC 25011 5a 0 sys_getdents
FUNC 2506b 5a 0 sys_open
FUNC 250c5 68 0 sys_ptrace
FUNC 2512d 59 0 sys_read
FUNC 25186 68 0 sys_wait4
FUNC 251ee 8e 0 sys_mmap
FUNC 2527c 2a 0 sys_waitpid
FUNC 252a6 119 0 SuspendThread
FUNC 253bf 2d 0 ResumeThread
FUNC 253ec 47 0 google_breakpad::LinuxPtraceDumper::LinuxPtraceDumper(int)
FUNC 25434 106 0 google_breakpad::LinuxPtraceDumper::BuildProcPath(char*, int, char const*) const
FUNC 2553a c9 0 google_breakpad::LinuxPtraceDumper::CopyFromProcess(void*, int, void const*, unsigned long)
FUNC 25604 aa 0 google_breakpad::LinuxPtraceDumper::ReadRegisterSet(google_breakpad::ThreadInfo*, int)
FUNC 256ae a4 0 google_breakpad::LinuxPtraceDumper::ReadRegisters(google_breakpad::ThreadInfo*, int)
FUNC 25752 332 0 google_breakpad::LinuxPtraceDumper::GetThreadInfoByIndex(unsigned long, google_breakpad::ThreadInfo*)
FUNC 25a84 f 0 google_breakpad::LinuxPtraceDumper::IsPostMortem() const
FUNC 25a94 158 0 google_breakpad::LinuxPtraceDumper::ThreadsSuspend()
FUNC 25bec 95 0 google_breakpad::LinuxPtraceDumper::ThreadsResume()
FUNC 25c82 1a9 0 google_breakpad::LinuxPtraceDumper::EnumerateThreads()
FUNC 25e2c 22 0 google_breakpad::DirectoryReader::DirectoryReader(int)
FUNC 25e4e d1 0 google_breakpad::DirectoryReader::GetNextEntry(char const**)
FUNC 25f20 79 0 google_breakpad::DirectoryReader::PopEntry()
FUNC 25f9a 21 0 std::vector<int, google_breakpad::PageStdAllocator<int> >::operator[](unsigned long)
FUNC 25fbc 8d 0 std::vector<int, google_breakpad::PageStdAllocator<int> >::resize(unsigned long)
FUNC 26049 e 0 int const& std::forward<int const&>(std::remove_reference<int const&>::type&)
FUNC 26058 6c 0 std::vector<int, google_breakpad::PageStdAllocator<int> >::push_back(int const&)
FUNC 260c4 20e 0 std::vector<int, google_breakpad::PageStdAllocator<int> >::_M_default_append(unsigned long)
FUNC 262d2 45 0 std::vector<int, google_breakpad::PageStdAllocator<int> >::_M_erase_at_end(int*)
FUNC 26317 39 0 decltype (_S_construct({parm#1}, {parm#2}, (forward<int const&>)({parm#3}))) std::allocator_traits<google_breakpad::PageStdAllocator<int> >::construct<int, int const&>(google_breakpad::PageStdAllocator<int>&, int*, int const&)
FUNC 26350 1f1 0 void std::vector<int, google_breakpad::PageStdAllocator<int> >::_M_emplace_back_aux<int const&>(int const&)
FUNC 26541 92 0 int* std::__uninitialized_default_n_a<int*, unsigned long, google_breakpad::PageStdAllocator<int> >(int*, unsigned long, google_breakpad::PageStdAllocator<int>&)
FUNC 265d4 c9 0 std::vector<int, google_breakpad::PageStdAllocator<int> >::_M_check_len(unsigned long, char const*) const
FUNC 2669d 54 0 int* std::__uninitialized_move_if_noexcept_a<int*, int*, google_breakpad::PageStdAllocator<int> >(int*, int*, int*, google_breakpad::PageStdAllocator<int>&)
FUNC 266f1 39 0 std::enable_if<std::__and_<std::allocator_traits<google_breakpad::PageStdAllocator<int> >::__construct_helper<int, int const&>::type>::value, void>::type std::allocator_traits<google_breakpad::PageStdAllocator<int> >::_S_construct<int, int const&>(google_breakpad::PageStdAllocator<int>&, int*, int const&)
FUNC 2672a 26 0 decltype (_S_construct({parm#1}, {parm#2})) std::allocator_traits<google_breakpad::PageStdAllocator<int> >::construct<int>(google_breakpad::PageStdAllocator<int>&, int*)
FUNC 26750 43 0 void __gnu_cxx::new_allocator<int>::construct<int, int const&>(int*, int const&)
FUNC 26793 26 0 std::enable_if<std::__and_<std::allocator_traits<google_breakpad::PageStdAllocator<int> >::__construct_helper<int>::type>::value, void>::type std::allocator_traits<google_breakpad::PageStdAllocator<int> >::_S_construct<int>(google_breakpad::PageStdAllocator<int>&, int*)
FUNC 267ba 2f 0 void __gnu_cxx::new_allocator<int>::construct<int>(int*)
FUNC 267e9 59 0 sys_write
FUNC 26842 27 0 logger::write(char const*, unsigned long)
FUNC 2686a 49 0 sys_close
FUNC 268b3 5a 0 sys_lseek
FUNC 2690d 5a 0 sys_open
FUNC 26967 59 0 sys_write
FUNC 269c0 34 0 google_breakpad::MinidumpFileWriter::MinidumpFileWriter()
FUNC 269f4 27 0 google_breakpad::MinidumpFileWriter::~MinidumpFileWriter()
FUNC 26a1c 66 0 google_breakpad::MinidumpFileWriter::Open(char const*)
FUNC 26a82 4d 0 google_breakpad::MinidumpFileWriter::SetFile(int)
FUNC 26ad0 69 0 google_breakpad::MinidumpFileWriter::Close()
FUNC 26b3a b3 0 google_breakpad::MinidumpFileWriter::CopyStringToMDString(wchar_t const*, unsigned int, google_breakpad::TypedMDRVA<MDString>*)
FUNC 26bee ba 0 google_breakpad::MinidumpFileWriter::CopyStringToMDString(char const*, unsigned int, google_breakpad::TypedMDRVA<MDString>*)
FUNC 26ca8 30 0 google_breakpad::MinidumpFileWriter::WriteString(wchar_t const*, unsigned int, MDLocationDescriptor*)
FUNC 26cd8 30 0 google_breakpad::MinidumpFileWriter::WriteString(char const*, unsigned int, MDLocationDescriptor*)
FUNC 26d08 f8 0 google_breakpad::MinidumpFileWriter::WriteMemory(void const*, unsigned long, MDMemoryDescriptor*)
FUNC 26e00 11a 0 google_breakpad::MinidumpFileWriter::Allocate(unsigned long)
FUNC 26f1a 114 0 google_breakpad::MinidumpFileWriter::Copy(unsigned int, void const*, long)
FUNC 2702e 7a 0 google_breakpad::UntypedMDRVA::Allocate(unsigned long)
FUNC 270a8 c8 0 google_breakpad::UntypedMDRVA::Copy(unsigned int, void const*, unsigned long)
FUNC 27170 12 0 google_breakpad::UntypedMDRVA::size() const
FUNC 27182 b 0 google_breakpad::minidump_size<MDString>::size()
FUNC 2718e 12 0 google_breakpad::TypedMDRVA<MDString>::get()
FUNC 271a0 84 0 google_breakpad::TypedMDRVA<MDString>::CopyIndexAfterObject(unsigned int, void const*, unsigned long)
FUNC 27224 180 0 bool google_breakpad::MinidumpFileWriter::WriteStringCore<wchar_t>(wchar_t const*, unsigned int, MDLocationDescriptor*)
FUNC 273a4 17d 0 bool google_breakpad::MinidumpFileWriter::WriteStringCore<char>(char const*, unsigned int, MDLocationDescriptor*)
FUNC 27522 46 0 google_breakpad::TypedMDRVA<MDString>::TypedMDRVA(google_breakpad::MinidumpFileWriter*)
FUNC 27568 27 0 google_breakpad::TypedMDRVA<MDString>::~TypedMDRVA()
FUNC 27590 71 0 google_breakpad::TypedMDRVA<MDString>::AllocateObjectAndArray(unsigned long, unsigned long)
FUNC 27602 34 0 google_breakpad::TypedMDRVA<MDString>::Flush()
FUNC 27636 35 0 my_strlen
FUNC 2766b 5e 0 my_strcmp
FUNC 276c9 7e 0 my_strncmp
FUNC 27747 99 0 my_strtoui
FUNC 277e0 4b 0 my_uint_len
FUNC 2782b 82 0 my_uitos
FUNC 278ad 44 0 my_strchr
FUNC 278f1 41 0 my_strrchr
FUNC 27932 53 0 my_memchr
FUNC 27985 bd 0 my_read_hex_ptr
FUNC 27a42 6a 0 my_read_decimal_ptr
FUNC 27aac 46 0 my_memset
FUNC 27af2 82 0 my_strlcpy
FUNC 27b74 80 0 my_strlcat
FUNC 27bf4 4f 0 my_isspace
FUNC 27c44 53 0 sys_munmap
FUNC 27c97 8e 0 sys_mmap
FUNC 27d26 63 0 google_breakpad::FileID::FileID(char const*)
FUNC 27d89 100 0 google_breakpad::ElfClassBuildIDNoteIdentifier
FUNC 27e89 1b0 0 google_breakpad::FindElfBuildIDNote
FUNC 28039 116 0 google_breakpad::HashElfTextSection
FUNC 28150 43 0 google_breakpad::FileID::ElfFileIdentifierFromMappedFile(void const*, google_breakpad::wasteful_vector<unsigned char>&)
FUNC 28194 a2 0 google_breakpad::FileID::ElfFileIdentifier(google_breakpad::wasteful_vector<unsigned char>&)
FUNC 28236 9f 0 google_breakpad::bytes_to_hex_string
FUNC 282d6 f9 0 google_breakpad::FileID::ConvertIdentifierToUUIDString[abi:cxx11](google_breakpad::wasteful_vector<unsigned char> const&)
FUNC 283d0 51 0 google_breakpad::FileID::ConvertIdentifierToString[abi:cxx11](google_breakpad::wasteful_vector<unsigned char> const&)
FUNC 28422 1b 0 google_breakpad::wasteful_vector<google_breakpad::ElfSegment>::~wasteful_vector()
FUNC 2843e 1b 0 google_breakpad::auto_wasteful_vector<google_breakpad::ElfSegment, 2u>::~auto_wasteful_vector()
FUNC 2845a 1b 0 google_breakpad::PageStdAllocator<google_breakpad::ElfSegment>::~PageStdAllocator()
FUNC 28476 81 0 google_breakpad::auto_wasteful_vector<google_breakpad::ElfSegment, 2u>::auto_wasteful_vector(google_breakpad::PageAllocator*)
FUNC 284f8 45 0 std::vector<google_breakpad::ElfSegment, google_breakpad::PageStdAllocator<google_breakpad::ElfSegment> >::~vector()
FUNC 2853e 29 0 std::vector<google_breakpad::ElfSegment, google_breakpad::PageStdAllocator<google_breakpad::ElfSegment> >::begin()
FUNC 28568 29 0 std::vector<google_breakpad::ElfSegment, google_breakpad::PageStdAllocator<google_breakpad::ElfSegment> >::end()
FUNC 28591 3c 0 bool __gnu_cxx::operator!=<google_breakpad::ElfSegment*, std::vector<google_breakpad::ElfSegment, google_breakpad::PageStdAllocator<google_breakpad::ElfSegment> > >(__gnu_cxx::__normal_iterator<google_breakpad::ElfSegment*, std::vector<google_breakpad::ElfSegment, google_breakpad::PageStdAllocator<google_breakpad::ElfSegment> > > const&, __gnu_cxx::__normal_iterator<google_breakpad::ElfSegment*, std::vector<google_breakpad::ElfSegment, google_breakpad::PageStdAllocator<google_breakpad::ElfSegment> > > const&)
FUNC 285ce 20 0 __gnu_cxx::__normal_iterator<google_breakpad::ElfSegment*, std::vector<google_breakpad::ElfSegment, google_breakpad::PageStdAllocator<google_breakpad::ElfSegment> > >::operator++()
FUNC 285ee 11 0 __gnu_cxx::__normal_iterator<google_breakpad::ElfSegment*, std::vector<google_breakpad::ElfSegment, google_breakpad::PageStdAllocator<google_breakpad::ElfSegment> > >::operator*() const
FUNC 28600 89 0 std::vector<unsigned char, google_breakpad::PageStdAllocator<unsigned char> >::resize(unsigned long)
FUNC 2868a 1d 0 std::vector<unsigned char, google_breakpad::PageStdAllocator<unsigned char> >::operator[](unsigned long) const
FUNC 286a8 4a 0 google_breakpad::PageStdAllocator<google_breakpad::ElfSegment>::PageStdAllocator(google_breakpad::PageAllocator&, google_breakpad::ElfSegment*, unsigned long)
FUNC 286f2 1b 0 std::allocator<google_breakpad::ElfSegment>::~allocator()
FUNC 2870e 26 0 std::allocator<google_breakpad::ElfSegment>::allocator(std::allocator<google_breakpad::ElfSegment> const&)
FUNC 28734 26 0 google_breakpad::wasteful_vector<google_breakpad::ElfSegment>::wasteful_vector(google_breakpad::PageStdAllocator<google_breakpad::ElfSegment>)
FUNC 2875a 146 0 std::vector<google_breakpad::ElfSegment, google_breakpad::PageStdAllocator<google_breakpad::ElfSegment> >::reserve(unsigned long)
FUNC 288a0 1b 0 std::_Vector_base<google_breakpad::ElfSegment, google_breakpad::PageStdAllocator<google_breakpad::ElfSegment> >::_Vector_impl::~_Vector_impl()
FUNC 288bc 52 0 std::_Vector_base<google_breakpad::ElfSegment, google_breakpad::PageStdAllocator<google_breakpad::ElfSegment> >::~_Vector_base()
FUNC 2890e e 0 std::_Vector_base<google_breakpad::ElfSegment, google_breakpad::PageStdAllocator<google_breakpad::ElfSegment> >::_M_get_Tp_allocator()
FUNC 2891c 46 0 void std::_Destroy<google_breakpad::ElfSegment*, google_breakpad::PageStdAllocator<google_breakpad::ElfSegment> >(google_breakpad::ElfSegment*, google_breakpad::ElfSegment*, google_breakpad::PageStdAllocator<google_breakpad::ElfSegment>&)
FUNC 28962 1d 0 __gnu_cxx::__normal_iterator<google_breakpad::ElfSegment*, std::vector<google_breakpad::ElfSegment, google_breakpad::PageStdAllocator<google_breakpad::ElfSegment> > >::__normal_iterator(google_breakpad::ElfSegment* const&)
FUNC 28980 e 0 __gnu_cxx::__normal_iterator<google_breakpad::ElfSegment*, std::vector<google_breakpad::ElfSegment, google_breakpad::PageStdAllocator<google_breakpad::ElfSegment> > >::base() const
FUNC 2898e 1fe 0 std::vector<unsigned char, google_breakpad::PageStdAllocator<unsigned char> >::_M_default_append(unsigned long)
FUNC 28b8c 45 0 std::vector<unsigned char, google_breakpad::PageStdAllocator<unsigned char> >::_M_erase_at_end(unsigned char*)
FUNC 28bd2 1b 0 std::allocator<google_breakpad::ElfSegment>::allocator()
FUNC 28bee b 0 __gnu_cxx::new_allocator<google_breakpad::ElfSegment>::~new_allocator()
FUNC 28bfa f 0 __gnu_cxx::new_allocator<google_breakpad::ElfSegment>::new_allocator(__gnu_cxx::new_allocator<google_breakpad::ElfSegment> const&)
FUNC 28c0a 26 0 std::vector<google_breakpad::ElfSegment, google_breakpad::PageStdAllocator<google_breakpad::ElfSegment> >::vector(google_breakpad::PageStdAllocator<google_breakpad::ElfSegment> const&)
FUNC 28c30 22 0 std::vector<google_breakpad::ElfSegment, google_breakpad::PageStdAllocator<google_breakpad::ElfSegment> >::max_size() const
FUNC 28c52 27 0 std::vector<google_breakpad::ElfSegment, google_breakpad::PageStdAllocator<google_breakpad::ElfSegment> >::capacity() const
FUNC 28c7a 27 0 std::vector<google_breakpad::ElfSegment, google_breakpad::PageStdAllocator<google_breakpad::ElfSegment> >::size() const
FUNC 28ca1 25 0 std::move_iterator<google_breakpad::ElfSegment*> std::__make_move_if_noexcept_iterator<google_breakpad::ElfSegment, std::move_iterator<google_breakpad::ElfSegment*> >(google_breakpad::ElfSegment*)
FUNC 28cc6 97 0 google_breakpad::ElfSegment* std::vector<google_breakpad::ElfSegment, google_breakpad::PageStdAllocator<google_breakpad::ElfSegment> >::_M_allocate_and_copy<std::move_iterator<google_breakpad::ElfSegment*> >(unsigned long, std::move_iterator<google_breakpad::ElfSegment*>, std::move_iterator<google_breakpad::ElfSegment*>)
FUNC 28d5e 35 0 std::_Vector_base<google_breakpad::ElfSegment, google_breakpad::PageStdAllocator<google_breakpad::ElfSegment> >::_M_deallocate(google_breakpad::ElfSegment*, unsigned long)
FUNC 28d93 e 0 google_breakpad::ElfSegment* std::__addressof<google_breakpad::ElfSegment>(google_breakpad::ElfSegment&)
FUNC 28da1 2b 0 void std::allocator_traits<google_breakpad::PageStdAllocator<google_breakpad::ElfSegment> >::destroy<google_breakpad::ElfSegment>(google_breakpad::PageStdAllocator<google_breakpad::ElfSegment>&, google_breakpad::ElfSegment*)
FUNC 28dcc 92 0 unsigned char* std::__uninitialized_default_n_a<unsigned char*, unsigned long, google_breakpad::PageStdAllocator<unsigned char> >(unsigned char*, unsigned long, google_breakpad::PageStdAllocator<unsigned char>&)
FUNC 28e5e b 0 __gnu_cxx::new_allocator<google_breakpad::ElfSegment>::new_allocator()
FUNC 28e6a 26 0 std::_Vector_base<google_breakpad::ElfSegment, google_breakpad::PageStdAllocator<google_breakpad::ElfSegment> >::_Vector_base(google_breakpad::PageStdAllocator<google_breakpad::ElfSegment> const&)
FUNC 28e90 1f 0 std::allocator_traits<google_breakpad::PageStdAllocator<google_breakpad::ElfSegment> >::max_size(google_breakpad::PageStdAllocator<google_breakpad::ElfSegment> const&)
FUNC 28eb0 e 0 std::_Vector_base<google_breakpad::ElfSegment, google_breakpad::PageStdAllocator<google_breakpad::ElfSegment> >::_M_get_Tp_allocator() const
FUNC 28ebe 1a 0 std::move_iterator<google_breakpad::ElfSegment*>::move_iterator(google_breakpad::ElfSegment*)
FUNC 28ed8 33 0 std::_Vector_base<google_breakpad::ElfSegment, google_breakpad::PageStdAllocator<google_breakpad::ElfSegment> >::_M_allocate(unsigned long)
FUNC 28f0b e 0 google_breakpad::ElfSegment&& std::forward<google_breakpad::ElfSegment>(std::remove_reference<google_breakpad::ElfSegment>::type&)
FUNC 28f19 bf 0 google_breakpad::ElfSegment* std::__uninitialized_copy_a<std::move_iterator<google_breakpad::ElfSegment*>, google_breakpad::ElfSegment*, google_breakpad::PageStdAllocator<google_breakpad::ElfSegment> >(std::move_iterator<google_breakpad::ElfSegment*>, std::move_iterator<google_breakpad::ElfSegment*>, google_breakpad::ElfSegment*, google_breakpad::PageStdAllocator<google_breakpad::ElfSegment>&)
FUNC 28fd8 2e 0 std::allocator_traits<google_breakpad::PageStdAllocator<google_breakpad::ElfSegment> >::deallocate(google_breakpad::PageStdAllocator<google_breakpad::ElfSegment>&, google_breakpad::ElfSegment*, unsigned long)
FUNC 29006 29 0 decltype (({parm#1}.destroy)({parm#2})) std::allocator_traits<google_breakpad::PageStdAllocator<google_breakpad::ElfSegment> >::_S_destroy<google_breakpad::PageStdAllocator<google_breakpad::ElfSegment>, google_breakpad::ElfSegment>(google_breakpad::PageStdAllocator<google_breakpad::ElfSegment>&, google_breakpad::ElfSegment*, int)
FUNC 2902f 26 0 decltype (_S_construct({parm#1}, {parm#2})) std::allocator_traits<google_breakpad::PageStdAllocator<unsigned char> >::construct<unsigned char>(google_breakpad::PageStdAllocator<unsigned char>&, unsigned char*)
FUNC 29056 54 0 google_breakpad::PageStdAllocator<google_breakpad::ElfSegment>::PageStdAllocator(google_breakpad::PageStdAllocator<google_breakpad::ElfSegment> const&)
FUNC 290aa 4a 0 std::_Vector_base<google_breakpad::ElfSegment, google_breakpad::PageStdAllocator<google_breakpad::ElfSegment> >::_Vector_impl::_Vector_impl(google_breakpad::PageStdAllocator<google_breakpad::ElfSegment> const&)
FUNC 290f4 1d 0 decltype (({parm#1}.max_size)()) std::allocator_traits<google_breakpad::PageStdAllocator<google_breakpad::ElfSegment> >::_S_max_size<google_breakpad::PageStdAllocator<google_breakpad::ElfSegment> const>(google_breakpad::PageStdAllocator<google_breakpad::ElfSegment> const&, int)
FUNC 29111 2a 0 std::allocator_traits<google_breakpad::PageStdAllocator<google_breakpad::ElfSegment> >::allocate(google_breakpad::PageStdAllocator<google_breakpad::ElfSegment>&, unsigned long)
FUNC 2913b 28 0 bool std::operator!=<google_breakpad::ElfSegment*>(std::move_iterator<google_breakpad::ElfSegment*> const&, std::move_iterator<google_breakpad::ElfSegment*> const&)
FUNC 29164 20 0 std::move_iterator<google_breakpad::ElfSegment*>::operator++()
FUNC 29184 11 0 std::move_iterator<google_breakpad::ElfSegment*>::operator*() const
FUNC 29195 39 0 decltype (_S_construct({parm#1}, {parm#2}, (forward<google_breakpad::ElfSegment>)({parm#3}))) std::allocator_traits<google_breakpad::PageStdAllocator<google_breakpad::ElfSegment> >::construct<google_breakpad::ElfSegment, google_breakpad::ElfSegment>(google_breakpad::PageStdAllocator<google_breakpad::ElfSegment>&, google_breakpad::ElfSegment*, google_breakpad::ElfSegment&&)
FUNC 291ce 13 0 google_breakpad::PageStdAllocator<google_breakpad::ElfSegment>::deallocate(google_breakpad::ElfSegment*, unsigned long)
FUNC 291e2 f 0 void __gnu_cxx::new_allocator<google_breakpad::ElfSegment>::destroy<google_breakpad::ElfSegment>(google_breakpad::ElfSegment*)
FUNC 291f1 26 0 std::enable_if<std::__and_<std::allocator_traits<google_breakpad::PageStdAllocator<unsigned char> >::__construct_helper<unsigned char>::type>::value, void>::type std::allocator_traits<google_breakpad::PageStdAllocator<unsigned char> >::_S_construct<unsigned char>(google_breakpad::PageStdAllocator<unsigned char>&, unsigned char*)
FUNC 29218 14 0 __gnu_cxx::new_allocator<google_breakpad::ElfSegment>::max_size() const
FUNC 2922c 50 0 google_breakpad::PageStdAllocator<google_breakpad::ElfSegment>::allocate(unsigned long, void const*)
FUNC 2927c 39 0 bool std::operator==<google_breakpad::ElfSegment*>(std::move_iterator<google_breakpad::ElfSegment*> const&, std::move_iterator<google_breakpad::ElfSegment*> const&)
FUNC 292b5 39 0 std::enable_if<std::__and_<std::allocator_traits<google_breakpad::PageStdAllocator<google_breakpad::ElfSegment> >::__construct_helper<google_breakpad::ElfSegment, google_breakpad::ElfSegment>::type>::value, void>::type std::allocator_traits<google_breakpad::PageStdAllocator<google_breakpad::ElfSegment> >::_S_construct<google_breakpad::ElfSegment, google_breakpad::ElfSegment>(google_breakpad::PageStdAllocator<google_breakpad::ElfSegment>&, google_breakpad::ElfSegment*, google_breakpad::ElfSegment&&)
FUNC 292ee 2c 0 void __gnu_cxx::new_allocator<unsigned char>::construct<unsigned char>(unsigned char*)
FUNC 2931a 11 0 std::move_iterator<google_breakpad::ElfSegment*>::base() const
FUNC 2932c 53 0 void __gnu_cxx::new_allocator<google_breakpad::ElfSegment>::construct<google_breakpad::ElfSegment, google_breakpad::ElfSegment>(google_breakpad::ElfSegment*, google_breakpad::ElfSegment&&)
FUNC 29380 49 0 sys_close
FUNC 293c9 54 0 sys_fstat
FUNC 2941d 53 0 sys_munmap
FUNC 29470 5a 0 sys_open
FUNC 294ca 8e 0 sys_mmap
FUNC 29558 1b 0 google_breakpad::MemoryMappedFile::MemoryMappedFile()
FUNC 29574 3a 0 google_breakpad::MemoryMappedFile::MemoryMappedFile(char const*, unsigned long)
FUNC 295ae 1b 0 google_breakpad::MemoryMappedFile::~MemoryMappedFile()
FUNC 295ca 139 0 google_breakpad::MemoryMappedFile::Map(char const*, unsigned long)
FUNC 29704 67 0 google_breakpad::MemoryMappedFile::Unmap()
FUNC 2976c 22 0 google_breakpad::MemoryRange::MemoryRange()
FUNC 2978e 38 0 google_breakpad::MemoryRange::Set(void const*, unsigned long)
FUNC 297c6 5b 0 sys_readlink
FUNC 29821 5e 0 google_breakpad::SafeReadLink(char const*, char*, unsigned long)
FUNC 2987f 1a 0 CreateGUID(MDGUID*)
FUNC 29899 d2 0 GUIDToString(MDGUID const*, char*, int)
FUNC 2996b 4d 0 GUIDGenerator::BytesToUInt32(unsigned char const*)
FUNC 299b8 9f 0 GUIDGenerator::CreateGUID(MDGUID*)
FUNC 29a57 20 0 GUIDGenerator::InitOnce()
FUNC 29a77 27 0 GUIDGenerator::InitOnceImpl()
FUNC 29a9e 85 0 GUIDGenerator::CreateGUIDFromDevUrandom(MDGUID*)
FUNC 29b23 4b 0 GUIDGenerator::CreateGUIDFromRand(MDGUID*)
FUNC 29b6e 8e 0 sys_mmap
FUNC 29bfc 2b 0 google_breakpad::IsValidElf(void const*)
FUNC 29c27 1d 0 google_breakpad::ElfClass(void const*)
FUNC 29c44 14a 0 google_breakpad::FindElfSection(void const*, char const*, unsigned int, void const**, unsigned long*)
FUNC 29d8e df 0 google_breakpad::FindElfSegments(void const*, unsigned int, google_breakpad::wasteful_vector<google_breakpad::ElfSegment>*)
FUNC 29e6d 1db 0 FindElfClassSection<google_breakpad::ElfClass32>
FUNC 2a048 1d4 0 FindElfClassSection<google_breakpad::ElfClass64>
FUNC 2a21c 191 0 FindElfClassSegment<google_breakpad::ElfClass32>
FUNC 2a3ad 1b1 0 FindElfClassSegment<google_breakpad::ElfClass64>
FUNC 2a55e 17 0 Elf32_Shdr const* google_breakpad::GetOffset<google_breakpad::ElfClass32, Elf32_Shdr>(google_breakpad::ElfClass32::Ehdr const*, google_breakpad::ElfClass32::Off)
FUNC 2a575 17 0 char const* google_breakpad::GetOffset<google_breakpad::ElfClass32, char>(google_breakpad::ElfClass32::Ehdr const*, google_breakpad::ElfClass32::Off)
FUNC 2a58c 184 0 google_breakpad::ElfClass32::Shdr const* google_breakpad::FindElfSectionByName<google_breakpad::ElfClass32>(char const*, google_breakpad::ElfClass32::Word, google_breakpad::ElfClass32::Shdr const*, char const*, char const*, int)
FUNC 2a710 19 0 Elf64_Shdr const* google_breakpad::GetOffset<google_breakpad::ElfClass64, Elf64_Shdr>(google_breakpad::ElfClass64::Ehdr const*, google_breakpad::ElfClass64::Off)
FUNC 2a729 19 0 char const* google_breakpad::GetOffset<google_breakpad::ElfClass64, char>(google_breakpad::ElfClass64::Ehdr const*, google_breakpad::ElfClass64::Off)
FUNC 2a742 163 0 google_breakpad::ElfClass64::Shdr const* google_breakpad::FindElfSectionByName<google_breakpad::ElfClass64>(char const*, google_breakpad::ElfClass64::Word, google_breakpad::ElfClass64::Shdr const*, char const*, char const*, int)
FUNC 2a8a5 17 0 Elf32_Phdr const* google_breakpad::GetOffset<google_breakpad::ElfClass32, Elf32_Phdr>(google_breakpad::ElfClass32::Ehdr const*, google_breakpad::ElfClass32::Off)
FUNC 2a8bc e 0 google_breakpad::ElfSegment const& std::forward<google_breakpad::ElfSegment const&>(std::remove_reference<google_breakpad::ElfSegment const&>::type&)
FUNC 2a8ca 6c 0 std::vector<google_breakpad::ElfSegment, google_breakpad::PageStdAllocator<google_breakpad::ElfSegment> >::push_back(google_breakpad::ElfSegment const&)
FUNC 2a936 19 0 Elf64_Phdr const* google_breakpad::GetOffset<google_breakpad::ElfClass64, Elf64_Phdr>(google_breakpad::ElfClass64::Ehdr const*, google_breakpad::ElfClass64::Off)
FUNC 2a94f 39 0 decltype (_S_construct({parm#1}, {parm#2}, (forward<google_breakpad::ElfSegment const&>)({parm#3}))) std::allocator_traits<google_breakpad::PageStdAllocator<google_breakpad::ElfSegment> >::construct<google_breakpad::ElfSegment, google_breakpad::ElfSegment const&>(google_breakpad::PageStdAllocator<google_breakpad::ElfSegment>&, google_breakpad::ElfSegment*, google_breakpad::ElfSegment const&)
FUNC 2a988 1ee 0 void std::vector<google_breakpad::ElfSegment, google_breakpad::PageStdAllocator<google_breakpad::ElfSegment> >::_M_emplace_back_aux<google_breakpad::ElfSegment const&>(google_breakpad::ElfSegment const&)
FUNC 2ab76 39 0 std::enable_if<std::__and_<std::allocator_traits<google_breakpad::PageStdAllocator<google_breakpad::ElfSegment> >::__construct_helper<google_breakpad::ElfSegment, google_breakpad::ElfSegment const&>::type>::value, void>::type std::allocator_traits<google_breakpad::PageStdAllocator<google_breakpad::ElfSegment> >::_S_construct<google_breakpad::ElfSegment, google_breakpad::ElfSegment const&>(google_breakpad::PageStdAllocator<google_breakpad::ElfSegment>&, google_breakpad::ElfSegment*, google_breakpad::ElfSegment const&)
FUNC 2abb0 c9 0 std::vector<google_breakpad::ElfSegment, google_breakpad::PageStdAllocator<google_breakpad::ElfSegment> >::_M_check_len(unsigned long, char const*) const
FUNC 2ac79 54 0 google_breakpad::ElfSegment* std::__uninitialized_move_if_noexcept_a<google_breakpad::ElfSegment*, google_breakpad::ElfSegment*, google_breakpad::PageStdAllocator<google_breakpad::ElfSegment> >(google_breakpad::ElfSegment*, google_breakpad::ElfSegment*, google_breakpad::ElfSegment*, google_breakpad::PageStdAllocator<google_breakpad::ElfSegment>&)
FUNC 2acce 53 0 void __gnu_cxx::new_allocator<google_breakpad::ElfSegment>::construct<google_breakpad::ElfSegment, google_breakpad::ElfSegment const&>(google_breakpad::ElfSegment*, google_breakpad::ElfSegment const&)
FUNC 2ad21 122 0 google_breakpad::UTF8ToUTF16(char const*, std::vector<unsigned short, std::allocator<unsigned short> >*)
FUNC 2ae43 b6 0 google_breakpad::UTF8ToUTF16Char(char const*, int, unsigned short*)
FUNC 2aef9 126 0 google_breakpad::UTF32ToUTF16(wchar_t const*, std::vector<unsigned short, std::allocator<unsigned short> >*)
FUNC 2b01f 8f 0 google_breakpad::UTF32ToUTF16Char(wchar_t, unsigned short*)
FUNC 2b0ae 1e 0 google_breakpad::Swap
FUNC 2b0cc 2c3 0 google_breakpad::UTF16ToUTF8[abi:cxx11](std::vector<unsigned short, std::allocator<unsigned short> > const&, bool)
FUNC 2b390 25 0 std::vector<unsigned short, std::allocator<unsigned short> >::clear()
FUNC 2b3b6 25 0 std::vector<unsigned short, std::allocator<unsigned short> >::begin()
FUNC 2b3dc 29 0 __gnu_cxx::__normal_iterator<unsigned short const*, std::vector<unsigned short, std::allocator<unsigned short> > >::__normal_iterator<unsigned short*>(__gnu_cxx::__normal_iterator<unsigned short*, __gnu_cxx::__enable_if<std::__are_same<unsigned short*, unsigned short*>::__value, std::vector<unsigned short, std::allocator<unsigned short> > >::__type> const&)
FUNC 2b406 9e 0 std::vector<unsigned short, std::allocator<unsigned short> >::insert(__gnu_cxx::__normal_iterator<unsigned short const*, std::vector<unsigned short, std::allocator<unsigned short> > >, unsigned long, unsigned short const&)
FUNC 2b4a4 1f 0 std::vector<unsigned short, std::allocator<unsigned short> >::operator[](unsigned long)
FUNC 2b4c4 25 0 std::vector<unsigned short, std::allocator<unsigned short> >::capacity() const
FUNC 2b4ea 8b 0 std::vector<unsigned short, std::allocator<unsigned short> >::resize(unsigned long)
FUNC 2b576 1f 0 std::vector<unsigned short, std::allocator<unsigned short> >::operator[](unsigned long) const
FUNC 2b596 1a 0 google_breakpad::scoped_array<unsigned short>::scoped_array(unsigned short*)
FUNC 2b5b0 2a 0 google_breakpad::scoped_array<unsigned short>::~scoped_array()
FUNC 2b5da 25 0 std::vector<unsigned short, std::allocator<unsigned short> >::size() const
FUNC 2b600 46 0 google_breakpad::scoped_array<unsigned short>::reset(unsigned short*)
FUNC 2b646 11 0 google_breakpad::scoped_array<unsigned short>::get() const
FUNC 2b658 30 0 std::vector<unsigned short, std::allocator<unsigned short> >::begin() const
FUNC 2b688 31 0 std::vector<unsigned short, std::allocator<unsigned short> >::end() const
FUNC 2b6b9 3c 0 bool __gnu_cxx::operator!=<unsigned short const*, std::vector<unsigned short, std::allocator<unsigned short> > >(__gnu_cxx::__normal_iterator<unsigned short const*, std::vector<unsigned short, std::allocator<unsigned short> > > const&, __gnu_cxx::__normal_iterator<unsigned short const*, std::vector<unsigned short, std::allocator<unsigned short> > > const&)
FUNC 2b6f6 20 0 __gnu_cxx::__normal_iterator<unsigned short const*, std::vector<unsigned short, std::allocator<unsigned short> > >::operator++()
FUNC 2b716 11 0 __gnu_cxx::__normal_iterator<unsigned short const*, std::vector<unsigned short, std::allocator<unsigned short> > >::operator*() const
FUNC 2b728 1a 0 google_breakpad::scoped_array<unsigned char>::scoped_array(unsigned char*)
FUNC 2b742 2a 0 google_breakpad::scoped_array<unsigned char>::~scoped_array()
FUNC 2b76c 11 0 google_breakpad::scoped_array<unsigned char>::get() const
FUNC 2b77e 45 0 std::vector<unsigned short, std::allocator<unsigned short> >::_M_erase_at_end(unsigned short*)
FUNC 2b7c4 1d 0 __gnu_cxx::__normal_iterator<unsigned short*, std::vector<unsigned short, std::allocator<unsigned short> > >::__normal_iterator(unsigned short* const&)
FUNC 2b7e2 e 0 __gnu_cxx::__normal_iterator<unsigned short*, std::vector<unsigned short, std::allocator<unsigned short> > >::base() const
FUNC 2b7f0 30 0 std::vector<unsigned short, std::allocator<unsigned short> >::cbegin() const
FUNC 2b820 42 0 __gnu_cxx::__normal_iterator<unsigned short const*, std::vector<unsigned short, std::allocator<unsigned short> > >::difference_type __gnu_cxx::operator-<unsigned short const*, std::vector<unsigned short, std::allocator<unsigned short> > >(__gnu_cxx::__normal_iterator<unsigned short const*, std::vector<unsigned short, std::allocator<unsigned short> > > const&, __gnu_cxx::__normal_iterator<unsigned short const*, std::vector<unsigned short, std::allocator<unsigned short> > > const&)
FUNC 2b862 46d 0 std::vector<unsigned short, std::allocator<unsigned short> >::_M_fill_insert(__gnu_cxx::__normal_iterator<unsigned short*, std::vector<unsigned short, std::allocator<unsigned short> > >, unsigned long, unsigned short const&)
FUNC 2bcd0 3e 0 __gnu_cxx::__normal_iterator<unsigned short*, std::vector<unsigned short, std::allocator<unsigned short> > >::operator+(long) const
FUNC 2bd0e 203 0 std::vector<unsigned short, std::allocator<unsigned short> >::_M_default_append(unsigned long)
FUNC 2bf12 1d 0 __gnu_cxx::__normal_iterator<unsigned short const*, std::vector<unsigned short, std::allocator<unsigned short> > >::__normal_iterator(unsigned short const* const&)
FUNC 2bf30 e 0 __gnu_cxx::__normal_iterator<unsigned short const*, std::vector<unsigned short, std::allocator<unsigned short> > >::base() const
FUNC 2bf3e e 0 std::_Vector_base<unsigned short, std::allocator<unsigned short> >::_M_get_Tp_allocator()
FUNC 2bf4c 2a 0 void std::_Destroy<unsigned short*, unsigned short>(unsigned short*, unsigned short*, std::allocator<unsigned short>&)
FUNC 2bf76 29 0 std::vector<unsigned short, std::allocator<unsigned short> >::end()
FUNC 2bf9f 42 0 __gnu_cxx::__normal_iterator<unsigned short*, std::vector<unsigned short, std::allocator<unsigned short> > >::difference_type __gnu_cxx::operator-<unsigned short*, std::vector<unsigned short, std::allocator<unsigned short> > >(__gnu_cxx::__normal_iterator<unsigned short*, std::vector<unsigned short, std::allocator<unsigned short> > > const&, __gnu_cxx::__normal_iterator<unsigned short*, std::vector<unsigned short, std::allocator<unsigned short> > > const&)
FUNC 2bfe1 54 0 unsigned short* std::__uninitialized_move_a<unsigned short*, unsigned short*, std::allocator<unsigned short> >(unsigned short*, unsigned short*, unsigned short*, std::allocator<unsigned short>&)
FUNC 2c035 4c 0 unsigned short* std::move_backward<unsigned short*, unsigned short*>(unsigned short*, unsigned short*, unsigned short*)
FUNC 2c081 4d 0 void std::fill<unsigned short*, unsigned short>(unsigned short*, unsigned short*, unsigned short const&)
FUNC 2c0ce 31 0 unsigned short* std::__uninitialized_fill_n_a<unsigned short*, unsigned long, unsigned short, unsigned short>(unsigned short*, unsigned long, unsigned short const&, std::allocator<unsigned short>&)
FUNC 2c100 c9 0 std::vector<unsigned short, std::allocator<unsigned short> >::_M_check_len(unsigned long, char const*) const
FUNC 2c1ca 33 0 std::_Vector_base<unsigned short, std::allocator<unsigned short> >::_M_allocate(unsigned long)
FUNC 2c1fd 54 0 unsigned short* std::__uninitialized_move_if_noexcept_a<unsigned short*, unsigned short*, std::allocator<unsigned short> >(unsigned short*, unsigned short*, unsigned short*, std::allocator<unsigned short>&)
FUNC 2c252 35 0 std::_Vector_base<unsigned short, std::allocator<unsigned short> >::_M_deallocate(unsigned short*, unsigned long)
FUNC 2c287 29 0 unsigned short* std::__uninitialized_default_n_a<unsigned short*, unsigned long, unsigned short>(unsigned short*, unsigned long, std::allocator<unsigned short>&)
FUNC 2c2b0 26 0 void std::_Destroy<unsigned short*>(unsigned short*, unsigned short*)
FUNC 2c2d6 25 0 std::move_iterator<unsigned short*> std::make_move_iterator<unsigned short*>(unsigned short*)
FUNC 2c2fb 31 0 unsigned short* std::__uninitialized_copy_a<std::move_iterator<unsigned short*>, unsigned short*, unsigned short>(std::move_iterator<unsigned short*>, std::move_iterator<unsigned short*>, unsigned short*, std::allocator<unsigned short>&)
FUNC 2c32c e 0 unsigned short* std::__miter_base<unsigned short*>(unsigned short*)
FUNC 2c33a 58 0 unsigned short* std::__copy_move_backward_a2<true, unsigned short*, unsigned short*>(unsigned short*, unsigned short*, unsigned short*)
FUNC 2c392 e 0 unsigned short* std::__niter_base<unsigned short*>(unsigned short*)
FUNC 2c3a0 3a 0 __gnu_cxx::__enable_if<std::__is_scalar<unsigned short>::__value, void>::__type std::__fill_a<unsigned short*, unsigned short>(unsigned short*, unsigned short*, unsigned short const&)
FUNC 2c3da 31 0 unsigned short* std::uninitialized_fill_n<unsigned short*, unsigned long, unsigned short>(unsigned short*, unsigned long, unsigned short const&)
FUNC 2c40c 22 0 std::vector<unsigned short, std::allocator<unsigned short> >::max_size() const
FUNC 2c42e 2a 0 std::allocator_traits<std::allocator<unsigned short> >::allocate(std::allocator<unsigned short>&, unsigned long)
FUNC 2c458 25 0 std::move_iterator<unsigned short*> std::__make_move_if_noexcept_iterator<unsigned short, std::move_iterator<unsigned short*> >(unsigned short*)
FUNC 2c47d 2e 0 std::allocator_traits<std::allocator<unsigned short> >::deallocate(std::allocator<unsigned short>&, unsigned short*, unsigned long)
FUNC 2c4ab 29 0 unsigned short* std::__uninitialized_default_n<unsigned short*, unsigned long>(unsigned short*, unsigned long)
FUNC 2c4d4 f 0 void std::_Destroy_aux<true>::__destroy<unsigned short*>(unsigned short*, unsigned short*)
FUNC 2c4e4 1a 0 std::move_iterator<unsigned short*>::move_iterator(unsigned short*)
FUNC 2c4fe 31 0 unsigned short* std::uninitialized_copy<std::move_iterator<unsigned short*>, unsigned short*>(std::move_iterator<unsigned short*>, std::move_iterator<unsigned short*>, unsigned short*)
FUNC 2c52f 31 0 unsigned short* std::__copy_move_backward_a<true, unsigned short*, unsigned short*>(unsigned short*, unsigned short*, unsigned short*)
FUNC 2c560 2d 0 unsigned short* std::__uninitialized_fill_n<true>::__uninit_fill_n<unsigned short*, unsigned long, unsigned short>(unsigned short*, unsigned long, unsigned short const&)
FUNC 2c58d 1a 0 std::allocator_traits<std::allocator<unsigned short> >::max_size(std::allocator<unsigned short> const&)
FUNC 2c5a8 e 0 std::_Vector_base<unsigned short, std::allocator<unsigned short> >::_M_get_Tp_allocator() const
FUNC 2c5b6 41 0 __gnu_cxx::new_allocator<unsigned short>::allocate(unsigned long, void const*)
FUNC 2c5f8 23 0 __gnu_cxx::new_allocator<unsigned short>::deallocate(unsigned short*, unsigned long)
FUNC 2c61b 2f 0 unsigned short* std::__uninitialized_default_n_1<true>::__uninit_default_n<unsigned short*, unsigned long>(unsigned short*, unsigned long)
FUNC 2c64a 2d 0 unsigned short* std::__uninitialized_copy<true>::__uninit_copy<std::move_iterator<unsigned short*>, unsigned short*>(std::move_iterator<unsigned short*>, std::move_iterator<unsigned short*>, unsigned short*)
FUNC 2c677 71 0 unsigned short* std::__copy_move_backward<true, true, std::random_access_iterator_tag>::__copy_move_b<unsigned short>(unsigned short const*, unsigned short const*, unsigned short*)
FUNC 2c6e8 38 0 unsigned short* std::fill_n<unsigned short*, unsigned long, unsigned short>(unsigned short*, unsigned long, unsigned short const&)
FUNC 2c720 14 0 __gnu_cxx::new_allocator<unsigned short>::max_size() const
FUNC 2c734 4c 0 unsigned short* std::copy<std::move_iterator<unsigned short*>, unsigned short*>(std::move_iterator<unsigned short*>, std::move_iterator<unsigned short*>, unsigned short*)
FUNC 2c780 47 0 __gnu_cxx::__enable_if<std::__is_scalar<unsigned short>::__value, unsigned short*>::__type std::__fill_n_a<unsigned short*, unsigned long, unsigned short>(unsigned short*, unsigned long, unsigned short const&)
FUNC 2c7c7 22 0 decltype (__miter_base(({parm#1}.base)())) std::__miter_base<unsigned short*>(std::move_iterator<unsigned short*>)
FUNC 2c7e9 58 0 unsigned short* std::__copy_move_a2<true, unsigned short*, unsigned short*>(unsigned short*, unsigned short*, unsigned short*)
FUNC 2c842 11 0 std::move_iterator<unsigned short*>::base() const
FUNC 2c853 31 0 unsigned short* std::__copy_move_a<true, unsigned short*, unsigned short*>(unsigned short*, unsigned short*, unsigned short*)
FUNC 2c884 5c 0 unsigned short* std::__copy_move<true, true, std::random_access_iterator_tag>::__copy_m<unsigned short>(unsigned short const*, unsigned short const*, unsigned short*)
FUNC 2c8e0 181 0 ConvertUTF32toUTF16
FUNC 2ca61 179 0 ConvertUTF16toUTF32
FUNC 2cbda 2a9 0 ConvertUTF16toUTF8
FUNC 2ce83 169 0 isLegalUTF8
FUNC 2cfec 5e 0 isLegalUTF8Sequence
FUNC 2d04a 2e9 0 ConvertUTF8toUTF16
FUNC 2d333 1fa 0 ConvertUTF32toUTF8
FUNC 2d52d 256 0 ConvertUTF8toUTF32
FUNC 2d784 15 0 google_breakpad::ThreadInfo::GetInstructionPointer() const
FUNC 2d79a 37e 0 google_breakpad::ThreadInfo::FillCPUContext(MDRawContextAMD64*) const
FUNC 2db18 6c 0 google_breakpad::ThreadInfo::GetGeneralPurposeRegisters(void**, unsigned long*)
FUNC 2db84 6f 0 google_breakpad::ThreadInfo::GetFloatingPointRegisters(void**, unsigned long*)
FUNC 2dbf4 15 0 google_breakpad::UContextReader::GetStackPointer(ucontext const*)
FUNC 2dc0a 15 0 google_breakpad::UContextReader::GetInstructionPointer(ucontext const*)
FUNC 2dc20 32a 0 google_breakpad::UContextReader::FillCPUContext(MDRawContextAMD64*, ucontext const*, _libc_fpstate const*)
FUNC 2df4a 8e 0 sys_mmap
FUNC 2dfd8 13b 0 MicrodumpWriter::MicrodumpWriter
FUNC 2e114 2e 0 MicrodumpWriter::~MicrodumpWriter
FUNC 2e142 ab 0 MicrodumpWriter::Init
FUNC 2e1ee cc 0 MicrodumpWriter::Dump
FUNC 2e2ba 42 0 MicrodumpWriter::LogLine
FUNC 2e2fc 2f 0 MicrodumpWriter::LogAppend
FUNC 2e32c 26 0 MicrodumpWriter::LogAppend
FUNC 2e352 55 0 MicrodumpWriter::LogAppend
FUNC 2e3a8 31 0 MicrodumpWriter::LogCommitLine
FUNC 2e3da 1ef 0 MicrodumpWriter::CaptureCrashingThreadStack
FUNC 2e5ca 67 0 MicrodumpWriter::DumpProductInformation
FUNC 2e632 67 0 MicrodumpWriter::DumpProcessType
FUNC 2e69a b8 0 MicrodumpWriter::DumpCrashReason
FUNC 2e752 1e7 0 MicrodumpWriter::DumpOSInformation
FUNC 2e93a 67 0 MicrodumpWriter::DumpGPUInformation
FUNC 2e9a2 1a9 0 MicrodumpWriter::DumpThreadStack
FUNC 2eb4c 98 0 MicrodumpWriter::DumpCPUState
FUNC 2ebe4 dd 0 MicrodumpWriter::HaveMappingInfo
FUNC 2ecc2 3bc 0 MicrodumpWriter::DumpModule
FUNC 2f07e 170 0 MicrodumpWriter::DumpMappings
FUNC 2f1ee 35 0 MicrodumpWriter::Alloc
FUNC 2f223 185 0 google_breakpad::WriteMicrodump(int, void const*, unsigned long, std::__cxx11::list<google_breakpad::MappingEntry, std::allocator<google_breakpad::MappingEntry> > const&, bool, unsigned long, bool, google_breakpad::MicrodumpExtraInfo const&)
FUNC 2f3a8 66 0 MicrodumpWriter::LogAppend<unsigned char>
FUNC 2f40e 60 0 MicrodumpWriter::LogAppend<int>
FUNC 2f46e 63 0 MicrodumpWriter::LogAppend<long unsigned int>
FUNC 2f4d2 60 0 MicrodumpWriter::LogAppend<unsigned int>
FUNC 2f532 6b 0 MicrodumpWriter::LogAppend<short unsigned int>
FUNC 2f59e 24 0 buggyFunc()
FUNC 2f5c2 115 0 isSingleInstanceRunning(QString)
FUNC 2f6d7 8c 0 startSingleInstanceServer(QString)
FUNC 2f7d8 1035 0 main
FUNC 3080e 41 0 QtPrivate::RefCount::ref()
FUNC 30850 29 0 QString::operator=(QString&&)
FUNC 3087a 25 0 QString::operator+=(QString const&)
FUNC 3089f 49 0 QString::fromUtf8(char const*, int)
FUNC 308e8 47 0 QString::QString(char const*)
FUNC 30930 1a 0 QString::QString(QStringDataPtr)
FUNC 3094a 14 0 QString::length() const
FUNC 3095e 1d 0 QString::constData() const
FUNC 3097c 30 0 QString::QString(QString const&)
FUNC 309ac 34 0 QString::~QString()
FUNC 309e0 97 0 operator+(QString const&, char const*)
FUNC 30a77 67 0 operator+(char const*, QString const&)
FUNC 30ade b 0 QtSharedPointer::ExternalRefCountData::~ExternalRefCountData()
FUNC 30aea 20 0 QtSharedPointer::ExternalRefCountData::destroy()
FUNC 30b0a 1b 0 QtSharedPointer::ExternalRefCountData::operator delete(void*)
FUNC 30b26 17 0 QFlags<QIODevice::OpenModeFlag>::QFlags(QIODevice::OpenModeFlag)
FUNC 30b3e 35 0 QDebug::maybeSpace()
FUNC 30b74 7d 0 QDebug::operator<<(char const*)
FUNC 30bf2 53 0 QDebug::operator<<(QString const&)
FUNC 30c46 17 0 QFlags<QLocalServer::SocketOption>::QFlags(QLocalServer::SocketOption)
FUNC 30c5e 61 0 CuteMessageLogger::CuteMessageLogger(Logger*, Logger::LogLevel, char const*, int, char const*)
FUNC 30cc0 21 0 std::exception::exception(std::exception const&)
FUNC 30ce2 46 0 AutomationStudio::setCoreApplication(QCoreApplication*)
FUNC 30d28 1a 0 QBasicAtomicInteger<int>::ref()
FUNC 30d42 26 0 void qSwap<QTypedArrayData<unsigned short>*>(QTypedArrayData<unsigned short>*&, QTypedArrayData<unsigned short>*&)
FUNC 30d68 1a 0 QTypedArrayData<unsigned short>::data()
FUNC 30d82 25 0 QTypedArrayData<unsigned short>::deallocate(QArrayData*)
FUNC 30da8 e 0 QStaticStringData<21>::data_ptr() const
FUNC 30db6 1b 0 QSharedPointer<AutomationStudio>::~QSharedPointer()
FUNC 30dd2 1a 0 QSharedPointer<AutomationStudio>::operator->() const
FUNC 30dec e 0 QStaticStringData<13>::data_ptr() const
FUNC 30dfa 1f 0 bool QAtomicOps<int>::ref<int>(std::atomic<int>&)
FUNC 30e19 e 0 std::remove_reference<QTypedArrayData<unsigned short>*&>::type&& std::move<QTypedArrayData<unsigned short>*&>(QTypedArrayData<unsigned short>*&)
FUNC 30e27 52 0 std::enable_if<std::__and_<std::is_move_constructible<QTypedArrayData<unsigned short>*>, std::is_move_assignable<QTypedArrayData<unsigned short>*> >::value, void>::type std::swap<QTypedArrayData<unsigned short>*>(QTypedArrayData<unsigned short>*&, QTypedArrayData<unsigned short>*&)
FUNC 30e7a 1f 0 QSharedPointer<AutomationStudio>::deref()
FUNC 30e9a 11 0 QSharedPointer<AutomationStudio>::data() const
FUNC 30eac 1a 0 std::__atomic_base<int>::operator++()
FUNC 30ec6 6d 0 QSharedPointer<AutomationStudio>::deref(QtSharedPointer::ExternalRefCountData*)
FUNC 30ff6 416 0 AutomationStudio::AutomationStudio(QQmlApplicationEngine*, QObject*)
FUNC 3140c 99 0 AutomationStudio::~AutomationStudio()
FUNC 314a6 2b 0 AutomationStudio::~AutomationStudio()
FUNC 314d2 77 0 AutomationStudio::create(int, char const* const*, QQmlApplicationEngine*, QObject*)
FUNC 3154a 119 0 AutomationStudio::solveImportPaths()
FUNC 31664 636 0 AutomationStudio::loadPlugins()
FUNC 31c9a 2a 0 AutomationStudio::loadQml(QUrl const&)
FUNC 31cc4 399 0 AutomationStudio::loadInternalPlugins()
FUNC 3205d e 0 std::move<AutomationStudio::AutomationStudio(QQmlApplicationEngine*, QObject*)::<lambda()>&>
FUNC 3206b bd 0 QObject::connect<void (Settings::*)(), AutomationStudio::AutomationStudio(QQmlApplicationEngine*, QObject*)::<lambda()> >
FUNC 32128 40 0 QtPrivate::QFunctorSlotObject<AutomationStudio::AutomationStudio(QQmlApplicationEngine*, QObject*)::<lambda()>, 0, QtPrivate::List<>, void>::QFunctorSlotObject
FUNC 32168 1b 0 QtPrivate::QFunctorSlotObject<AutomationStudio::AutomationStudio(QQmlApplicationEngine*, QObject*)::<lambda()>, 0, QtPrivate::List<>, void>::~QFunctorSlotObject
FUNC 32183 70 0 QtPrivate::QFunctorSlotObject<AutomationStudio::AutomationStudio(QQmlApplicationEngine*, QObject*)::<lambda()>, 0, QtPrivate::List<>, void>::impl
FUNC 321f3 2a 0 QtPrivate::Functor<AutomationStudio::AutomationStudio(QQmlApplicationEngine*, QObject*)::<lambda()>, 0>::call<QtPrivate::List<>, void>
FUNC 3221d 35 0 QtPrivate::FunctorCall<QtPrivate::IndexesList<>, QtPrivate::List<>, void, AutomationStudio::AutomationStudio(QQmlApplicationEngine*, QObject*)::<lambda()> >::call
FUNC 32252 49 0 __static_initialization_and_destruction_0
FUNC 3229b 15 0 _GLOBAL__sub_I_automationstudio.cpp
FUNC 322b0 17 0 QFlag::QFlag(int)
FUNC 322c8 10 0 QFlag::operator int() const
FUNC 322d8 17 0 QFlag::QFlag(unsigned int)
FUNC 322f0 10 0 QFlag::operator unsigned int() const
FUNC 32300 17 0 std::__atomic_base<int>::__atomic_base(int)
FUNC 32318 23 0 std::atomic<int>::atomic(int)
FUNC 3233c 23 0 QBasicAtomicInteger<int>::QBasicAtomicInteger(int)
FUNC 32360 23 0 QAtomicInteger<int>::QAtomicInteger(int)
FUNC 32384 23 0 QAtomicInt::QAtomicInt(int)
FUNC 323a8 35 0 QtPrivate::RefCount::isShared() const
FUNC 323de 22 0 QFlags<QArrayData::AllocationOption>::operator|=(QArrayData::AllocationOption)
FUNC 32400 38 0 QArrayData::detachFlags() const
FUNC 32438 d 0 QArrayData::sharedNull()
FUNC 32446 26 0 QFlags<QArrayData::AllocationOption>::QFlags(QFlag)
FUNC 3246c 3e 0 QFlags<QArrayData::AllocationOption>::operator|(QArrayData::AllocationOption) const
FUNC 324aa 1e 0 QByteArray::QByteArray()
FUNC 324c8 14 0 QByteArray::size() const
FUNC 324dc 28 0 unsigned int const& qMax<unsigned int>(unsigned int const&, unsigned int const&)
FUNC 32504 c9 0 QByteArray::reserve(int)
FUNC 325ce 1e 0 QString::QString()
FUNC 325ec 28 0 int const& qMax<int>(int const&, int const&)
FUNC 32614 30 0 QtPrivate::QSlotObjectBase::QSlotObjectBase(void (*)(int, QtPrivate::QSlotObjectBase*, QObject*, void**, bool*))
FUNC 32644 b 0 QtPrivate::QSlotObjectBase::~QSlotObjectBase()
FUNC 32650 1e 0 QListData::dispose()
FUNC 3266e 22 0 QListData::size() const
FUNC 32690 34 0 QListData::at(int) const
FUNC 326c4 28 0 QListData::begin() const
FUNC 326ec 28 0 QListData::end() const
FUNC 32714 b 0 QListSpecialMethods<QString>::~QListSpecialMethods()
FUNC 32720 1b 0 QStringList::QStringList()
FUNC 3273c 1b 0 QStringList::~QStringList()
FUNC 32758 26 0 QStringList::QStringList(QStringList&&)
FUNC 3277e 29 0 QStringList::operator<<(QString const&)
FUNC 327a7 b 0 QtPrivate::ConnectionTypes<QtPrivate::List<>, true>::types()
FUNC 327b2 b 0 std::__atomic_base<int>::__atomic_base()
FUNC 327be 1b 0 std::atomic<int>::atomic()
FUNC 327da 1b 0 QBasicAtomicInteger<int>::QBasicAtomicInteger()
FUNC 327f6 61 0 QtSharedPointer::ExternalRefCountData::ExternalRefCountData(void (*)(QtSharedPointer::ExternalRefCountData*))
FUNC 32858 2d 0 QDebug::QDebug(QDebug const&)
FUNC 32885 10 0 QCoreApplication::instance()
FUNC 32896 12 0 AutomationStudio::coreApplication() const
FUNC 328a8 9d 0 AutomationStudio::setReleaseVersion(QString)
FUNC 32946 9d 0 AutomationStudio::setBuildInfo(QString)
FUNC 329e4 12 0 AutomationStudio::dir() const
FUNC 329f6 17 0 QFlags<QDir::Filter>::QFlags(QDir::Filter)
FUNC 32a0e 26 0 QFlags<QDir::Filter>::QFlags(QFlag)
FUNC 32a34 17 0 QFlags<QDir::SortFlag>::QFlags(QDir::SortFlag)
FUNC 32a4c 3e 0 QFlags<QDir::Filter>::operator|(QDir::Filter) const
FUNC 32a8a 32 0 operator|(QDir::Filter, QDir::Filter)
FUNC 32abc 1b 0 QtPrivate::QForeachContainer<QStringList>::~QForeachContainer()
FUNC 32ad8 23 0 QBasicAtomicInteger<int>::store(int)
FUNC 32afb b 0 QTypedArrayData<char>::sharedNull()
FUNC 32b06 b 0 QTypedArrayData<unsigned short>::sharedNull()
FUNC 32b12 b 0 QListSpecialMethods<QString>::QListSpecialMethods()
FUNC 32b1e 29 0 QList<QString>::QList()
FUNC 32b48 47 0 QList<QString>::~QList()
FUNC 32b90 f8 0 QList<QString>::append(QString const&)
FUNC 32c88 3b 0 QList<QString>::QList(QList<QString>&&)
FUNC 32cc4 1a 0 QBasicAtomicInteger<int>::loadAcquire() const
FUNC 32cde 23 0 QBasicAtomicInteger<int>::storeRelease(int)
FUNC 32d02 36 0 QList<QString>::operator[](int)
FUNC 32d38 3a 0 QSharedPointer<AutomationStudio>::QSharedPointer<AutomationStudio>(AutomationStudio*)
FUNC 32d72 15e 0 QList<QString>::removeAll(QString const&)
FUNC 32ed0 e 0 QStringList&& std::forward<QStringList>(std::remove_reference<QStringList>::type&)
FUNC 32ede 34 0 QtPrivate::QForeachContainer<std::decay<QStringList>::type> QtPrivate::qMakeForeachContainer<QStringList>(QStringList&&)
FUNC 32f12 e 0 std::remove_reference<QStringList&>::type&& std::move<QStringList&>(QStringList&)
FUNC 32f20 e 0 std::add_const<QStringList>::type& qAsConst<QStringList>(QStringList&)
FUNC 32f2e 22 0 QList<QString>::const_iterator::operator!=(QList<QString>::const_iterator const&) const
FUNC 32f50 20 0 QList<QString>::const_iterator::operator++()
FUNC 32f70 1d 0 QList<QString>::const_iterator::operator*() const
FUNC 32f8e 1f 0 QQmlPrivate::RegisterType::~RegisterType()
FUNC 32fad 367 0 int qmlRegisterUncreatableType<AutomationStudio>(char const*, int, int, char const*, QString const&)
FUNC 33314 367 0 int qmlRegisterUncreatableType<QCoreApplication>(char const*, int, int, char const*, QString const&)
FUNC 3367b 367 0 int qmlRegisterUncreatableType<Settings>(char const*, int, int, char const*, QString const&)
FUNC 339e2 367 0 int qmlRegisterUncreatableType<Utilities>(char const*, int, int, char const*, QString const&)
FUNC 33d49 367 0 int qmlRegisterUncreatableType<SystemSettings>(char const*, int, int, char const*, QString const&)
FUNC 340b0 367 0 int qmlRegisterUncreatableType<SocketIO>(char const*, int, int, char const*, QString const&)
FUNC 34417 367 0 int qmlRegisterUncreatableType<AppUpdater>(char const*, int, int, char const*, QString const&)
FUNC 3477e 45 0 void QAtomicOps<int>::store<int>(std::atomic<int>&, int)
FUNC 347c4 5e 0 QList<QString>::dealloc(QListData::Data*)
FUNC 34822 1d5 0 QList<QString>::detach_helper_grow(int, int)
FUNC 349f8 3c 0 QList<QString>::node_construct(QList<QString>::Node*, QString const&)
FUNC 34a34 1f 0 QList<QString>::node_destruct(QList<QString>::Node*)
FUNC 34a54 5e 0 QList<QString>::node_copy(QList<QString>::Node*, QList<QString>::Node*, QList<QString>::Node*)
FUNC 34ab2 36 0 int QAtomicOps<int>::loadAcquire<int>(std::atomic<int> const&)
FUNC 34ae8 22 0 QFlags<QMetaType::TypeFlag>::operator|=(QMetaType::TypeFlag)
FUNC 34b0a 45 0 void QAtomicOps<int>::storeRelease<int>(std::atomic<int>&, int)
FUNC 34b50 2e 0 QList<QString>::detach()
FUNC 34b7e e 0 QList<QString>::Node::t()
FUNC 34b8c 8d 0 void QSharedPointer<AutomationStudio>::internalConstruct<AutomationStudio, QtSharedPointer::NormalDeleter>(AutomationStudio*, QtSharedPointer::NormalDeleter)
FUNC 34c1a eb 0 QList<QString>::indexOf(QString const&, int) const
FUNC 34d06 80 0 QtPrivate::QForeachContainer<QStringList>::QForeachContainer(QStringList&&)
FUNC 34d86 34 0 QList<QString>::begin() const
FUNC 34dba 34 0 QList<QString>::end() const
FUNC 34dee 7f 0 QVarLengthArray<char, 48>::QVarLengthArray(int)
FUNC 34e6e 34 0 QVarLengthArray<char, 48>::~QVarLengthArray()
FUNC 34ea2 12 0 QVarLengthArray<char, 48>::data()
FUNC 34eb4 1d 0 QVarLengthArray<char, 48>::operator[](int)
FUNC 34ed2 7f 0 QVarLengthArray<char, 64>::QVarLengthArray(int)
FUNC 34f52 34 0 QVarLengthArray<char, 64>::~QVarLengthArray()
FUNC 34f86 12 0 QVarLengthArray<char, 64>::data()
FUNC 34f98 1d 0 QVarLengthArray<char, 64>::operator[](int)
FUNC 34fb6 12 0 QVarLengthArray<char, 48>::constData() const
FUNC 34fc8 b 0 QMetaTypeId2<AutomationStudio*>::qt_metatype_id()
FUNC 34fd3 b 0 QtPrivate::QMetaTypeIdHelper<AutomationStudio*, true>::qt_metatype_id()
FUNC 34fde c9 0 int qRegisterNormalizedMetaType<AutomationStudio*>(QByteArray const&, AutomationStudio**, QtPrivate::MetaTypeDefinedHelper<AutomationStudio*, QMetaTypeId2<AutomationStudio*>::Defined&&(!QMetaTypeId2<AutomationStudio*>::IsBuiltIn)>::DefinedType)
FUNC 350a8 12 0 QVarLengthArray<char, 64>::constData() const
FUNC 350ba b 0 QtPrivate::QMetaTypeIdHelper<QQmlListProperty<AutomationStudio>, false>::qt_metatype_id()
FUNC 350c5 c9 0 int qRegisterNormalizedMetaType<QQmlListProperty<AutomationStudio> >(QByteArray const&, QQmlListProperty<AutomationStudio>*, QtPrivate::MetaTypeDefinedHelper<QQmlListProperty<AutomationStudio>, QMetaTypeId2<QQmlListProperty<AutomationStudio> >::Defined&&(!QMetaTypeId2<QQmlListProperty<AutomationStudio> >::IsBuiltIn)>::DefinedType)
FUNC 3518e b 0 QObject* (*QQmlPrivate::attachedPropertiesFunc<AutomationStudio>())(QObject*)
FUNC 35199 b 0 QMetaObject const* QQmlPrivate::attachedPropertiesMetaObject<AutomationStudio>()
FUNC 351a4 b 0 QQmlPrivate::StaticCastSelector<AutomationStudio, QQmlParserStatus>::cast()
FUNC 351af b 0 QQmlPrivate::StaticCastSelector<AutomationStudio, QQmlPropertyValueSource>::cast()
FUNC 351ba b 0 QQmlPrivate::StaticCastSelector<AutomationStudio, QQmlPropertyValueInterceptor>::cast()
FUNC 351c5 b 0 QMetaTypeId2<QCoreApplication*>::qt_metatype_id()
FUNC 351d0 b 0 QtPrivate::QMetaTypeIdHelper<QCoreApplication*, true>::qt_metatype_id()
FUNC 351db c9 0 int qRegisterNormalizedMetaType<QCoreApplication*>(QByteArray const&, QCoreApplication**, QtPrivate::MetaTypeDefinedHelper<QCoreApplication*, QMetaTypeId2<QCoreApplication*>::Defined&&(!QMetaTypeId2<QCoreApplication*>::IsBuiltIn)>::DefinedType)
FUNC 352a4 b 0 QtPrivate::QMetaTypeIdHelper<QQmlListProperty<QCoreApplication>, false>::qt_metatype_id()
FUNC 352af c9 0 int qRegisterNormalizedMetaType<QQmlListProperty<QCoreApplication> >(QByteArray const&, QQmlListProperty<QCoreApplication>*, QtPrivate::MetaTypeDefinedHelper<QQmlListProperty<QCoreApplication>, QMetaTypeId2<QQmlListProperty<QCoreApplication> >::Defined&&(!QMetaTypeId2<QQmlListProperty<QCoreApplication> >::IsBuiltIn)>::DefinedType)
FUNC 35378 b 0 QObject* (*QQmlPrivate::attachedPropertiesFunc<QCoreApplication>())(QObject*)
FUNC 35383 b 0 QMetaObject const* QQmlPrivate::attachedPropertiesMetaObject<QCoreApplication>()
FUNC 3538e b 0 QQmlPrivate::StaticCastSelector<QCoreApplication, QQmlParserStatus>::cast()
FUNC 35399 b 0 QQmlPrivate::StaticCastSelector<QCoreApplication, QQmlPropertyValueSource>::cast()
FUNC 353a4 b 0 QQmlPrivate::StaticCastSelector<QCoreApplication, QQmlPropertyValueInterceptor>::cast()
FUNC 353af b 0 QMetaTypeId2<Settings*>::qt_metatype_id()
FUNC 353ba b 0 QtPrivate::QMetaTypeIdHelper<Settings*, true>::qt_metatype_id()
FUNC 353c5 c9 0 int qRegisterNormalizedMetaType<Settings*>(QByteArray const&, Settings**, QtPrivate::MetaTypeDefinedHelper<Settings*, QMetaTypeId2<Settings*>::Defined&&(!QMetaTypeId2<Settings*>::IsBuiltIn)>::DefinedType)
FUNC 3548e b 0 QtPrivate::QMetaTypeIdHelper<QQmlListProperty<Settings>, false>::qt_metatype_id()
FUNC 35499 c9 0 int qRegisterNormalizedMetaType<QQmlListProperty<Settings> >(QByteArray const&, QQmlListProperty<Settings>*, QtPrivate::MetaTypeDefinedHelper<QQmlListProperty<Settings>, QMetaTypeId2<QQmlListProperty<Settings> >::Defined&&(!QMetaTypeId2<QQmlListProperty<Settings> >::IsBuiltIn)>::DefinedType)
FUNC 35562 b 0 QObject* (*QQmlPrivate::attachedPropertiesFunc<Settings>())(QObject*)
FUNC 3556d b 0 QMetaObject const* QQmlPrivate::attachedPropertiesMetaObject<Settings>()
FUNC 35578 b 0 QQmlPrivate::StaticCastSelector<Settings, QQmlParserStatus>::cast()
FUNC 35583 b 0 QQmlPrivate::StaticCastSelector<Settings, QQmlPropertyValueSource>::cast()
FUNC 3558e b 0 QQmlPrivate::StaticCastSelector<Settings, QQmlPropertyValueInterceptor>::cast()
FUNC 35599 b 0 QMetaTypeId2<Utilities*>::qt_metatype_id()
FUNC 355a4 b 0 QtPrivate::QMetaTypeIdHelper<Utilities*, true>::qt_metatype_id()
FUNC 355af c9 0 int qRegisterNormalizedMetaType<Utilities*>(QByteArray const&, Utilities**, QtPrivate::MetaTypeDefinedHelper<Utilities*, QMetaTypeId2<Utilities*>::Defined&&(!QMetaTypeId2<Utilities*>::IsBuiltIn)>::DefinedType)
FUNC 35678 b 0 QtPrivate::QMetaTypeIdHelper<QQmlListProperty<Utilities>, false>::qt_metatype_id()
FUNC 35683 c9 0 int qRegisterNormalizedMetaType<QQmlListProperty<Utilities> >(QByteArray const&, QQmlListProperty<Utilities>*, QtPrivate::MetaTypeDefinedHelper<QQmlListProperty<Utilities>, QMetaTypeId2<QQmlListProperty<Utilities> >::Defined&&(!QMetaTypeId2<QQmlListProperty<Utilities> >::IsBuiltIn)>::DefinedType)
FUNC 3574c b 0 QObject* (*QQmlPrivate::attachedPropertiesFunc<Utilities>())(QObject*)
FUNC 35757 b 0 QMetaObject const* QQmlPrivate::attachedPropertiesMetaObject<Utilities>()
FUNC 35762 b 0 QQmlPrivate::StaticCastSelector<Utilities, QQmlParserStatus>::cast()
FUNC 3576d b 0 QQmlPrivate::StaticCastSelector<Utilities, QQmlPropertyValueSource>::cast()
FUNC 35778 b 0 QQmlPrivate::StaticCastSelector<Utilities, QQmlPropertyValueInterceptor>::cast()
FUNC 35783 b 0 QMetaTypeId2<SystemSettings*>::qt_metatype_id()
FUNC 3578e b 0 QtPrivate::QMetaTypeIdHelper<SystemSettings*, true>::qt_metatype_id()
FUNC 35799 c9 0 int qRegisterNormalizedMetaType<SystemSettings*>(QByteArray const&, SystemSettings**, QtPrivate::MetaTypeDefinedHelper<SystemSettings*, QMetaTypeId2<SystemSettings*>::Defined&&(!QMetaTypeId2<SystemSettings*>::IsBuiltIn)>::DefinedType)
FUNC 35862 b 0 QtPrivate::QMetaTypeIdHelper<QQmlListProperty<SystemSettings>, false>::qt_metatype_id()
FUNC 3586d c9 0 int qRegisterNormalizedMetaType<QQmlListProperty<SystemSettings> >(QByteArray const&, QQmlListProperty<SystemSettings>*, QtPrivate::MetaTypeDefinedHelper<QQmlListProperty<SystemSettings>, QMetaTypeId2<QQmlListProperty<SystemSettings> >::Defined&&(!QMetaTypeId2<QQmlListProperty<SystemSettings> >::IsBuiltIn)>::DefinedType)
FUNC 35936 b 0 QObject* (*QQmlPrivate::attachedPropertiesFunc<SystemSettings>())(QObject*)
FUNC 35941 b 0 QMetaObject const* QQmlPrivate::attachedPropertiesMetaObject<SystemSettings>()
FUNC 3594c b 0 QQmlPrivate::StaticCastSelector<SystemSettings, QQmlParserStatus>::cast()
FUNC 35957 b 0 QQmlPrivate::StaticCastSelector<SystemSettings, QQmlPropertyValueSource>::cast()
FUNC 35962 b 0 QQmlPrivate::StaticCastSelector<SystemSettings, QQmlPropertyValueInterceptor>::cast()
FUNC 3596d b 0 QMetaTypeId2<SocketIO*>::qt_metatype_id()
FUNC 35978 b 0 QtPrivate::QMetaTypeIdHelper<SocketIO*, true>::qt_metatype_id()
FUNC 35983 c9 0 int qRegisterNormalizedMetaType<SocketIO*>(QByteArray const&, SocketIO**, QtPrivate::MetaTypeDefinedHelper<SocketIO*, QMetaTypeId2<SocketIO*>::Defined&&(!QMetaTypeId2<SocketIO*>::IsBuiltIn)>::DefinedType)
FUNC 35a4c b 0 QtPrivate::QMetaTypeIdHelper<QQmlListProperty<SocketIO>, false>::qt_metatype_id()
FUNC 35a57 c9 0 int qRegisterNormalizedMetaType<QQmlListProperty<SocketIO> >(QByteArray const&, QQmlListProperty<SocketIO>*, QtPrivate::MetaTypeDefinedHelper<QQmlListProperty<SocketIO>, QMetaTypeId2<QQmlListProperty<SocketIO> >::Defined&&(!QMetaTypeId2<QQmlListProperty<SocketIO> >::IsBuiltIn)>::DefinedType)
FUNC 35b20 b 0 QObject* (*QQmlPrivate::attachedPropertiesFunc<SocketIO>())(QObject*)
FUNC 35b2b b 0 QMetaObject const* QQmlPrivate::attachedPropertiesMetaObject<SocketIO>()
FUNC 35b36 b 0 QQmlPrivate::StaticCastSelector<SocketIO, QQmlParserStatus>::cast()
FUNC 35b41 b 0 QQmlPrivate::StaticCastSelector<SocketIO, QQmlPropertyValueSource>::cast()
FUNC 35b4c b 0 QQmlPrivate::StaticCastSelector<SocketIO, QQmlPropertyValueInterceptor>::cast()
FUNC 35b57 b 0 QMetaTypeId2<AppUpdater*>::qt_metatype_id()
FUNC 35b62 b 0 QtPrivate::QMetaTypeIdHelper<AppUpdater*, true>::qt_metatype_id()
FUNC 35b6d c9 0 int qRegisterNormalizedMetaType<AppUpdater*>(QByteArray const&, AppUpdater**, QtPrivate::MetaTypeDefinedHelper<AppUpdater*, QMetaTypeId2<AppUpdater*>::Defined&&(!QMetaTypeId2<AppUpdater*>::IsBuiltIn)>::DefinedType)
FUNC 35c36 b 0 QtPrivate::QMetaTypeIdHelper<QQmlListProperty<AppUpdater>, false>::qt_metatype_id()
FUNC 35c41 c9 0 int qRegisterNormalizedMetaType<QQmlListProperty<AppUpdater> >(QByteArray const&, QQmlListProperty<AppUpdater>*, QtPrivate::MetaTypeDefinedHelper<QQmlListProperty<AppUpdater>, QMetaTypeId2<QQmlListProperty<AppUpdater> >::Defined&&(!QMetaTypeId2<QQmlListProperty<AppUpdater> >::IsBuiltIn)>::DefinedType)
FUNC 35d0a b 0 QObject* (*QQmlPrivate::attachedPropertiesFunc<AppUpdater>())(QObject*)
FUNC 35d15 b 0 QMetaObject const* QQmlPrivate::attachedPropertiesMetaObject<AppUpdater>()
FUNC 35d20 b 0 QQmlPrivate::StaticCastSelector<AppUpdater, QQmlParserStatus>::cast()
FUNC 35d2b b 0 QQmlPrivate::StaticCastSelector<AppUpdater, QQmlPropertyValueSource>::cast()
FUNC 35d36 b 0 QQmlPrivate::StaticCastSelector<AppUpdater, QQmlPropertyValueInterceptor>::cast()
FUNC 35d42 34 0 QList<QString>::node_destruct(QList<QString>::Node*, QList<QString>::Node*)
FUNC 35d76 97 0 QList<QString>::detach_helper(int)
FUNC 35e0e 27 0 QList<QString>::detach_helper()
FUNC 35e35 27 0 QtSharedPointer::ExternalRefCountWithCustomDeleter<AutomationStudio, QtSharedPointer::NormalDeleter>::deleter(QtSharedPointer::ExternalRefCountData*)
FUNC 35e5c 87 0 QtSharedPointer::ExternalRefCountWithCustomDeleter<AutomationStudio, QtSharedPointer::NormalDeleter>::create(AutomationStudio*, QtSharedPointer::NormalDeleter, void (*)(QtSharedPointer::ExternalRefCountData*))
FUNC 35ee4 59 0 QSharedPointer<AutomationStudio>::enableSharedFromThis(...)
FUNC 35f3e 1a 0 QList<QString>::const_iterator::const_iterator(QList<QString>::Node*)
FUNC 35f58 e8 0 QMetaTypeIdQObject<AutomationStudio*, 8>::qt_metatype_id()
FUNC 36040 b 0 QtMetaTypePrivate::QMetaTypeFunctionHelper<AutomationStudio*, true>::Destruct(void*)
FUNC 3604b 4c 0 QtMetaTypePrivate::QMetaTypeFunctionHelper<AutomationStudio*, true>::Construct(void*, void const*)
FUNC 36097 d 0 QtPrivate::MetaObjectForType<AutomationStudio*, void>::value()
FUNC 360a4 e 0 QtPrivate::SequentialContainerConverterHelper<AutomationStudio*, false>::registerConverter(int)
FUNC 360b2 e 0 QtPrivate::AssociativeContainerConverterHelper<AutomationStudio*, false>::registerConverter(int)
FUNC 360c0 e 0 QtPrivate::IsPair<AutomationStudio*>::registerConverter(int)
FUNC 360ce e 0 QtPrivate::MetaTypeSmartPointerHelper<AutomationStudio*, void>::registerConverter(int)
FUNC 360dc b 0 QtMetaTypePrivate::QMetaTypeFunctionHelper<QQmlListProperty<AutomationStudio>, true>::Destruct(void*)
FUNC 360e7 a1 0 QtMetaTypePrivate::QMetaTypeFunctionHelper<QQmlListProperty<AutomationStudio>, true>::Construct(void*, void const*)
FUNC 36188 b 0 QtPrivate::MetaObjectForType<QQmlListProperty<AutomationStudio>, void>::value()
FUNC 36193 e 0 QtPrivate::SequentialContainerConverterHelper<QQmlListProperty<AutomationStudio>, false>::registerConverter(int)
FUNC 361a1 e 0 QtPrivate::AssociativeContainerConverterHelper<QQmlListProperty<AutomationStudio>, false>::registerConverter(int)
FUNC 361af e 0 QtPrivate::IsPair<QQmlListProperty<AutomationStudio> >::registerConverter(int)
FUNC 361bd e 0 QtPrivate::MetaTypeSmartPointerHelper<QQmlListProperty<AutomationStudio>, void>::registerConverter(int)
FUNC 361cb b 0 QQmlPrivate::AttachedPropertySelector<AutomationStudio, 0>::func()
FUNC 361d6 b 0 QQmlPrivate::AttachedPropertySelector<AutomationStudio, 0>::metaObject()
FUNC 361e1 b 0 QQmlPrivate::StaticCastSelectorClass<AutomationStudio, QQmlParserStatus, 1>::cast()
FUNC 361ec b 0 QQmlPrivate::StaticCastSelectorClass<AutomationStudio, QQmlPropertyValueSource, 1>::cast()
FUNC 361f7 b 0 QQmlPrivate::StaticCastSelectorClass<AutomationStudio, QQmlPropertyValueInterceptor, 1>::cast()
FUNC 36202 e8 0 QMetaTypeIdQObject<QCoreApplication*, 8>::qt_metatype_id()
FUNC 362ea b 0 QtMetaTypePrivate::QMetaTypeFunctionHelper<QCoreApplication*, true>::Destruct(void*)
FUNC 362f5 4c 0 QtMetaTypePrivate::QMetaTypeFunctionHelper<QCoreApplication*, true>::Construct(void*, void const*)
FUNC 36341 d 0 QtPrivate::MetaObjectForType<QCoreApplication*, void>::value()
FUNC 3634e e 0 QtPrivate::SequentialContainerConverterHelper<QCoreApplication*, false>::registerConverter(int)
FUNC 3635c e 0 QtPrivate::AssociativeContainerConverterHelper<QCoreApplication*, false>::registerConverter(int)
FUNC 3636a e 0 QtPrivate::IsPair<QCoreApplication*>::registerConverter(int)
FUNC 36378 e 0 QtPrivate::MetaTypeSmartPointerHelper<QCoreApplication*, void>::registerConverter(int)
FUNC 36386 b 0 QtMetaTypePrivate::QMetaTypeFunctionHelper<QQmlListProperty<QCoreApplication>, true>::Destruct(void*)
FUNC 36391 a1 0 QtMetaTypePrivate::QMetaTypeFunctionHelper<QQmlListProperty<QCoreApplication>, true>::Construct(void*, void const*)
FUNC 36432 b 0 QtPrivate::MetaObjectForType<QQmlListProperty<QCoreApplication>, void>::value()
FUNC 3643d e 0 QtPrivate::SequentialContainerConverterHelper<QQmlListProperty<QCoreApplication>, false>::registerConverter(int)
FUNC 3644b e 0 QtPrivate::AssociativeContainerConverterHelper<QQmlListProperty<QCoreApplication>, false>::registerConverter(int)
FUNC 36459 e 0 QtPrivate::IsPair<QQmlListProperty<QCoreApplication> >::registerConverter(int)
FUNC 36467 e 0 QtPrivate::MetaTypeSmartPointerHelper<QQmlListProperty<QCoreApplication>, void>::registerConverter(int)
FUNC 36475 b 0 QQmlPrivate::AttachedPropertySelector<QCoreApplication, 0>::func()
FUNC 36480 b 0 QQmlPrivate::AttachedPropertySelector<QCoreApplication, 0>::metaObject()
FUNC 3648b b 0 QQmlPrivate::StaticCastSelectorClass<QCoreApplication, QQmlParserStatus, 1>::cast()
FUNC 36496 b 0 QQmlPrivate::StaticCastSelectorClass<QCoreApplication, QQmlPropertyValueSource, 1>::cast()
FUNC 364a1 b 0 QQmlPrivate::StaticCastSelectorClass<QCoreApplication, QQmlPropertyValueInterceptor, 1>::cast()
FUNC 364ac e8 0 QMetaTypeIdQObject<Settings*, 8>::qt_metatype_id()
FUNC 36594 b 0 QtMetaTypePrivate::QMetaTypeFunctionHelper<Settings*, true>::Destruct(void*)
FUNC 3659f 4c 0 QtMetaTypePrivate::QMetaTypeFunctionHelper<Settings*, true>::Construct(void*, void const*)
FUNC 365eb d 0 QtPrivate::MetaObjectForType<Settings*, void>::value()
FUNC 365f8 e 0 QtPrivate::SequentialContainerConverterHelper<Settings*, false>::registerConverter(int)
FUNC 36606 e 0 QtPrivate::AssociativeContainerConverterHelper<Settings*, false>::registerConverter(int)
FUNC 36614 e 0 QtPrivate::IsPair<Settings*>::registerConverter(int)
FUNC 36622 e 0 QtPrivate::MetaTypeSmartPointerHelper<Settings*, void>::registerConverter(int)
FUNC 36630 b 0 QtMetaTypePrivate::QMetaTypeFunctionHelper<QQmlListProperty<Settings>, true>::Destruct(void*)
FUNC 3663b a1 0 QtMetaTypePrivate::QMetaTypeFunctionHelper<QQmlListProperty<Settings>, true>::Construct(void*, void const*)
FUNC 366dc b 0 QtPrivate::MetaObjectForType<QQmlListProperty<Settings>, void>::value()
FUNC 366e7 e 0 QtPrivate::SequentialContainerConverterHelper<QQmlListProperty<Settings>, false>::registerConverter(int)
FUNC 366f5 e 0 QtPrivate::AssociativeContainerConverterHelper<QQmlListProperty<Settings>, false>::registerConverter(int)
FUNC 36703 e 0 QtPrivate::IsPair<QQmlListProperty<Settings> >::registerConverter(int)
FUNC 36711 e 0 QtPrivate::MetaTypeSmartPointerHelper<QQmlListProperty<Settings>, void>::registerConverter(int)
FUNC 3671f b 0 QQmlPrivate::AttachedPropertySelector<Settings, 0>::func()
FUNC 3672a b 0 QQmlPrivate::AttachedPropertySelector<Settings, 0>::metaObject()
FUNC 36735 b 0 QQmlPrivate::StaticCastSelectorClass<Settings, QQmlParserStatus, 1>::cast()
FUNC 36740 b 0 QQmlPrivate::StaticCastSelectorClass<Settings, QQmlPropertyValueSource, 1>::cast()
FUNC 3674b b 0 QQmlPrivate::StaticCastSelectorClass<Settings, QQmlPropertyValueInterceptor, 1>::cast()
FUNC 36756 e8 0 QMetaTypeIdQObject<Utilities*, 8>::qt_metatype_id()
FUNC 3683e b 0 QtMetaTypePrivate::QMetaTypeFunctionHelper<Utilities*, true>::Destruct(void*)
FUNC 36849 4c 0 QtMetaTypePrivate::QMetaTypeFunctionHelper<Utilities*, true>::Construct(void*, void const*)
FUNC 36895 d 0 QtPrivate::MetaObjectForType<Utilities*, void>::value()
FUNC 368a2 e 0 QtPrivate::SequentialContainerConverterHelper<Utilities*, false>::registerConverter(int)
FUNC 368b0 e 0 QtPrivate::AssociativeContainerConverterHelper<Utilities*, false>::registerConverter(int)
FUNC 368be e 0 QtPrivate::IsPair<Utilities*>::registerConverter(int)
FUNC 368cc e 0 QtPrivate::MetaTypeSmartPointerHelper<Utilities*, void>::registerConverter(int)
FUNC 368da b 0 QtMetaTypePrivate::QMetaTypeFunctionHelper<QQmlListProperty<Utilities>, true>::Destruct(void*)
FUNC 368e5 a1 0 QtMetaTypePrivate::QMetaTypeFunctionHelper<QQmlListProperty<Utilities>, true>::Construct(void*, void const*)
FUNC 36986 b 0 QtPrivate::MetaObjectForType<QQmlListProperty<Utilities>, void>::value()
FUNC 36991 e 0 QtPrivate::SequentialContainerConverterHelper<QQmlListProperty<Utilities>, false>::registerConverter(int)
FUNC 3699f e 0 QtPrivate::AssociativeContainerConverterHelper<QQmlListProperty<Utilities>, false>::registerConverter(int)
FUNC 369ad e 0 QtPrivate::IsPair<QQmlListProperty<Utilities> >::registerConverter(int)
FUNC 369bb e 0 QtPrivate::MetaTypeSmartPointerHelper<QQmlListProperty<Utilities>, void>::registerConverter(int)
FUNC 369c9 b 0 QQmlPrivate::AttachedPropertySelector<Utilities, 0>::func()
FUNC 369d4 b 0 QQmlPrivate::AttachedPropertySelector<Utilities, 0>::metaObject()
FUNC 369df b 0 QQmlPrivate::StaticCastSelectorClass<Utilities, QQmlParserStatus, 1>::cast()
FUNC 369ea b 0 QQmlPrivate::StaticCastSelectorClass<Utilities, QQmlPropertyValueSource, 1>::cast()
FUNC 369f5 b 0 QQmlPrivate::StaticCastSelectorClass<Utilities, QQmlPropertyValueInterceptor, 1>::cast()
FUNC 36a00 e8 0 QMetaTypeIdQObject<SystemSettings*, 8>::qt_metatype_id()
FUNC 36ae8 b 0 QtMetaTypePrivate::QMetaTypeFunctionHelper<SystemSettings*, true>::Destruct(void*)
FUNC 36af3 4c 0 QtMetaTypePrivate::QMetaTypeFunctionHelper<SystemSettings*, true>::Construct(void*, void const*)
FUNC 36b3f d 0 QtPrivate::MetaObjectForType<SystemSettings*, void>::value()
FUNC 36b4c e 0 QtPrivate::SequentialContainerConverterHelper<SystemSettings*, false>::registerConverter(int)
FUNC 36b5a e 0 QtPrivate::AssociativeContainerConverterHelper<SystemSettings*, false>::registerConverter(int)
FUNC 36b68 e 0 QtPrivate::IsPair<SystemSettings*>::registerConverter(int)
FUNC 36b76 e 0 QtPrivate::MetaTypeSmartPointerHelper<SystemSettings*, void>::registerConverter(int)
FUNC 36b84 b 0 QtMetaTypePrivate::QMetaTypeFunctionHelper<QQmlListProperty<SystemSettings>, true>::Destruct(void*)
FUNC 36b8f a1 0 QtMetaTypePrivate::QMetaTypeFunctionHelper<QQmlListProperty<SystemSettings>, true>::Construct(void*, void const*)
FUNC 36c30 b 0 QtPrivate::MetaObjectForType<QQmlListProperty<SystemSettings>, void>::value()
FUNC 36c3b e 0 QtPrivate::SequentialContainerConverterHelper<QQmlListProperty<SystemSettings>, false>::registerConverter(int)
FUNC 36c49 e 0 QtPrivate::AssociativeContainerConverterHelper<QQmlListProperty<SystemSettings>, false>::registerConverter(int)
FUNC 36c57 e 0 QtPrivate::IsPair<QQmlListProperty<SystemSettings> >::registerConverter(int)
FUNC 36c65 e 0 QtPrivate::MetaTypeSmartPointerHelper<QQmlListProperty<SystemSettings>, void>::registerConverter(int)
FUNC 36c73 b 0 QQmlPrivate::AttachedPropertySelector<SystemSettings, 0>::func()
FUNC 36c7e b 0 QQmlPrivate::AttachedPropertySelector<SystemSettings, 0>::metaObject()
FUNC 36c89 b 0 QQmlPrivate::StaticCastSelectorClass<SystemSettings, QQmlParserStatus, 1>::cast()
FUNC 36c94 b 0 QQmlPrivate::StaticCastSelectorClass<SystemSettings, QQmlPropertyValueSource, 1>::cast()
FUNC 36c9f b 0 QQmlPrivate::StaticCastSelectorClass<SystemSettings, QQmlPropertyValueInterceptor, 1>::cast()
FUNC 36caa e8 0 QMetaTypeIdQObject<SocketIO*, 8>::qt_metatype_id()
FUNC 36d92 b 0 QtMetaTypePrivate::QMetaTypeFunctionHelper<SocketIO*, true>::Destruct(void*)
FUNC 36d9d 4c 0 QtMetaTypePrivate::QMetaTypeFunctionHelper<SocketIO*, true>::Construct(void*, void const*)
FUNC 36de9 d 0 QtPrivate::MetaObjectForType<SocketIO*, void>::value()
FUNC 36df6 e 0 QtPrivate::SequentialContainerConverterHelper<SocketIO*, false>::registerConverter(int)
FUNC 36e04 e 0 QtPrivate::AssociativeContainerConverterHelper<SocketIO*, false>::registerConverter(int)
FUNC 36e12 e 0 QtPrivate::IsPair<SocketIO*>::registerConverter(int)
FUNC 36e20 e 0 QtPrivate::MetaTypeSmartPointerHelper<SocketIO*, void>::registerConverter(int)
FUNC 36e2e b 0 QtMetaTypePrivate::QMetaTypeFunctionHelper<QQmlListProperty<SocketIO>, true>::Destruct(void*)
FUNC 36e39 a1 0 QtMetaTypePrivate::QMetaTypeFunctionHelper<QQmlListProperty<SocketIO>, true>::Construct(void*, void const*)
FUNC 36eda b 0 QtPrivate::MetaObjectForType<QQmlListProperty<SocketIO>, void>::value()
FUNC 36ee5 e 0 QtPrivate::SequentialContainerConverterHelper<QQmlListProperty<SocketIO>, false>::registerConverter(int)
FUNC 36ef3 e 0 QtPrivate::AssociativeContainerConverterHelper<QQmlListProperty<SocketIO>, false>::registerConverter(int)
FUNC 36f01 e 0 QtPrivate::IsPair<QQmlListProperty<SocketIO> >::registerConverter(int)
FUNC 36f0f e 0 QtPrivate::MetaTypeSmartPointerHelper<QQmlListProperty<SocketIO>, void>::registerConverter(int)
FUNC 36f1d b 0 QQmlPrivate::AttachedPropertySelector<SocketIO, 0>::func()
FUNC 36f28 b 0 QQmlPrivate::AttachedPropertySelector<SocketIO, 0>::metaObject()
FUNC 36f33 b 0 QQmlPrivate::StaticCastSelectorClass<SocketIO, QQmlParserStatus, 1>::cast()
FUNC 36f3e b 0 QQmlPrivate::StaticCastSelectorClass<SocketIO, QQmlPropertyValueSource, 1>::cast()
FUNC 36f49 b 0 QQmlPrivate::StaticCastSelectorClass<SocketIO, QQmlPropertyValueInterceptor, 1>::cast()
FUNC 36f54 e8 0 QMetaTypeIdQObject<AppUpdater*, 8>::qt_metatype_id()
FUNC 3703c b 0 QtMetaTypePrivate::QMetaTypeFunctionHelper<AppUpdater*, true>::Destruct(void*)
FUNC 37047 4c 0 QtMetaTypePrivate::QMetaTypeFunctionHelper<AppUpdater*, true>::Construct(void*, void const*)
FUNC 37093 d 0 QtPrivate::MetaObjectForType<AppUpdater*, void>::value()
FUNC 370a0 e 0 QtPrivate::SequentialContainerConverterHelper<AppUpdater*, false>::registerConverter(int)
FUNC 370ae e 0 QtPrivate::AssociativeContainerConverterHelper<AppUpdater*, false>::registerConverter(int)
FUNC 370bc e 0 QtPrivate::IsPair<AppUpdater*>::registerConverter(int)
FUNC 370ca e 0 QtPrivate::MetaTypeSmartPointerHelper<AppUpdater*, void>::registerConverter(int)
FUNC 370d8 b 0 QtMetaTypePrivate::QMetaTypeFunctionHelper<QQmlListProperty<AppUpdater>, true>::Destruct(void*)
FUNC 370e3 a1 0 QtMetaTypePrivate::QMetaTypeFunctionHelper<QQmlListProperty<AppUpdater>, true>::Construct(void*, void const*)
FUNC 37184 b 0 QtPrivate::MetaObjectForType<QQmlListProperty<AppUpdater>, void>::value()
FUNC 3718f e 0 QtPrivate::SequentialContainerConverterHelper<QQmlListProperty<AppUpdater>, false>::registerConverter(int)
FUNC 3719d e 0 QtPrivate::AssociativeContainerConverterHelper<QQmlListProperty<AppUpdater>, false>::registerConverter(int)
FUNC 371ab e 0 QtPrivate::IsPair<QQmlListProperty<AppUpdater> >::registerConverter(int)
FUNC 371b9 e 0 QtPrivate::MetaTypeSmartPointerHelper<QQmlListProperty<AppUpdater>, void>::registerConverter(int)
FUNC 371c7 b 0 QQmlPrivate::AttachedPropertySelector<AppUpdater, 0>::func()
FUNC 371d2 b 0 QQmlPrivate::AttachedPropertySelector<AppUpdater, 0>::metaObject()
FUNC 371dd b 0 QQmlPrivate::StaticCastSelectorClass<AppUpdater, QQmlParserStatus, 1>::cast()
FUNC 371e8 b 0 QQmlPrivate::StaticCastSelectorClass<AppUpdater, QQmlPropertyValueSource, 1>::cast()
FUNC 371f3 b 0 QQmlPrivate::StaticCastSelectorClass<AppUpdater, QQmlPropertyValueInterceptor, 1>::cast()
FUNC 371fe 38 0 QtSharedPointer::CustomDeleter<AutomationStudio, QtSharedPointer::NormalDeleter>::execute()
FUNC 37236 1a 0 QtSharedPointer::CustomDeleter<AutomationStudio, QtSharedPointer::NormalDeleter>::CustomDeleter(AutomationStudio*, QtSharedPointer::NormalDeleter)
FUNC 37250 6a 0 QQmlListProperty<AutomationStudio>::QQmlListProperty()
FUNC 372ba 6a 0 QQmlListProperty<QCoreApplication>::QQmlListProperty()
FUNC 37324 6a 0 QQmlListProperty<Settings>::QQmlListProperty()
FUNC 3738e 6a 0 QQmlListProperty<Utilities>::QQmlListProperty()
FUNC 373f8 6a 0 QQmlListProperty<SystemSettings>::QQmlListProperty()
FUNC 37462 6a 0 QQmlListProperty<SocketIO>::QQmlListProperty()
FUNC 374cc 6a 0 QQmlListProperty<AppUpdater>::QQmlListProperty()
FUNC 37536 1a 0 QtPrivate::ApplyReturnValue<void>::ApplyReturnValue(void*)
FUNC 37550 1f 0 __gthread_active_p
FUNC 3756f 1a 0 __gnu_cxx::__exchange_and_add
FUNC 37589 18 0 __gnu_cxx::__atomic_add
FUNC 375a1 2a 0 __gnu_cxx::__exchange_and_add_single
FUNC 375cb 1f 0 __gnu_cxx::__atomic_add_single
FUNC 375ea 43 0 __gnu_cxx::__exchange_and_add_dispatch
FUNC 3762d 44 0 __gnu_cxx::__atomic_add_dispatch
FUNC 3802a a70 0 Settings::Settings(QObject*, QString)
FUNC 38d6c 4a7 0 Settings::registerApp()
FUNC 39214 16b 0 Settings::~Settings()
FUNC 39380 2b 0 Settings::~Settings()
FUNC 393ac 9b4 0 Settings::load()
FUNC 39d60 826 0 Settings::save()
FUNC 3a586 b 0 Settings::updateBaseSettings()
FUNC 3a592 8ee 0 Settings::loadBaseSettings()
FUNC 3ae80 1f 0 Settings::initSocketIO()
FUNC 3aea0 69 0 Settings::backupConfigs()
FUNC 3af0a 47 0 Settings::setBasefileLoaded(bool)
FUNC 3af52 b3 0 Settings::check_new_firmware()
FUNC 3b006 e5 0 Settings::update_new_firmware()
FUNC 3b0ec 2e 0 Settings::Serialize(QJsonObject&)
FUNC 3b120 206 0 Settings::DeSerialize(QJsonObject&)
FUNC 3b32f e 0 std::move<Settings::Settings(QObject*, QString)::<lambda()>&>
FUNC 3b33d bd 0 QObject::connect<void (AppUpdater::*)(), Settings::Settings(QObject*, QString)::<lambda()> >
FUNC 3b3fa e 0 std::move<Settings::Settings(QObject*, QString)::<lambda(QString)>&>
FUNC 3b408 bd 0 QObject::connect<void (SocketIO::*)(QString), Settings::Settings(QObject*, QString)::<lambda(QString)> >
FUNC 3b4c5 e 0 std::move<Settings::Settings(QObject*, QString)::<lambda()>::<lambda(const sio::message::list&)>&>
FUNC 3b4d4 99 0 std::function<void(const sio::message::list&)>::function<Settings::Settings(QObject*, QString)::<lambda()>::<lambda(const sio::message::list&)> >
FUNC 3b56d e 0 std::move<Settings::Settings(QObject*, QString)::<lambda()>&>
FUNC 3b57b bd 0 QObject::connect<void (SocketIO::*)(), Settings::Settings(QObject*, QString)::<lambda()> >
FUNC 3b638 e 0 std::move<Settings::registerApp()::<lambda(const sio::message::list&)>&>
FUNC 3b646 99 0 std::function<void(const sio::message::list&)>::function<Settings::registerApp()::<lambda(const sio::message::list&)> >
FUNC 3b6e0 40 0 QtPrivate::QFunctorSlotObject<Settings::Settings(QObject*, QString)::<lambda()>, 0, QtPrivate::List<>, void>::QFunctorSlotObject
FUNC 3b720 40 0 QtPrivate::QFunctorSlotObject<Settings::Settings(QObject*, QString)::<lambda(QString)>, 1, QtPrivate::List<QString>, void>::QFunctorSlotObject
FUNC 3b760 f 0 std::_Function_base::_Base_manager<Settings::Settings(QObject*, QString)::<lambda()>::<lambda(const sio::message::list&)> >::_M_not_empty_function<Settings::Settings(QObject*, QString)::<lambda()>::<lambda(const sio::message::list&)> >
FUNC 3b76f 3f 0 std::_Function_base::_Base_manager<Settings::Settings(QObject*, QString)::<lambda()>::<lambda(const sio::message::list&)> >::_M_init_functor
FUNC 3b7ae 3f 0 std::_Function_handler<void(const sio::message::list&), Settings::Settings(QObject*, QString)::<lambda()>::<lambda(const sio::message::list&)> >::_M_invoke
FUNC 3b7ed ae 0 std::_Function_base::_Base_manager<Settings::Settings(QObject*, QString)::<lambda()>::<lambda(const sio::message::list&)> >::_M_manager
FUNC 3b89c 40 0 QtPrivate::QFunctorSlotObject<Settings::Settings(QObject*, QString)::<lambda()>, 0, QtPrivate::List<>, void>::QFunctorSlotObject
FUNC 3b8dc f 0 std::_Function_base::_Base_manager<Settings::registerApp()::<lambda(const sio::message::list&)> >::_M_not_empty_function<Settings::registerApp()::<lambda(const sio::message::list&)> >
FUNC 3b8eb 3f 0 std::_Function_base::_Base_manager<Settings::registerApp()::<lambda(const sio::message::list&)> >::_M_init_functor
FUNC 3b92a 3f 0 std::_Function_handler<void(const sio::message::list&), Settings::registerApp()::<lambda(const sio::message::list&)> >::_M_invoke
FUNC 3b969 ae 0 std::_Function_base::_Base_manager<Settings::registerApp()::<lambda(const sio::message::list&)> >::_M_manager
FUNC 3ba18 1b 0 QtPrivate::QFunctorSlotObject<Settings::Settings(QObject*, QString)::<lambda()>, 0, QtPrivate::List<>, void>::~QFunctorSlotObject
FUNC 3ba33 70 0 QtPrivate::QFunctorSlotObject<Settings::Settings(QObject*, QString)::<lambda()>, 0, QtPrivate::List<>, void>::impl
FUNC 3baa4 1b 0 QtPrivate::QFunctorSlotObject<Settings::Settings(QObject*, QString)::<lambda(QString)>, 1, QtPrivate::List<QString>, void>::~QFunctorSlotObject
FUNC 3babf 70 0 QtPrivate::QFunctorSlotObject<Settings::Settings(QObject*, QString)::<lambda(QString)>, 1, QtPrivate::List<QString>, void>::impl
FUNC 3bb2f 4c 0 std::_Function_base::_Base_manager<Settings::Settings(QObject*, QString)::<lambda()>::<lambda(const sio::message::list&)> >::_M_init_functor
FUNC 3bb7b 2a 0 std::_Function_base::_Base_manager<Settings::Settings(QObject*, QString)::<lambda()>::<lambda(const sio::message::list&)> >::_M_get_pointer
FUNC 3bba6 1a 0 std::_Any_data::_M_access<Settings::Settings(QObject*, QString)::<lambda()>::<lambda(const sio::message::list&)>*>
FUNC 3bbc0 4c 0 std::_Function_base::_Base_manager<Settings::Settings(QObject*, QString)::<lambda()>::<lambda(const sio::message::list&)> >::_M_clone
FUNC 3bc0c 1b 0 std::_Function_base::_Base_manager<Settings::Settings(QObject*, QString)::<lambda()>::<lambda(const sio::message::list&)> >::_M_destroy
FUNC 3bc28 1b 0 QtPrivate::QFunctorSlotObject<Settings::Settings(QObject*, QString)::<lambda()>, 0, QtPrivate::List<>, void>::~QFunctorSlotObject
FUNC 3bc43 70 0 QtPrivate::QFunctorSlotObject<Settings::Settings(QObject*, QString)::<lambda()>, 0, QtPrivate::List<>, void>::impl
FUNC 3bcb3 4c 0 std::_Function_base::_Base_manager<Settings::registerApp()::<lambda(const sio::message::list&)> >::_M_init_functor
FUNC 3bcff 2a 0 std::_Function_base::_Base_manager<Settings::registerApp()::<lambda(const sio::message::list&)> >::_M_get_pointer
FUNC 3bd2a 1a 0 std::_Any_data::_M_access<Settings::registerApp()::<lambda(const sio::message::list&)>*>
FUNC 3bd44 4c 0 std::_Function_base::_Base_manager<Settings::registerApp()::<lambda(const sio::message::list&)> >::_M_clone
FUNC 3bd90 1b 0 std::_Function_base::_Base_manager<Settings::registerApp()::<lambda(const sio::message::list&)> >::_M_destroy
FUNC 3bdab 2a 0 QtPrivate::Functor<Settings::Settings(QObject*, QString)::<lambda()>, 0>::call<QtPrivate::List<>, void>
FUNC 3bdd5 2a 0 QtPrivate::Functor<Settings::Settings(QObject*, QString)::<lambda(QString)>, 1>::call<QtPrivate::List<QString>, void>
FUNC 3be00 1a 0 std::_Any_data::_M_access<Settings::Settings(QObject*, QString)::<lambda()>::<lambda(const sio::message::list&)> >
FUNC 3be1a e 0 std::__addressof<const Settings::Settings(QObject*, QString)::<lambda()>::<lambda(const sio::message::list&)> >
FUNC 3be28 1a 0 std::_Any_data::_M_access<Settings::Settings(QObject*, QString)::<lambda()>::<lambda(const sio::message::list&)> >
FUNC 3be42 2a 0 QtPrivate::Functor<Settings::Settings(QObject*, QString)::<lambda()>, 0>::call<QtPrivate::List<>, void>
FUNC 3be6c 1a 0 std::_Any_data::_M_access<Settings::registerApp()::<lambda(const sio::message::list&)> >
FUNC 3be86 e 0 std::__addressof<const Settings::registerApp()::<lambda(const sio::message::list&)> >
FUNC 3be94 1a 0 std::_Any_data::_M_access<Settings::registerApp()::<lambda(const sio::message::list&)> >
FUNC 3beae 35 0 QtPrivate::FunctorCall<QtPrivate::IndexesList<>, QtPrivate::List<>, void, Settings::Settings(QObject*, QString)::<lambda()> >::call
FUNC 3bee3 83 0 QtPrivate::FunctorCall<QtPrivate::IndexesList<0>, QtPrivate::List<QString>, void, Settings::Settings(QObject*, QString)::<lambda(QString)> >::call
FUNC 3bf66 35 0 QtPrivate::FunctorCall<QtPrivate::IndexesList<>, QtPrivate::List<>, void, Settings::Settings(QObject*, QString)::<lambda()> >::call
FUNC 3bf9b 49 0 __static_initialization_and_destruction_0
FUNC 3bfe4 15 0 _GLOBAL__sub_I_settings.cpp
FUNC 3bffa 1a 0 QChar::QChar(int)
FUNC 3c014 4f 0 qstrnlen(char const*, unsigned int)
FUNC 3c064 14 0 QString::size() const
FUNC 3c078 5f 0 QString::QString(QByteArray const&)
FUNC 3c0d8 19 0 QString::isEmpty() const
FUNC 3c0f2 53 0 QString::operator==(char const*) const
FUNC 3c145 62 0 operator+(QString const&, QString const&)
FUNC 3c1a8 4a 0 QString::fromStdString(std::__cxx11::basic_string<char, std::char_traits<char>, std::allocator<char> > const&)
FUNC 3c1f2 e 0 std::_Any_data::_M_access()
FUNC 3c200 e 0 std::_Any_data::_M_access() const
FUNC 3c20e 17 0 std::_Function_base::_Function_base()
FUNC 3c226 36 0 std::_Function_base::~_Function_base()
FUNC 3c25c 82 0 QJsonValue::QJsonValue(char const*)
FUNC 3c2de 64 0 QJsonValueRef::toBool() const
FUNC 3c342 6b 0 QJsonValueRef::toString() const
FUNC 3c3ae 48 0 QIODevice::write(QByteArray const&)
FUNC 3c3f6 25 0 JsonSerializable::JsonSerializable()
FUNC 3c41c 12 0 Project::isDefault() const
FUNC 3c42e 2d 0 AppUpdater::serverUrl() const
FUNC 3c45c 11 0 sio::message::get_flag() const
FUNC 3c46e 1f 0 std::__shared_ptr<sio::message, (__gnu_cxx::_Lock_policy)2>::~__shared_ptr()
FUNC 3c48e 1b 0 std::shared_ptr<sio::message>::~shared_ptr()
FUNC 3c4aa 1a 0 sio::message::list::size() const
FUNC 3c4c4 25 0 sio::message::list::at(unsigned long) const
FUNC 3c4ea 9d 0 SocketIO::setServerUrl(QString)
FUNC 3c588 12 0 User::isDefault() const
FUNC 3c59a 2d 0 Settings::source() const
FUNC 3c5c8 15 0 Settings::appUpdater() const
FUNC 3c5de 30 0 Settings::appID() const
FUNC 3c60e 9d 0 Settings::setSource(QString)
FUNC 3c6ac 47 0 Settings::setLoaded(bool)
FUNC 3c6f4 46 0 Settings::setCurrentUser(User*)
FUNC 3c73a 47 0 Settings::setAppRegistred(bool)
FUNC 3c782 a6 0 Settings::setAppID(QString)
FUNC 3c828 bb 0 Settings::setSelectedProject(Project*)
FUNC 3c8e4 50 0 Settings::setUseRemoteSettings(bool)
FUNC 3c934 a6 0 Settings::setRemoteSettingsBaseLocation(QString)
FUNC 3c9da 50 0 Settings::setNewFirmwareAvailable(bool)
FUNC 3ca2a 50 0 Settings::setSelectingProject(bool)
FUNC 3ca7a 15 0 Settings::useRemoteSettings() const
FUNC 3ca90 30 0 Settings::remoteSettingsBaseLocation() const
FUNC 3cac0 1b 0 QtPrivate::QForeachContainer<QList<QNetworkInterface> >::~QForeachContainer()
FUNC 3cadc 1b 0 std::function<void (sio::message::list const&)>::~function()
FUNC 3caf8 3c 0 std::__shared_ptr<sio::message, (__gnu_cxx::_Lock_policy)2>::__shared_ptr(std::__shared_ptr<sio::message, (__gnu_cxx::_Lock_policy)2> const&)
FUNC 3cb34 26 0 std::shared_ptr<sio::message>::shared_ptr(std::shared_ptr<sio::message> const&)
FUNC 3cb5a 2a 0 std::__shared_count<(__gnu_cxx::_Lock_policy)2>::~__shared_count()
FUNC 3cb84 3c 0 std::__shared_count<(__gnu_cxx::_Lock_policy)2>::__shared_count(std::__shared_count<(__gnu_cxx::_Lock_policy)2> const&)
FUNC 3cbc0 26 0 std::vector<std::shared_ptr<sio::message>, std::allocator<std::shared_ptr<sio::message> > >::size() const
FUNC 3cbe6 20 0 std::vector<std::shared_ptr<sio::message>, std::allocator<std::shared_ptr<sio::message> > >::operator[](unsigned long) const
FUNC 3cc06 11 0 std::__shared_ptr<sio::message, (__gnu_cxx::_Lock_policy)2>::operator->() const
FUNC 3cc18 47 0 QList<QNetworkInterface>::~QList()
FUNC 3cc5f e 0 QList<QNetworkInterface>&& std::forward<QList<QNetworkInterface> >(std::remove_reference<QList<QNetworkInterface> >::type&)
FUNC 3cc6d 34 0 QtPrivate::QForeachContainer<std::decay<QList<QNetworkInterface> >::type> QtPrivate::qMakeForeachContainer<QList<QNetworkInterface> >(QList<QNetworkInterface>&&)
FUNC 3cca1 e 0 std::remove_reference<QList<QNetworkInterface>&>::type&& std::move<QList<QNetworkInterface>&>(QList<QNetworkInterface>&)
FUNC 3ccaf e 0 std::add_const<QList<QNetworkInterface> >::type& qAsConst<QList<QNetworkInterface> >(QList<QNetworkInterface>&)
FUNC 3ccbe 22 0 QList<QNetworkInterface>::const_iterator::operator!=(QList<QNetworkInterface>::const_iterator const&) const
FUNC 3cce0 20 0 QList<QNetworkInterface>::const_iterator::operator++()
FUNC 3cd00 1d 0 QList<QNetworkInterface>::const_iterator::operator*() const
FUNC 3cd1e b 0 std::unary_function<sio::message::list const&, void>::unary_function()
FUNC 3cd2a 1b 0 std::_Maybe_unary_or_binary_function<void, sio::message::list const&>::_Maybe_unary_or_binary_function()
FUNC 3cd46 2b 0 std::function<void (sio::message::list const&)>::function(decltype(nullptr))
FUNC 3cd72 1a 0 QList<QString>::length() const
FUNC 3cd8c 7b 0 std::_Sp_counted_base<(__gnu_cxx::_Lock_policy)2>::_M_release()
FUNC 3ce08 24 0 std::_Sp_counted_base<(__gnu_cxx::_Lock_policy)2>::_M_add_ref_copy()
FUNC 3ce2c b 0 QListSpecialMethods<QNetworkInterface>::~QListSpecialMethods()
FUNC 3ce38 5e 0 QList<QNetworkInterface>::dealloc(QListData::Data*)
FUNC 3ce96 80 0 QtPrivate::QForeachContainer<QList<QNetworkInterface> >::QForeachContainer(QList<QNetworkInterface>&&)
FUNC 3cf16 34 0 QList<QNetworkInterface>::begin() const
FUNC 3cf4a 34 0 QList<QNetworkInterface>::end() const
FUNC 3cf7e b 0 QListSpecialMethods<QNetworkInterface>::QListSpecialMethods()
FUNC 3cf8a 3b 0 QList<QNetworkInterface>::QList(QList<QNetworkInterface>&&)
FUNC 3cfc6 e 0 QList<QNetworkInterface>::Node::t()
FUNC 3cfd4 d 0 QtPrivate::ConnectionTypes<QtPrivate::List<QString>, true>::types()
FUNC 3cfe1 e 0 sio::message::list const& std::forward<sio::message::list const&>(std::remove_reference<sio::message::list const&>::type&)
FUNC 3cff0 1a 0 std::type_info const*& std::_Any_data::_M_access<std::type_info const*>()
FUNC 3d00a 34 0 QList<QNetworkInterface>::node_destruct(QList<QNetworkInterface>::Node*, QList<QNetworkInterface>::Node*)
FUNC 3d03e 1a 0 QList<QNetworkInterface>::const_iterator::const_iterator(QList<QNetworkInterface>::Node*)
FUNC 3d058 2a 0 qInitResources_application_qmlcache()
FUNC 3d082 2a 0 qCleanupResources_application_qmlcache()
FUNC 3d0ac 14 0 initializer::initializer
FUNC 3d0c0 14 0 initializer::~initializer
FUNC 3d0d4 46 0 __static_initialization_and_destruction_0
FUNC 3d11a 15 0 _GLOBAL__sub_I_qrc_application_qmlcache.cpp
FUNC 3d172 1b 0 Registry::~Registry
FUNC 3d20f 91 0 Q_QGS_unitRegistry::innerFunction
FUNC 3d314 122 0 Registry::Registry
FUNC 3d436 1b3 0 Registry::lookupCachedUnit
FUNC 3d5e9 1c 0 qInitResources_application()
FUNC 3d606 14 0 qInitResources_application_ctor_class_::qInitResources_application_ctor_class_
FUNC 3d61a 10 0 qCleanupResources_application()
FUNC 3d62a 2a 0 QGlobalStatic<(anonymous namespace)::Registry, (anonymous namespace)::(anonymous namespace)::Q_QGS_unitRegistry::innerFunction, (anonymous namespace)::(anonymous namespace)::Q_QGS_unitRegistry::guard>::operator()
FUNC 3d654 20 0 QGlobalStatic<(anonymous namespace)::Registry, (anonymous namespace)::(anonymous namespace)::Q_QGS_unitRegistry::innerFunction, (anonymous namespace)::(anonymous namespace)::Q_QGS_unitRegistry::guard>::isDestroyed
FUNC 3d674 2c 0 __static_initialization_and_destruction_0
FUNC 3d6a0 15 0 _GLOBAL__sub_I_qmlcache_loader.cpp
FUNC 3d6b6 1a 0 QLatin1Char::QLatin1Char(char)
FUNC 3d6d0 14 0 QLatin1Char::unicode() const
FUNC 3d6e4 28 0 QChar::QChar(QLatin1Char)
FUNC 3d70c 41 0 QLatin1String::QLatin1String(char const*)
FUNC 3d74e 27 0 QString::prepend(QChar)
FUNC 3d776 36 0 QString::operator!=(QLatin1String) const
FUNC 3d7ac 46 0 QHashData::willGrow()
FUNC 3d7f2 17 0 QFlags<QUrl::ComponentFormattingOption>::QFlags(QUrl::ComponentFormattingOption)
FUNC 3d80a 3f 0 QHash<QString, QQmlPrivate::CachedQmlUnit const*>::~QHash()
FUNC 3d84a 19 0 QHash<QString, QQmlPrivate::CachedQmlUnit const*>::QHash()
FUNC 3d864 e 0 QStaticStringData<9>::data_ptr() const
FUNC 3d872 df 0 QHash<QString, QQmlPrivate::CachedQmlUnit const*>::insert(QString const&, QQmlPrivate::CachedQmlUnit const* const&)
FUNC 3d952 e 0 QStaticStringData<17>::data_ptr() const
FUNC 3d960 71 0 QHash<QString, QQmlPrivate::CachedQmlUnit const*>::value(QString const&, QQmlPrivate::CachedQmlUnit const* const&) const
FUNC 3d9d2 29 0 QHash<QString, QQmlPrivate::CachedQmlUnit const*>::freeData(QHashData*)
FUNC 3d9fc 32 0 QHash<QString, QQmlPrivate::CachedQmlUnit const*>::detach()
FUNC 3da2e 73 0 QHash<QString, QQmlPrivate::CachedQmlUnit const*>::findNode(QString const&, unsigned int*) const
FUNC 3daa2 ae 0 QHash<QString, QQmlPrivate::CachedQmlUnit const*>::findNode(QString const&, unsigned int) const
FUNC 3db50 9b 0 QHash<QString, QQmlPrivate::CachedQmlUnit const*>::createNode(unsigned int, QString const&, QQmlPrivate::CachedQmlUnit const* const&, QHashNode<QString, QQmlPrivate::CachedQmlUnit const*>**)
FUNC 3dbec 1a 0 QHash<QString, QQmlPrivate::CachedQmlUnit const*>::iterator::iterator(void*)
FUNC 3dc06 1f 0 QHashNode<QString, QQmlPrivate::CachedQmlUnit const*>::~QHashNode()
FUNC 3dc26 23 0 QHash<QString, QQmlPrivate::CachedQmlUnit const*>::deleteNode2(QHashData::Node*)
FUNC 3dc4a 7a 0 QHash<QString, QQmlPrivate::CachedQmlUnit const*>::detach_helper()
FUNC 3dcc4 48 0 QHashNode<QString, QQmlPrivate::CachedQmlUnit const*>::same_key(unsigned int, QString const&) const
FUNC 3dd0c 2d 0 QHash<QString, QQmlPrivate::CachedQmlUnit const*>::alignOfNode()
FUNC 3dd3a 59 0 QHashNode<QString, QQmlPrivate::CachedQmlUnit const*>::QHashNode(QString const&, QQmlPrivate::CachedQmlUnit const* const&, unsigned int, QHashNode<QString, QQmlPrivate::CachedQmlUnit const*>*)
FUNC 3dd93 e 0 QHash<QString, QQmlPrivate::CachedQmlUnit const*>::concrete(QHashData::Node*)
FUNC 3dda2 63 0 QHash<QString, QQmlPrivate::CachedQmlUnit const*>::duplicateNode(QHashData::Node*, void*)
FUNC 3de06 867 0 AutomationStudio::qt_static_metacall(QObject*, QMetaObject::Call, int, void**)
FUNC 3e66e 48 0 AutomationStudio::metaObject() const
FUNC 3e6b6 50 0 AutomationStudio::qt_metacast(char const*)
FUNC 3e706 103 0 AutomationStudio::qt_metacall(QMetaObject::Call, int, void**)
FUNC 3e80a 4a 0 AutomationStudio::systemSettingsChanged(SystemSettings*)
FUNC 3e854 4a 0 AutomationStudio::coreApplicationChanged(QCoreApplication*)
FUNC 3e89e 4a 0 AutomationStudio::releaseVersionChanged(QString)
FUNC 3e8e8 4a 0 AutomationStudio::buildInfoChanged(QString)
FUNC 3e932 12 0 AutomationStudio::systemSettings() const
FUNC 3e944 12 0 AutomationStudio::utilities() const
FUNC 3e956 2d 0 AutomationStudio::releaseVersion() const
FUNC 3e984 2d 0 AutomationStudio::buildInfo() const
FUNC 3e9b2 12 0 AutomationStudio::settings()
FUNC 3e9c4 b 0 int qMetaTypeId<SystemSettings*>()
FUNC 3e9cf b 0 int qRegisterMetaType<SystemSettings*>()
FUNC 3e9da b 0 int qMetaTypeId<QCoreApplication*>()
FUNC 3e9e5 b 0 int qRegisterMetaType<QCoreApplication*>()
FUNC 3e9f0 b 0 int qMetaTypeId<Utilities*>()
FUNC 3e9fb b 0 int qRegisterMetaType<Utilities*>()
FUNC 3ea06 11 0 QScopedPointer<QObjectData, QScopedPointerDeleter<QObjectData> >::operator->() const
FUNC 3ea18 2270 0 Settings::qt_static_metacall(QObject*, QMetaObject::Call, int, void**)
FUNC 40c88 48 0 Settings::metaObject() const
FUNC 40cd0 92 0 Settings::qt_metacast(char const*)
FUNC 40d62 103 0 Settings::qt_metacall(QMetaObject::Call, int, void**)
FUNC 40e66 4a 0 Settings::sourceChanged(QString)
FUNC 40eb0 4b 0 Settings::loadedChanged(bool)
FUNC 40efc 4a 0 Settings::usersChanged(UsersListModel*)
FUNC 40f46 4a 0 Settings::currentUserChanged(User*)
FUNC 40f90 4a 0 Settings::selectedLanguageChanged(QString)
FUNC 40fda 4b 0 Settings::useVirtualKeyboardChanged(bool)
FUNC 41026 4b 0 Settings::basefileLoadedChanged(bool)
FUNC 41072 4a 0 Settings::socketIOServerChanged(QString)
FUNC 410bc 4a 0 Settings::socketIOChanged(SocketIO*)
FUNC 41106 4b 0 Settings::appRegistredChanged(bool)
FUNC 41152 4a 0 Settings::doUpdate(QString)
FUNC 4119c 2c 0 Settings::updateDone()
FUNC 411c8 4a 0 Settings::appIDChanged(QString)
FUNC 41212 4a 0 Settings::appUpdaterChanged(AppUpdater*)
FUNC 4125c 4a 0 Settings::projectsFileChanged(QString)
FUNC 412a6 4a 0 Settings::projectsChanged(ProjectsListModel*)
FUNC 412f0 4b 0 Settings::basefileErrorChanged(bool)
FUNC 4133c 4a 0 Settings::selectedProjectChanged(Project*)
FUNC 41386 4b 0 Settings::useKeyboardChanged(bool)
FUNC 413d2 4b 0 Settings::useRemoteSettingsChanged(bool)
FUNC 4141e 4a 0 Settings::remoteSettingsBaseLocationChanged(QString)
FUNC 41468 4b 0 Settings::newFirmwareAvailableChanged(bool)
FUNC 414b4 4b 0 Settings::upgradingFirmwareChanged(bool)
FUNC 41500 4b 0 Settings::selectingProjectChanged(bool)
FUNC 4154b 49 0 __static_initialization_and_destruction_0
FUNC 41594 15 0 _GLOBAL__sub_I_moc_settings.cpp
FUNC 415aa 12 0 Settings::loaded() const
FUNC 415bc 2d 0 Settings::sysInfo() const
FUNC 415ea 2d 0 Settings::cpuType() const
FUNC 41618 12 0 Settings::users() const
FUNC 4162a 12 0 Settings::currentUser() const
FUNC 4163c 2d 0 Settings::selectedLanguage() const
FUNC 4166a 12 0 Settings::useVirtualKeyboard() const
FUNC 4167c 12 0 Settings::basefileLoaded() const
FUNC 4168e 12 0 Settings::socketIO() const
FUNC 416a0 12 0 Settings::appRegistred() const
FUNC 416b2 9d 0 Settings::setSelectedanguage(QString)
FUNC 41750 47 0 Settings::setUseVirtualKeyboard(bool)
FUNC 41798 46 0 Settings::setSocketIO(SocketIO*)
FUNC 417de a6 0 Settings::setProjectsFile(QString)
FUNC 41884 4f 0 Settings::setProjects(ProjectsListModel*)
FUNC 418d4 36 0 Settings::setUsers(UsersListModel*)
FUNC 4190a 4f 0 Settings::setAppUpdater(AppUpdater*)
FUNC 4195a 50 0 Settings::setUseKeyboard(bool)
FUNC 419aa 50 0 Settings::setUpgradingFirmware(bool)
FUNC 419fa 15 0 Settings::projects() const
FUNC 41a10 15 0 Settings::basefileError() const
FUNC 41a26 15 0 Settings::selectedProject() const
FUNC 41a3c 15 0 Settings::useKeyboard() const
FUNC 41a52 15 0 Settings::newFirmwareAvailable() const
FUNC 41a68 15 0 Settings::upgradingFirmware() const
FUNC 41a7e 15 0 Settings::selectingProject() const
FUNC 41a93 e 0 std::remove_reference<bool&>::type&& std::move<bool&>(bool&)
FUNC 41aa1 b 0 QMetaTypeId2<UsersListModel*>::qt_metatype_id()
FUNC 41aac b 0 int qMetaTypeId<UsersListModel*>()
FUNC 41ab7 b 0 int qRegisterMetaType<UsersListModel*>()
FUNC 41ac2 b 0 QMetaTypeId2<User*>::qt_metatype_id()
FUNC 41acd b 0 int qMetaTypeId<User*>()
FUNC 41ad8 b 0 int qRegisterMetaType<User*>()
FUNC 41ae3 b 0 int qMetaTypeId<SocketIO*>()
FUNC 41aee b 0 int qRegisterMetaType<SocketIO*>()
FUNC 41af9 b 0 int qMetaTypeId<AppUpdater*>()
FUNC 41b04 b 0 int qRegisterMetaType<AppUpdater*>()
FUNC 41b0f b 0 QMetaTypeId2<ProjectsListModel*>::qt_metatype_id()
FUNC 41b1a b 0 int qMetaTypeId<ProjectsListModel*>()
FUNC 41b25 b 0 int qRegisterMetaType<ProjectsListModel*>()
FUNC 41b30 b 0 QMetaTypeId2<Project*>::qt_metatype_id()
FUNC 41b3b b 0 int qMetaTypeId<Project*>()
FUNC 41b46 b 0 int qRegisterMetaType<Project*>()
FUNC 41b51 e8 0 QMetaTypeIdQObject<UsersListModel*, 8>::qt_metatype_id()
FUNC 41c39 e8 0 QMetaTypeIdQObject<User*, 8>::qt_metatype_id()
FUNC 41d21 e8 0 QMetaTypeIdQObject<ProjectsListModel*, 8>::qt_metatype_id()
FUNC 41e09 e8 0 QMetaTypeIdQObject<Project*, 8>::qt_metatype_id()
FUNC 41ef1 b 0 QtPrivate::QMetaTypeIdHelper<UsersListModel*, true>::qt_metatype_id()
FUNC 41efc c9 0 int qRegisterNormalizedMetaType<UsersListModel*>(QByteArray const&, UsersListModel**, QtPrivate::MetaTypeDefinedHelper<UsersListModel*, QMetaTypeId2<UsersListModel*>::Defined&&(!QMetaTypeId2<UsersListModel*>::IsBuiltIn)>::DefinedType)
FUNC 41fc5 b 0 QtPrivate::QMetaTypeIdHelper<User*, true>::qt_metatype_id()
FUNC 41fd0 c9 0 int qRegisterNormalizedMetaType<User*>(QByteArray const&, User**, QtPrivate::MetaTypeDefinedHelper<User*, QMetaTypeId2<User*>::Defined&&(!QMetaTypeId2<User*>::IsBuiltIn)>::DefinedType)
FUNC 42099 b 0 QtPrivate::QMetaTypeIdHelper<ProjectsListModel*, true>::qt_metatype_id()
FUNC 420a4 c9 0 int qRegisterNormalizedMetaType<ProjectsListModel*>(QByteArray const&, ProjectsListModel**, QtPrivate::MetaTypeDefinedHelper<ProjectsListModel*, QMetaTypeId2<ProjectsListModel*>::Defined&&(!QMetaTypeId2<ProjectsListModel*>::IsBuiltIn)>::DefinedType)
FUNC 4216d b 0 QtPrivate::QMetaTypeIdHelper<Project*, true>::qt_metatype_id()
FUNC 42178 c9 0 int qRegisterNormalizedMetaType<Project*>(QByteArray const&, Project**, QtPrivate::MetaTypeDefinedHelper<Project*, QMetaTypeId2<Project*>::Defined&&(!QMetaTypeId2<Project*>::IsBuiltIn)>::DefinedType)
FUNC 42241 b 0 QtMetaTypePrivate::QMetaTypeFunctionHelper<UsersListModel*, true>::Destruct(void*)
FUNC 4224c 4c 0 QtMetaTypePrivate::QMetaTypeFunctionHelper<UsersListModel*, true>::Construct(void*, void const*)
FUNC 42298 d 0 QtPrivate::MetaObjectForType<UsersListModel*, void>::value()
FUNC 422a5 e 0 QtPrivate::SequentialContainerConverterHelper<UsersListModel*, false>::registerConverter(int)
FUNC 422b3 e 0 QtPrivate::AssociativeContainerConverterHelper<UsersListModel*, false>::registerConverter(int)
FUNC 422c1 e 0 QtPrivate::IsPair<UsersListModel*>::registerConverter(int)
FUNC 422cf e 0 QtPrivate::MetaTypeSmartPointerHelper<UsersListModel*, void>::registerConverter(int)
FUNC 422dd b 0 QtMetaTypePrivate::QMetaTypeFunctionHelper<User*, true>::Destruct(void*)
FUNC 422e8 4c 0 QtMetaTypePrivate::QMetaTypeFunctionHelper<User*, true>::Construct(void*, void const*)
FUNC 42334 d 0 QtPrivate::MetaObjectForType<User*, void>::value()
FUNC 42341 e 0 QtPrivate::SequentialContainerConverterHelper<User*, false>::registerConverter(int)
FUNC 4234f e 0 QtPrivate::AssociativeContainerConverterHelper<User*, false>::registerConverter(int)
FUNC 4235d e 0 QtPrivate::IsPair<User*>::registerConverter(int)
FUNC 4236b e 0 QtPrivate::MetaTypeSmartPointerHelper<User*, void>::registerConverter(int)
FUNC 42379 b 0 QtMetaTypePrivate::QMetaTypeFunctionHelper<ProjectsListModel*, true>::Destruct(void*)
FUNC 42384 4c 0 QtMetaTypePrivate::QMetaTypeFunctionHelper<ProjectsListModel*, true>::Construct(void*, void const*)
FUNC 423d0 d 0 QtPrivate::MetaObjectForType<ProjectsListModel*, void>::value()
FUNC 423dd e 0 QtPrivate::SequentialContainerConverterHelper<ProjectsListModel*, false>::registerConverter(int)
FUNC 423eb e 0 QtPrivate::AssociativeContainerConverterHelper<ProjectsListModel*, false>::registerConverter(int)
FUNC 423f9 e 0 QtPrivate::IsPair<ProjectsListModel*>::registerConverter(int)
FUNC 42407 e 0 QtPrivate::MetaTypeSmartPointerHelper<ProjectsListModel*, void>::registerConverter(int)
FUNC 42415 b 0 QtMetaTypePrivate::QMetaTypeFunctionHelper<Project*, true>::Destruct(void*)
FUNC 42420 4c 0 QtMetaTypePrivate::QMetaTypeFunctionHelper<Project*, true>::Construct(void*, void const*)
FUNC 4246c d 0 QtPrivate::MetaObjectForType<Project*, void>::value()
FUNC 42479 e 0 QtPrivate::SequentialContainerConverterHelper<Project*, false>::registerConverter(int)
FUNC 42487 e 0 QtPrivate::AssociativeContainerConverterHelper<Project*, false>::registerConverter(int)
FUNC 42495 e 0 QtPrivate::IsPair<Project*>::registerConverter(int)
FUNC 424a3 e 0 QtPrivate::MetaTypeSmartPointerHelper<Project*, void>::registerConverter(int)
FUNC 424b2 36a 0 qcm::ContainerModel::qt_static_metacall(QObject*, QMetaObject::Call, int, void**)
FUNC 4281c 48 0 qcm::ContainerModel::metaObject() const
FUNC 42864 50 0 qcm::ContainerModel::qt_metacast(char const*)
FUNC 428b4 fa 0 qcm::ContainerModel::qt_metacall(QMetaObject::Call, int, void**)
FUNC 429ae 2c 0 qcm::ContainerModel::lengthChanged()
FUNC 429da 30 0 QByteArray::QByteArray(QByteArray const&)
FUNC 42a0a 12 0 qHash(int, unsigned int)
FUNC 42a1c 1b 0 QVariant::QVariant()
FUNC 42a38 42 0 QVariant::Private::Private()
FUNC 42a7a 38 0 QModelIndex::QModelIndex()
FUNC 42ab2 38 0 QModelIndex::isValid() const
FUNC 42aea 3d 0 qcm::ContainerModel::~ContainerModel()
FUNC 42b28 2b 0 qcm::ContainerModel::~ContainerModel()
FUNC 42b54 13 0 qcm::ContainerModel::rowCount(QModelIndex const&) const
FUNC 42b68 29 0 qcm::ContainerModel::data(QModelIndex const&, int) const
FUNC 42b92 96 0 qcm::ContainerModel::roleNames() const
FUNC 42c28 107 0 qcm::ContainerModel::itemDisplayPropertyChanged()
FUNC 42d30 3e 0 qcm::ContainerModel::getLength() const
FUNC 42d6e 13 0 qcm::ContainerModel::append(QObject*) const
FUNC 42d82 f 0 qcm::ContainerModel::remove(QObject*) const
FUNC 42d92 12 0 qcm::ContainerModel::at(int) const
FUNC 42da4 37 0 qcm::ContainerModel::contains(QObject*) const
FUNC 42ddc 13 0 qcm::ContainerModel::indexOf(QObject*) const
FUNC 42df0 f 0 qcm::ContainerModel::clear() const
FUNC 42dff e 0 std::remove_reference<int&>::type&& std::move<int&>(int&)
FUNC 42e0d e 0 std::remove_reference<QObject*&>::type&& std::move<QObject*&>(QObject*&)
FUNC 42e1c 1e 0 QVector<int>::QVector()
FUNC 42e3a 3b 0 QVector<int>::~QVector()
FUNC 42e76 19 0 QHash<int, QByteArray>::QHash()
FUNC 42e90 3f 0 QHash<int, QByteArray>::~QHash()
FUNC 42ed0 e5 0 QHash<int, QByteArray>::operator[](int const&)
FUNC 42fb5 b 0 QTypedArrayData<int>::sharedNull()
FUNC 42fc0 5f 0 QVector<int>::freeData(QTypedArrayData<int>*)
FUNC 43020 29 0 QHash<int, QByteArray>::freeData(QHashData*)
FUNC 4304a 32 0 QHash<int, QByteArray>::detach()
FUNC 4307c 74 0 QHash<int, QByteArray>::findNode(int const&, unsigned int*) const
FUNC 430f0 ae 0 QHash<int, QByteArray>::findNode(int const&, unsigned int) const
FUNC 4319e 9b 0 QHash<int, QByteArray>::createNode(unsigned int, int const&, QByteArray const&, QHashNode<int, QByteArray>**)
FUNC 4323a 13 0 QVector<int>::destruct(int*, int*)
FUNC 4324e 1e 0 QTypedArrayData<int>::begin(int*)
FUNC 4326c 31 0 QTypedArrayData<int>::end(int*)
FUNC 4329d 25 0 QTypedArrayData<int>::deallocate(QArrayData*)
FUNC 432c2 1f 0 QHashNode<int, QByteArray>::~QHashNode()
FUNC 432e2 23 0 QHash<int, QByteArray>::deleteNode2(QHashData::Node*)
FUNC 43306 7a 0 QHash<int, QByteArray>::detach_helper()
FUNC 43380 3a 0 QHashNode<int, QByteArray>::same_key(unsigned int, int const&) const
FUNC 433ba 2d 0 QHash<int, QByteArray>::alignOfNode()
FUNC 433e8 57 0 QHashNode<int, QByteArray>::QHashNode(int const&, QByteArray const&, unsigned int, QHashNode<int, QByteArray>*)
FUNC 43440 1a 0 QTypedArrayData<int>::data()
FUNC 4345a e 0 QHash<int, QByteArray>::concrete(QHashData::Node*)
FUNC 43468 63 0 QHash<int, QByteArray>::duplicateNode(QHashData::Node*, void*)
FUNC 434cc 85 0 qcm::AbstractContainer::qt_static_metacall(QObject*, QMetaObject::Call, int, void**)
FUNC 43552 48 0 qcm::AbstractContainer::metaObject() const
FUNC 4359a 50 0 qcm::AbstractContainer::qt_metacast(char const*)
FUNC 435ea ad 0 qcm::AbstractContainer::qt_metacall(QMetaObject::Call, int, void**)
FUNC 43697 59 0 QMetaTypeId<qcm::ContainerModel*>::qt_metatype_id()
FUNC 436f0 1b 0 QPointer<qcm::ContainerModel>::~QPointer()
FUNC 4370c 3d 0 qcm::AbstractContainer::~AbstractContainer()
FUNC 4374a 2b 0 qcm::AbstractContainer::~AbstractContainer()
FUNC 43776 4f 0 qcm::AbstractContainer::getModel()
FUNC 437c6 b 0 qcm::AbstractContainer::createModel()
FUNC 437d1 b 0 QMetaTypeId2<qcm::ContainerModel*>::qt_metatype_id()
FUNC 437dc b 0 int qMetaTypeId<qcm::ContainerModel*>()
FUNC 437e7 b 0 int qRegisterMetaType<qcm::ContainerModel*>()
FUNC 437f2 70 0 int qRegisterMetaType<qcm::ContainerModel*>(char const*, qcm::ContainerModel**, QtPrivate::MetaTypeDefinedHelper<qcm::ContainerModel*, QMetaTypeId2<qcm::ContainerModel*>::Defined&&(!QMetaTypeId2<qcm::ContainerModel*>::IsBuiltIn)>::DefinedType)
FUNC 43862 63 0 QWeakPointer<QObject>::~QWeakPointer()
FUNC 438c6 1a 0 QPointer<qcm::ContainerModel>::operator qcm::ContainerModel*() const
FUNC 438e0 1a 0 QPointer<qcm::ContainerModel>::data() const
FUNC 438fa b 0 QtPrivate::QMetaTypeIdHelper<qcm::ContainerModel*, true>::qt_metatype_id()
FUNC 43905 c9 0 int qRegisterNormalizedMetaType<qcm::ContainerModel*>(QByteArray const&, qcm::ContainerModel**, QtPrivate::MetaTypeDefinedHelper<qcm::ContainerModel*, QMetaTypeId2<qcm::ContainerModel*>::Defined&&(!QMetaTypeId2<qcm::ContainerModel*>::IsBuiltIn)>::DefinedType)
FUNC 439ce 40 0 QWeakPointer<QObject>::data() const
FUNC 43a0e b 0 QtMetaTypePrivate::QMetaTypeFunctionHelper<qcm::ContainerModel*, true>::Destruct(void*)
FUNC 43a19 4c 0 QtMetaTypePrivate::QMetaTypeFunctionHelper<qcm::ContainerModel*, true>::Construct(void*, void const*)
FUNC 43a65 d 0 QtPrivate::MetaObjectForType<qcm::ContainerModel*, void>::value()
FUNC 43a72 e 0 QtPrivate::SequentialContainerConverterHelper<qcm::ContainerModel*, false>::registerConverter(int)
FUNC 43a80 e 0 QtPrivate::AssociativeContainerConverterHelper<qcm::ContainerModel*, false>::registerConverter(int)
FUNC 43a8e e 0 QtPrivate::IsPair<qcm::ContainerModel*>::registerConverter(int)
FUNC 43a9c e 0 QtPrivate::MetaTypeSmartPointerHelper<qcm::ContainerModel*, void>::registerConverter(int)
PUBLIC 114d0 0 _init
PUBLIC 12640 0 _start
PUBLIC 12670 0 deregister_tm_clones
PUBLIC 126b0 0 register_tm_clones
PUBLIC 12700 0 __do_global_dtors_aux
PUBLIC 12740 0 frame_dummy
PUBLIC 12770 0 Breakpad::DumpCallback(google_breakpad::MinidumpDescriptor const&, void*, bool)
PUBLIC 127d4 0 Breakpad::CrashHandlerPrivate::InitCrashHandler(QString const&)
PUBLIC 128e8 0 Breakpad::CrashHandler::instance()
PUBLIC 1297c 0 Breakpad::CrashHandler::CrashHandler()
PUBLIC 129ae 0 Breakpad::CrashHandler::~CrashHandler()
PUBLIC 129e4 0 Breakpad::CrashHandler::setReportCrashesToSystem(bool)
PUBLIC 12a02 0 Breakpad::CrashHandler::writeMinidump()
PUBLIC 12a98 0 Breakpad::CrashHandler::Init(QString const&)
PUBLIC 12ac2 0 QMessageLogContext::QMessageLogContext(char const*, int, char const*, char const*)
PUBLIC 12b14 0 QMessageLogger::QMessageLogger(char const*, int, char const*)
PUBLIC 12b4c 0 std::operator&(std::memory_order, std::__memory_order_modifier)
PUBLIC 12b60 0 QtPrivate::RefCount::deref()
PUBLIC 12ba4 0 QArrayData::data()
PUBLIC 12bc0 0 QByteArray::length() const
PUBLIC 12bd4 0 QByteArray::~QByteArray()
PUBLIC 12c08 0 QByteArray::constData() const
PUBLIC 12c26 0 QByteArray::toStdString[abi:cxx11]() const
PUBLIC 12caa 0 QString::toUtf8() const &
PUBLIC 12cd4 0 QString::toStdString[abi:cxx11]() const
PUBLIC 12d40 0 google_breakpad::MicrodumpExtraInfo::MicrodumpExtraInfo()
PUBLIC 12d7a 0 google_breakpad::MinidumpDescriptor::MinidumpDescriptor(std::__cxx11::basic_string<char, std::char_traits<char>, std::allocator<char> > const&)
PUBLIC 12e40 0 Breakpad::CrashHandlerPrivate::CrashHandlerPrivate()
PUBLIC 12e5a 0 Breakpad::CrashHandlerPrivate::~CrashHandlerPrivate()
PUBLIC 12e94 0 google_breakpad::MinidumpDescriptor::~MinidumpDescriptor()
PUBLIC 12ec4 0 QBasicAtomicInteger<int>::load() const
PUBLIC 12ede 0 QBasicAtomicInteger<int>::deref()
PUBLIC 12ef8 0 QTypedArrayData<char>::deallocate(QArrayData*)
PUBLIC 12f1e 0 QTypedArrayData<char>::data()
PUBLIC 12f38 0 int QAtomicOps<int>::load<int>(std::atomic<int> const&)
PUBLIC 12f6e 0 bool QAtomicOps<int>::deref<int>(std::atomic<int>&)
PUBLIC 12f8e 0 std::__atomic_base<int>::operator--()
PUBLIC 12fae 0 sys_close
PUBLIC 12ff7 0 sys_read
PUBLIC 13050 0 sys_sendmsg
PUBLIC 130aa 0 sys_pipe
PUBLIC 130f6 0 google_breakpad::(anonymous namespace)::CrashGenerationClientImpl::CrashGenerationClientImpl(int)
PUBLIC 1312c 0 google_breakpad::(anonymous namespace)::CrashGenerationClientImpl::~CrashGenerationClientImpl()
PUBLIC 13156 0 google_breakpad::(anonymous namespace)::CrashGenerationClientImpl::~CrashGenerationClientImpl()
PUBLIC 13182 0 google_breakpad::(anonymous namespace)::CrashGenerationClientImpl::RequestDump(void const*, unsigned long)
PUBLIC 13334 0 google_breakpad::CrashGenerationClient::TryCreate(int)
PUBLIC 13372 0 google_breakpad::CrashGenerationClient::CrashGenerationClient()
PUBLIC 13390 0 google_breakpad::CrashGenerationClient::~CrashGenerationClient()
PUBLIC 133ae 0 google_breakpad::CrashGenerationClient::~CrashGenerationClient()
PUBLIC 133da 0 sys_clone
PUBLIC 134a6 0 sys_close
PUBLIC 134ef 0 sys_getpid
PUBLIC 1352c 0 sys__gettid
PUBLIC 13569 0 sys_munmap
PUBLIC 135bc 0 sys_prctl
PUBLIC 1362e 0 sys_read
PUBLIC 13687 0 sys_sigaltstack
PUBLIC 136dd 0 sys_tgkill
PUBLIC 13735 0 sys_write
PUBLIC 1378e 0 sys_wait4
PUBLIC 137f6 0 sys_mmap
PUBLIC 13884 0 sys_pipe
PUBLIC 138cf 0 sys_gettid
PUBLIC 138f1 0 sys_waitpid
PUBLIC 1391b 0 google_breakpad::(anonymous namespace)::InstallAlternateStackLocked()
PUBLIC 139f4 0 google_breakpad::(anonymous namespace)::RestoreAlternateStackLocked()
PUBLIC 13aa5 0 google_breakpad::(anonymous namespace)::InstallDefaultHandler(int)
PUBLIC 13ac2 0 google_breakpad::ExceptionHandler::ExceptionHandler(google_breakpad::MinidumpDescriptor const&, bool (*)(void*), bool (*)(google_breakpad::MinidumpDescriptor const&, void*, bool), void*, bool, int)
PUBLIC 13cec 0 google_breakpad::ExceptionHandler::~ExceptionHandler()
PUBLIC 13e12 0 google_breakpad::ExceptionHandler::InstallHandlersLocked()
PUBLIC 13f72 0 google_breakpad::ExceptionHandler::RestoreHandlersLocked()
PUBLIC 1401e 0 google_breakpad::ExceptionHandler::SignalHandler(int, siginfo_t*, void*)
PUBLIC 1424a 0 google_breakpad::ExceptionHandler::ThreadEntry(void*)
PUBLIC 142c6 0 google_breakpad::ExceptionHandler::HandleSignal(int, siginfo_t*, void*)
PUBLIC 14490 0 google_breakpad::ExceptionHandler::SimulateSignalDelivery(int)
PUBLIC 144fc 0 google_breakpad::ExceptionHandler::GenerateDump(google_breakpad::ExceptionHandler::CrashContext*)
PUBLIC 14898 0 google_breakpad::ExceptionHandler::SendContinueSignalToChild()
PUBLIC 14944 0 google_breakpad::ExceptionHandler::WaitForContinueSignal()
PUBLIC 149f0 0 google_breakpad::ExceptionHandler::DoDump(int, void const*, unsigned long)
PUBLIC 14bac 0 google_breakpad::ExceptionHandler::WriteMinidump(std::__cxx11::basic_string<char, std::char_traits<char>, std::allocator<char> > const&, bool (*)(google_breakpad::MinidumpDescriptor const&, void*, bool), void*)
PUBLIC 14c90 0 google_breakpad::ExceptionHandler::WriteMinidump()
PUBLIC 14e3a 0 google_breakpad::ExceptionHandler::AddMappingInfo(std::__cxx11::basic_string<char, std::char_traits<char>, std::allocator<char> > const&, unsigned char const*, unsigned long, unsigned long, unsigned long)
PUBLIC 14f26 0 google_breakpad::ExceptionHandler::RegisterAppMemory(void*, unsigned long)
PUBLIC 14fdc 0 google_breakpad::ExceptionHandler::UnregisterAppMemory(void*)
PUBLIC 15090 0 google_breakpad::ExceptionHandler::WriteMinidumpForChild(int, int, std::__cxx11::basic_string<char, std::char_traits<char>, std::allocator<char> > const&, bool (*)(google_breakpad::MinidumpDescriptor const&, void*, bool), void*)
PUBLIC 15188 0 google_breakpad::SetFirstChanceExceptionHandler(bool (*)(int, void*, void*))
PUBLIC 1519e 0 operator new(unsigned long, void*)
PUBLIC 151b0 0 google_breakpad::MinidumpDescriptor::IsFD() const
PUBLIC 151c6 0 google_breakpad::MinidumpDescriptor::fd() const
PUBLIC 151d8 0 google_breakpad::MinidumpDescriptor::path() const
PUBLIC 151ea 0 google_breakpad::MinidumpDescriptor::IsMicrodumpOnConsole() const
PUBLIC 15200 0 google_breakpad::MinidumpDescriptor::size_limit() const
PUBLIC 15212 0 google_breakpad::MinidumpDescriptor::address_within_principal_mapping() const
PUBLIC 15224 0 google_breakpad::MinidumpDescriptor::skip_dump_if_principal_mapping_not_referenced()
PUBLIC 15236 0 google_breakpad::MinidumpDescriptor::sanitize_stacks() const
PUBLIC 15248 0 google_breakpad::MinidumpDescriptor::microdump_extra_info()
PUBLIC 1528e 0 google_breakpad::PageAllocator::PageAllocator()
PUBLIC 152dc 0 google_breakpad::PageAllocator::~PageAllocator()
PUBLIC 152f8 0 google_breakpad::PageAllocator::Alloc(unsigned long)
PUBLIC 15470 0 google_breakpad::PageAllocator::GetNPages(unsigned long)
PUBLIC 1550e 0 google_breakpad::PageAllocator::FreeAll()
PUBLIC 15568 0 google_breakpad::AppMemory::operator==(void const*) const
PUBLIC 15584 0 google_breakpad::ExceptionHandler::IsOutOfProcess() const
PUBLIC 155a8 0 std::__cxx11::list<google_breakpad::MappingEntry, std::allocator<google_breakpad::MappingEntry> >::~list()
PUBLIC 155c4 0 std::__cxx11::list<google_breakpad::AppMemory, std::allocator<google_breakpad::AppMemory> >::~list()
PUBLIC 155e0 0 google_breakpad::scoped_ptr<google_breakpad::CrashGenerationClient>::reset(google_breakpad::CrashGenerationClient*)
PUBLIC 15634 0 google_breakpad::scoped_ptr<google_breakpad::CrashGenerationClient>::get() const
PUBLIC 15646 0 google_breakpad::scoped_ptr<google_breakpad::CrashGenerationClient>::scoped_ptr(google_breakpad::CrashGenerationClient*)
PUBLIC 15660 0 google_breakpad::scoped_ptr<google_breakpad::CrashGenerationClient>::~scoped_ptr()
PUBLIC 15698 0 std::__cxx11::list<google_breakpad::MappingEntry, std::allocator<google_breakpad::MappingEntry> >::list()
PUBLIC 156b4 0 std::__cxx11::_List_base<google_breakpad::MappingEntry, std::allocator<google_breakpad::MappingEntry> >::_List_impl::~_List_impl()
PUBLIC 156d0 0 std::__cxx11::_List_base<google_breakpad::MappingEntry, std::allocator<google_breakpad::MappingEntry> >::~_List_base()
PUBLIC 156f8 0 std::__cxx11::list<google_breakpad::AppMemory, std::allocator<google_breakpad::AppMemory> >::list()
PUBLIC 15714 0 std::__cxx11::_List_base<google_breakpad::AppMemory, std::allocator<google_breakpad::AppMemory> >::_List_impl::~_List_impl()
PUBLIC 15730 0 std::__cxx11::_List_base<google_breakpad::AppMemory, std::allocator<google_breakpad::AppMemory> >::~_List_base()
PUBLIC 15758 0 std::vector<google_breakpad::ExceptionHandler*, std::allocator<google_breakpad::ExceptionHandler*> >::vector()
PUBLIC 15773 0 std::remove_reference<google_breakpad::ExceptionHandler*&>::type&& std::move<google_breakpad::ExceptionHandler*&>(google_breakpad::ExceptionHandler*&)
PUBLIC 15782 0 std::vector<google_breakpad::ExceptionHandler*, std::allocator<google_breakpad::ExceptionHandler*> >::push_back(google_breakpad::ExceptionHandler*&&)
PUBLIC 157b4 0 std::vector<google_breakpad::ExceptionHandler*, std::allocator<google_breakpad::ExceptionHandler*> >::begin()
PUBLIC 157da 0 std::vector<google_breakpad::ExceptionHandler*, std::allocator<google_breakpad::ExceptionHandler*> >::end()
PUBLIC 15803 0 __gnu_cxx::__normal_iterator<google_breakpad::ExceptionHandler**, std::vector<google_breakpad::ExceptionHandler*, std::allocator<google_breakpad::ExceptionHandler*> > > std::find<__gnu_cxx::__normal_iterator<google_breakpad::ExceptionHandler**, std::vector<google_breakpad::ExceptionHandler*, std::allocator<google_breakpad::ExceptionHandler*> > >, google_breakpad::ExceptionHandler*>(__gnu_cxx::__normal_iterator<google_breakpad::ExceptionHandler**, std::vector<google_breakpad::ExceptionHandler*, std::allocator<google_breakpad::ExceptionHandler*> > >, __gnu_cxx::__normal_iterator<google_breakpad::ExceptionHandler**, std::vector<google_breakpad::ExceptionHandler*, std::allocator<google_breakpad::ExceptionHandler*> > >, google_breakpad::ExceptionHandler* const&)
PUBLIC 1583c 0 __gnu_cxx::__normal_iterator<google_breakpad::ExceptionHandler* const*, std::vector<google_breakpad::ExceptionHandler*, std::allocator<google_breakpad::ExceptionHandler*> > >::__normal_iterator<google_breakpad::ExceptionHandler**>(__gnu_cxx::__normal_iterator<google_breakpad::ExceptionHandler**, __gnu_cxx::__enable_if<std::__are_same<google_breakpad::ExceptionHandler**, google_breakpad::ExceptionHandler**>::__value, std::vector<google_breakpad::ExceptionHandler*, std::allocator<google_breakpad::ExceptionHandler*> > >::__type> const&)
PUBLIC 15866 0 std::vector<google_breakpad::ExceptionHandler*, std::allocator<google_breakpad::ExceptionHandler*> >::erase(__gnu_cxx::__normal_iterator<google_breakpad::ExceptionHandler* const*, std::vector<google_breakpad::ExceptionHandler*, std::allocator<google_breakpad::ExceptionHandler*> > >)
PUBLIC 158d6 0 std::vector<google_breakpad::ExceptionHandler*, std::allocator<google_breakpad::ExceptionHandler*> >::empty() const
PUBLIC 15918 0 std::vector<google_breakpad::ExceptionHandler*, std::allocator<google_breakpad::ExceptionHandler*> >::~vector()
PUBLIC 1595c 0 std::vector<google_breakpad::ExceptionHandler*, std::allocator<google_breakpad::ExceptionHandler*> >::size() const
PUBLIC 15982 0 std::vector<google_breakpad::ExceptionHandler*, std::allocator<google_breakpad::ExceptionHandler*> >::operator[](unsigned long)
PUBLIC 159a2 0 google_breakpad::scoped_ptr<google_breakpad::CrashGenerationClient>::operator->() const
PUBLIC 159e2 0 void google_breakpad::ignore_result<int>(int const&)
PUBLIC 159ee 0 std::__cxx11::list<google_breakpad::MappingEntry, std::allocator<google_breakpad::MappingEntry> >::push_back(google_breakpad::MappingEntry const&)
PUBLIC 15a24 0 std::__cxx11::list<google_breakpad::AppMemory, std::allocator<google_breakpad::AppMemory> >::begin()
PUBLIC 15a4c 0 std::__cxx11::list<google_breakpad::AppMemory, std::allocator<google_breakpad::AppMemory> >::end()
PUBLIC 15a71 0 std::_List_iterator<google_breakpad::AppMemory> std::find<std::_List_iterator<google_breakpad::AppMemory>, void*>(std::_List_iterator<google_breakpad::AppMemory>, std::_List_iterator<google_breakpad::AppMemory>, void* const&)
PUBLIC 15aaa 0 std::_List_iterator<google_breakpad::AppMemory>::operator!=(std::_List_iterator<google_breakpad::AppMemory> const&) const
PUBLIC 15acc 0 std::__cxx11::list<google_breakpad::AppMemory, std::allocator<google_breakpad::AppMemory> >::push_back(google_breakpad::AppMemory const&)
PUBLIC 15b02 0 std::_List_const_iterator<google_breakpad::AppMemory>::_List_const_iterator(std::_List_iterator<google_breakpad::AppMemory> const&)
PUBLIC 15b20 0 std::__cxx11::list<google_breakpad::AppMemory, std::allocator<google_breakpad::AppMemory> >::erase(std::_List_const_iterator<google_breakpad::AppMemory>)
PUBLIC 15b6a 0 std::__cxx11::_List_base<google_breakpad::MappingEntry, std::allocator<google_breakpad::MappingEntry> >::_List_base()
PUBLIC 15b92 0 std::allocator<std::_List_node<google_breakpad::MappingEntry> >::~allocator()
PUBLIC 15bae 0 std::__cxx11::_List_base<google_breakpad::MappingEntry, std::allocator<google_breakpad::MappingEntry> >::_M_clear()
PUBLIC 15c28 0 std::__cxx11::_List_base<google_breakpad::AppMemory, std::allocator<google_breakpad::AppMemory> >::_List_base()
PUBLIC 15c50 0 std::allocator<std::_List_node<google_breakpad::AppMemory> >::~allocator()
PUBLIC 15c6c 0 std::__cxx11::_List_base<google_breakpad::AppMemory, std::allocator<google_breakpad::AppMemory> >::_M_clear()
PUBLIC 15ce6 0 std::_Vector_base<google_breakpad::ExceptionHandler*, std::allocator<google_breakpad::ExceptionHandler*> >::_Vector_impl::~_Vector_impl()
PUBLIC 15d02 0 std::_Vector_base<google_breakpad::ExceptionHandler*, std::allocator<google_breakpad::ExceptionHandler*> >::_Vector_base()
PUBLIC 15d1e 0 std::_Vector_base<google_breakpad::ExceptionHandler*, std::allocator<google_breakpad::ExceptionHandler*> >::~_Vector_base()
PUBLIC 15d6e 0 google_breakpad::ExceptionHandler*&& std::forward<google_breakpad::ExceptionHandler*>(std::remove_reference<google_breakpad::ExceptionHandler*>::type&)
PUBLIC 15d7c 0 void std::vector<google_breakpad::ExceptionHandler*, std::allocator<google_breakpad::ExceptionHandler*> >::emplace_back<google_breakpad::ExceptionHandler*>(google_breakpad::ExceptionHandler*&&)
PUBLIC 15dfe 0 __gnu_cxx::__normal_iterator<google_breakpad::ExceptionHandler**, std::vector<google_breakpad::ExceptionHandler*, std::allocator<google_breakpad::ExceptionHandler*> > >::__normal_iterator(google_breakpad::ExceptionHandler** const&)
PUBLIC 15e1b 0 __gnu_cxx::__ops::_Iter_equals_val<google_breakpad::ExceptionHandler* const> __gnu_cxx::__ops::__iter_equals_val<google_breakpad::ExceptionHandler* const>(google_breakpad::ExceptionHandler* const&)
PUBLIC 15e40 0 __gnu_cxx::__normal_iterator<google_breakpad::ExceptionHandler**, std::vector<google_breakpad::ExceptionHandler*, std::allocator<google_breakpad::ExceptionHandler*> > > std::__find_if<__gnu_cxx::__normal_iterator<google_breakpad::ExceptionHandler**, std::vector<google_breakpad::ExceptionHandler*, std::allocator<google_breakpad::ExceptionHandler*> > >, __gnu_cxx::__ops::_Iter_equals_val<google_breakpad::ExceptionHandler* const> >(__gnu_cxx::__normal_iterator<google_breakpad::ExceptionHandler**, std::vector<google_breakpad::ExceptionHandler*, std::allocator<google_breakpad::ExceptionHandler*> > >, __gnu_cxx::__normal_iterator<google_breakpad::ExceptionHandler**, std::vector<google_breakpad::ExceptionHandler*, std::allocator<google_breakpad::ExceptionHandler*> > >, __gnu_cxx::__ops::_Iter_equals_val<google_breakpad::ExceptionHandler* const>)
PUBLIC 15e88 0 __gnu_cxx::__normal_iterator<google_breakpad::ExceptionHandler**, std::vector<google_breakpad::ExceptionHandler*, std::allocator<google_breakpad::ExceptionHandler*> > >::base() const
PUBLIC 15e96 0 std::vector<google_breakpad::ExceptionHandler*, std::allocator<google_breakpad::ExceptionHandler*> >::cbegin() const
PUBLIC 15ec6 0 __gnu_cxx::__normal_iterator<google_breakpad::ExceptionHandler* const*, std::vector<google_breakpad::ExceptionHandler*, std::allocator<google_breakpad::ExceptionHandler*> > >::difference_type __gnu_cxx::operator-<google_breakpad::ExceptionHandler* const*, std::vector<google_breakpad::ExceptionHandler*, std::allocator<google_breakpad::ExceptionHandler*> > >(__gnu_cxx::__normal_iterator<google_breakpad::ExceptionHandler* const*, std::vector<google_breakpad::ExceptionHandler*, std::allocator<google_breakpad::ExceptionHandler*> > > const&, __gnu_cxx::__normal_iterator<google_breakpad::ExceptionHandler* const*, std::vector<google_breakpad::ExceptionHandler*, std::allocator<google_breakpad::ExceptionHandler*> > > const&)
PUBLIC 15f0a 0 __gnu_cxx::__normal_iterator<google_breakpad::ExceptionHandler**, std::vector<google_breakpad::ExceptionHandler*, std::allocator<google_breakpad::ExceptionHandler*> > >::operator+(long) const
PUBLIC 15f4a 0 std::vector<google_breakpad::ExceptionHandler*, std::allocator<google_breakpad::ExceptionHandler*> >::_M_erase(__gnu_cxx::__normal_iterator<google_breakpad::ExceptionHandler**, std::vector<google_breakpad::ExceptionHandler*, std::allocator<google_breakpad::ExceptionHandler*> > >)
PUBLIC 16002 0 std::vector<google_breakpad::ExceptionHandler*, std::allocator<google_breakpad::ExceptionHandler*> >::begin() const
PUBLIC 16032 0 std::vector<google_breakpad::ExceptionHandler*, std::allocator<google_breakpad::ExceptionHandler*> >::end() const
PUBLIC 16063 0 bool __gnu_cxx::operator==<google_breakpad::ExceptionHandler* const*, std::vector<google_breakpad::ExceptionHandler*, std::allocator<google_breakpad::ExceptionHandler*> > >(__gnu_cxx::__normal_iterator<google_breakpad::ExceptionHandler* const*, std::vector<google_breakpad::ExceptionHandler*, std::allocator<google_breakpad::ExceptionHandler*> > > const&, __gnu_cxx::__normal_iterator<google_breakpad::ExceptionHandler* const*, std::vector<google_breakpad::ExceptionHandler*, std::allocator<google_breakpad::ExceptionHandler*> > > const&)
PUBLIC 160a0 0 std::_Vector_base<google_breakpad::ExceptionHandler*, std::allocator<google_breakpad::ExceptionHandler*> >::_M_get_Tp_allocator()
PUBLIC 160ae 0 void std::_Destroy<google_breakpad::ExceptionHandler**, google_breakpad::ExceptionHandler*>(google_breakpad::ExceptionHandler**, google_breakpad::ExceptionHandler**, std::allocator<google_breakpad::ExceptionHandler*>&)
PUBLIC 160d8 0 std::__cxx11::list<google_breakpad::MappingEntry, std::allocator<google_breakpad::MappingEntry> >::end()
PUBLIC 160fd 0 google_breakpad::MappingEntry const& std::forward<google_breakpad::MappingEntry const&>(std::remove_reference<google_breakpad::MappingEntry const&>::type&)
PUBLIC 1610c 0 void std::__cxx11::list<google_breakpad::MappingEntry, std::allocator<google_breakpad::MappingEntry> >::_M_insert<google_breakpad::MappingEntry const&>(std::_List_iterator<google_breakpad::MappingEntry>, google_breakpad::MappingEntry const&)
PUBLIC 1616a 0 std::_List_iterator<google_breakpad::AppMemory>::_List_iterator(std::__detail::_List_node_base*)
PUBLIC 16184 0 __gnu_cxx::__ops::_Iter_equals_val<void* const> __gnu_cxx::__ops::__iter_equals_val<void* const>(void* const&)
PUBLIC 161a9 0 std::_List_iterator<google_breakpad::AppMemory> std::__find_if<std::_List_iterator<google_breakpad::AppMemory>, __gnu_cxx::__ops::_Iter_equals_val<void* const> >(std::_List_iterator<google_breakpad::AppMemory>, std::_List_iterator<google_breakpad::AppMemory>, __gnu_cxx::__ops::_Iter_equals_val<void* const>)
PUBLIC 161f0 0 google_breakpad::AppMemory const& std::forward<google_breakpad::AppMemory const&>(std::remove_reference<google_breakpad::AppMemory const&>::type&)
PUBLIC 161fe 0 void std::__cxx11::list<google_breakpad::AppMemory, std::allocator<google_breakpad::AppMemory> >::_M_insert<google_breakpad::AppMemory const&>(std::_List_iterator<google_breakpad::AppMemory>, google_breakpad::AppMemory const&)
PUBLIC 1625c 0 std::__cxx11::list<google_breakpad::AppMemory, std::allocator<google_breakpad::AppMemory> >::_M_erase(std::_List_iterator<google_breakpad::AppMemory>)
PUBLIC 162d4 0 std::_List_const_iterator<google_breakpad::AppMemory>::_M_const_cast() const
PUBLIC 162fc 0 std::__cxx11::_List_base<google_breakpad::MappingEntry, std::allocator<google_breakpad::MappingEntry> >::_List_impl::_List_impl()
PUBLIC 16332 0 std::__cxx11::_List_base<google_breakpad::MappingEntry, std::allocator<google_breakpad::MappingEntry> >::_M_init()
PUBLIC 1636a 0 __gnu_cxx::new_allocator<std::_List_node<google_breakpad::MappingEntry> >::~new_allocator()
PUBLIC 16376 0 std::_List_node<google_breakpad::MappingEntry>::_M_valptr()
PUBLIC 16394 0 std::__cxx11::_List_base<google_breakpad::MappingEntry, std::allocator<google_breakpad::MappingEntry> >::_M_get_Node_allocator()
PUBLIC 163a2 0 void std::allocator_traits<std::allocator<std::_List_node<google_breakpad::MappingEntry> > >::destroy<google_breakpad::MappingEntry>(std::allocator<std::_List_node<google_breakpad::MappingEntry> >&, google_breakpad::MappingEntry*)
PUBLIC 163c8 0 std::__cxx11::_List_base<google_breakpad::MappingEntry, std::allocator<google_breakpad::MappingEntry> >::_M_put_node(std::_List_node<google_breakpad::MappingEntry>*)
PUBLIC 163f4 0 std::__cxx11::_List_base<google_breakpad::AppMemory, std::allocator<google_breakpad::AppMemory> >::_List_impl::_List_impl()
PUBLIC 1642a 0 std::__cxx11::_List_base<google_breakpad::AppMemory, std::allocator<google_breakpad::AppMemory> >::_M_init()
PUBLIC 16462 0 __gnu_cxx::new_allocator<std::_List_node<google_breakpad::AppMemory> >::~new_allocator()
PUBLIC 1646e 0 std::_List_node<google_breakpad::AppMemory>::_M_valptr()
PUBLIC 1648c 0 std::__cxx11::_List_base<google_breakpad::AppMemory, std::allocator<google_breakpad::AppMemory> >::_M_get_Node_allocator()
PUBLIC 1649a 0 void std::allocator_traits<std::allocator<std::_List_node<google_breakpad::AppMemory> > >::destroy<google_breakpad::AppMemory>(std::allocator<std::_List_node<google_breakpad::AppMemory> >&, google_breakpad::AppMemory*)
PUBLIC 164c0 0 std::__cxx11::_List_base<google_breakpad::AppMemory, std::allocator<google_breakpad::AppMemory> >::_M_put_node(std::_List_node<google_breakpad::AppMemory>*)
PUBLIC 164ec 0 std::_Vector_base<google_breakpad::ExceptionHandler*, std::allocator<google_breakpad::ExceptionHandler*> >::_Vector_impl::_Vector_impl()
PUBLIC 1652a 0 std::allocator<google_breakpad::ExceptionHandler*>::~allocator()
PUBLIC 16546 0 std::_Vector_base<google_breakpad::ExceptionHandler*, std::allocator<google_breakpad::ExceptionHandler*> >::_M_deallocate(google_breakpad::ExceptionHandler**, unsigned long)
PUBLIC 1657b 0 void std::allocator_traits<std::allocator<google_breakpad::ExceptionHandler*> >::construct<google_breakpad::ExceptionHandler*, google_breakpad::ExceptionHandler*>(std::allocator<google_breakpad::ExceptionHandler*>&, google_breakpad::ExceptionHandler**, google_breakpad::ExceptionHandler*&&)
PUBLIC 165b4 0 void std::vector<google_breakpad::ExceptionHandler*, std::allocator<google_breakpad::ExceptionHandler*> >::_M_emplace_back_aux<google_breakpad::ExceptionHandler*>(google_breakpad::ExceptionHandler*&&)
PUBLIC 167a0 0 __gnu_cxx::__ops::_Iter_equals_val<google_breakpad::ExceptionHandler* const>::_Iter_equals_val(google_breakpad::ExceptionHandler* const&)
PUBLIC 167ba 0 std::iterator_traits<__gnu_cxx::__normal_iterator<google_breakpad::ExceptionHandler**, std::vector<google_breakpad::ExceptionHandler*, std::allocator<google_breakpad::ExceptionHandler*> > > >::iterator_category std::__iterator_category<__gnu_cxx::__normal_iterator<google_breakpad::ExceptionHandler**, std::vector<google_breakpad::ExceptionHandler*, std::allocator<google_breakpad::ExceptionHandler*> > > >(__gnu_cxx::__normal_iterator<google_breakpad::ExceptionHandler**, std::vector<google_breakpad::ExceptionHandler*, std::allocator<google_breakpad::ExceptionHandler*> > > const&)
PUBLIC 167c4 0 __gnu_cxx::__normal_iterator<google_breakpad::ExceptionHandler**, std::vector<google_breakpad::ExceptionHandler*, std::allocator<google_breakpad::ExceptionHandler*> > > std::__find_if<__gnu_cxx::__normal_iterator<google_breakpad::ExceptionHandler**, std::vector<google_breakpad::ExceptionHandler*, std::allocator<google_breakpad::ExceptionHandler*> > >, __gnu_cxx::__ops::_Iter_equals_val<google_breakpad::ExceptionHandler* const> >(__gnu_cxx::__normal_iterator<google_breakpad::ExceptionHandler**, std::vector<google_breakpad::ExceptionHandler*, std::allocator<google_breakpad::ExceptionHandler*> > >, __gnu_cxx::__normal_iterator<google_breakpad::ExceptionHandler**, std::vector<google_breakpad::ExceptionHandler*, std::allocator<google_breakpad::ExceptionHandler*> > >, __gnu_cxx::__ops::_Iter_equals_val<google_breakpad::ExceptionHandler* const>, std::random_access_iterator_tag)
PUBLIC 16960 0 __gnu_cxx::__normal_iterator<google_breakpad::ExceptionHandler* const*, std::vector<google_breakpad::ExceptionHandler*, std::allocator<google_breakpad::ExceptionHandler*> > >::__normal_iterator(google_breakpad::ExceptionHandler* const* const&)
PUBLIC 1697e 0 __gnu_cxx::__normal_iterator<google_breakpad::ExceptionHandler* const*, std::vector<google_breakpad::ExceptionHandler*, std::allocator<google_breakpad::ExceptionHandler*> > >::base() const
PUBLIC 1698c 0 bool __gnu_cxx::operator!=<google_breakpad::ExceptionHandler**, std::vector<google_breakpad::ExceptionHandler*, std::allocator<google_breakpad::ExceptionHandler*> > >(__gnu_cxx::__normal_iterator<google_breakpad::ExceptionHandler**, std::vector<google_breakpad::ExceptionHandler*, std::allocator<google_breakpad::ExceptionHandler*> > > const&, __gnu_cxx::__normal_iterator<google_breakpad::ExceptionHandler**, std::vector<google_breakpad::ExceptionHandler*, std::allocator<google_breakpad::ExceptionHandler*> > > const&)
PUBLIC 169c8 0 __gnu_cxx::__normal_iterator<google_breakpad::ExceptionHandler**, std::vector<google_breakpad::ExceptionHandler*, std::allocator<google_breakpad::ExceptionHandler*> > > std::move<__gnu_cxx::__normal_iterator<google_breakpad::ExceptionHandler**, std::vector<google_breakpad::ExceptionHandler*, std::allocator<google_breakpad::ExceptionHandler*> > >, __gnu_cxx::__normal_iterator<google_breakpad::ExceptionHandler**, std::vector<google_breakpad::ExceptionHandler*, std::allocator<google_breakpad::ExceptionHandler*> > > >(__gnu_cxx::__normal_iterator<google_breakpad::ExceptionHandler**, std::vector<google_breakpad::ExceptionHandler*, std::allocator<google_breakpad::ExceptionHandler*> > >, __gnu_cxx::__normal_iterator<google_breakpad::ExceptionHandler**, std::vector<google_breakpad::ExceptionHandler*, std::allocator<google_breakpad::ExceptionHandler*> > >, __gnu_cxx::__normal_iterator<google_breakpad::ExceptionHandler**, std::vector<google_breakpad::ExceptionHandler*, std::allocator<google_breakpad::ExceptionHandler*> > >)
PUBLIC 16a14 0 void std::allocator_traits<std::allocator<google_breakpad::ExceptionHandler*> >::destroy<google_breakpad::ExceptionHandler*>(std::allocator<google_breakpad::ExceptionHandler*>&, google_breakpad::ExceptionHandler**)
PUBLIC 16a3a 0 void std::_Destroy<google_breakpad::ExceptionHandler**>(google_breakpad::ExceptionHandler**, google_breakpad::ExceptionHandler**)
PUBLIC 16a60 0 std::_List_iterator<google_breakpad::MappingEntry>::_List_iterator(std::__detail::_List_node_base*)
PUBLIC 16a7a 0 std::_List_node<google_breakpad::MappingEntry>* std::__cxx11::list<google_breakpad::MappingEntry, std::allocator<google_breakpad::MappingEntry> >::_M_create_node<google_breakpad::MappingEntry const&>(google_breakpad::MappingEntry const&)
PUBLIC 16b3a 0 std::__cxx11::_List_base<google_breakpad::MappingEntry, std::allocator<google_breakpad::MappingEntry> >::_M_inc_size(unsigned long)
PUBLIC 16b66 0 __gnu_cxx::__ops::_Iter_equals_val<void* const>::_Iter_equals_val(void* const&)
PUBLIC 16b80 0 std::iterator_traits<std::_List_iterator<google_breakpad::AppMemory> >::iterator_category std::__iterator_category<std::_List_iterator<google_breakpad::AppMemory> >(std::_List_iterator<google_breakpad::AppMemory> const&)
PUBLIC 16b8a 0 std::_List_iterator<google_breakpad::AppMemory> std::__find_if<std::_List_iterator<google_breakpad::AppMemory>, __gnu_cxx::__ops::_Iter_equals_val<void* const> >(std::_List_iterator<google_breakpad::AppMemory>, std::_List_iterator<google_breakpad::AppMemory>, __gnu_cxx::__ops::_Iter_equals_val<void* const>, std::input_iterator_tag)
PUBLIC 16bf4 0 std::_List_node<google_breakpad::AppMemory>* std::__cxx11::list<google_breakpad::AppMemory, std::allocator<google_breakpad::AppMemory> >::_M_create_node<google_breakpad::AppMemory const&>(google_breakpad::AppMemory const&)
PUBLIC 16cb4 0 std::__cxx11::_List_base<google_breakpad::AppMemory, std::allocator<google_breakpad::AppMemory> >::_M_inc_size(unsigned long)
PUBLIC 16ce0 0 std::__cxx11::_List_base<google_breakpad::AppMemory, std::allocator<google_breakpad::AppMemory> >::_M_dec_size(unsigned long)
PUBLIC 16d0a 0 std::allocator<std::_List_node<google_breakpad::MappingEntry> >::allocator()
PUBLIC 16d26 0 std::__cxx11::_List_base<google_breakpad::MappingEntry, std::allocator<google_breakpad::MappingEntry> >::_M_set_size(unsigned long)
PUBLIC 16d50 0 __gnu_cxx::__aligned_membuf<google_breakpad::MappingEntry>::_M_ptr()
PUBLIC 16d6a 0 void __gnu_cxx::new_allocator<std::_List_node<google_breakpad::MappingEntry> >::destroy<google_breakpad::MappingEntry>(google_breakpad::MappingEntry*)
PUBLIC 16d79 0 std::allocator_traits<std::allocator<std::_List_node<google_breakpad::MappingEntry> > >::deallocate(std::allocator<std::_List_node<google_breakpad::MappingEntry> >&, std::_List_node<google_breakpad::MappingEntry>*, unsigned long)
PUBLIC 16da8 0 std::allocator<std::_List_node<google_breakpad::AppMemory> >::allocator()
PUBLIC 16dc4 0 std::__cxx11::_List_base<google_breakpad::AppMemory, std::allocator<google_breakpad::AppMemory> >::_M_set_size(unsigned long)
PUBLIC 16dee 0 __gnu_cxx::__aligned_membuf<google_breakpad::AppMemory>::_M_ptr()
PUBLIC 16e08 0 void __gnu_cxx::new_allocator<std::_List_node<google_breakpad::AppMemory> >::destroy<google_breakpad::AppMemory>(google_breakpad::AppMemory*)
PUBLIC 16e17 0 std::allocator_traits<std::allocator<std::_List_node<google_breakpad::AppMemory> > >::deallocate(std::allocator<std::_List_node<google_breakpad::AppMemory> >&, std::_List_node<google_breakpad::AppMemory>*, unsigned long)
PUBLIC 16e46 0 std::allocator<google_breakpad::ExceptionHandler*>::allocator()
PUBLIC 16e62 0 __gnu_cxx::new_allocator<google_breakpad::ExceptionHandler*>::~new_allocator()
PUBLIC 16e6d 0 std::allocator_traits<std::allocator<google_breakpad::ExceptionHandler*> >::deallocate(std::allocator<google_breakpad::ExceptionHandler*>&, google_breakpad::ExceptionHandler**, unsigned long)
PUBLIC 16e9c 0 void __gnu_cxx::new_allocator<google_breakpad::ExceptionHandler*>::construct<google_breakpad::ExceptionHandler*, google_breakpad::ExceptionHandler*>(google_breakpad::ExceptionHandler**, google_breakpad::ExceptionHandler*&&)
PUBLIC 16ee1 0 unsigned long const& std::max<unsigned long>(unsigned long const&, unsigned long const&)
PUBLIC 16f0c 0 std::vector<google_breakpad::ExceptionHandler*, std::allocator<google_breakpad::ExceptionHandler*> >::_M_check_len(unsigned long, char const*) const
PUBLIC 16fd6 0 std::_Vector_base<google_breakpad::ExceptionHandler*, std::allocator<google_breakpad::ExceptionHandler*> >::_M_allocate(unsigned long)
PUBLIC 17009 0 google_breakpad::ExceptionHandler** std::__uninitialized_move_if_noexcept_a<google_breakpad::ExceptionHandler**, google_breakpad::ExceptionHandler**, std::allocator<google_breakpad::ExceptionHandler*> >(google_breakpad::ExceptionHandler**, google_breakpad::ExceptionHandler**, google_breakpad::ExceptionHandler**, std::allocator<google_breakpad::ExceptionHandler*>&)
PUBLIC 1705d 0 __gnu_cxx::__normal_iterator<google_breakpad::ExceptionHandler**, std::vector<google_breakpad::ExceptionHandler*, std::allocator<google_breakpad::ExceptionHandler*> > >::difference_type __gnu_cxx::operator-<google_breakpad::ExceptionHandler**, std::vector<google_breakpad::ExceptionHandler*, std::allocator<google_breakpad::ExceptionHandler*> > >(__gnu_cxx::__normal_iterator<google_breakpad::ExceptionHandler**, std::vector<google_breakpad::ExceptionHandler*, std::allocator<google_breakpad::ExceptionHandler*> > > const&, __gnu_cxx::__normal_iterator<google_breakpad::ExceptionHandler**, std::vector<google_breakpad::ExceptionHandler*, std::allocator<google_breakpad::ExceptionHandler*> > > const&)
PUBLIC 170a0 0 bool __gnu_cxx::__ops::_Iter_equals_val<google_breakpad::ExceptionHandler* const>::operator()<__gnu_cxx::__normal_iterator<google_breakpad::ExceptionHandler**, std::vector<google_breakpad::ExceptionHandler*, std::allocator<google_breakpad::ExceptionHandler*> > > >(__gnu_cxx::__normal_iterator<google_breakpad::ExceptionHandler**, std::vector<google_breakpad::ExceptionHandler*, std::allocator<google_breakpad::ExceptionHandler*> > >)
PUBLIC 170d2 0 __gnu_cxx::__normal_iterator<google_breakpad::ExceptionHandler**, std::vector<google_breakpad::ExceptionHandler*, std::allocator<google_breakpad::ExceptionHandler*> > >::operator++()
PUBLIC 170f2 0 __gnu_cxx::__normal_iterator<google_breakpad::ExceptionHandler**, std::vector<google_breakpad::ExceptionHandler*, std::allocator<google_breakpad::ExceptionHandler*> > > std::__miter_base<__gnu_cxx::__normal_iterator<google_breakpad::ExceptionHandler**, std::vector<google_breakpad::ExceptionHandler*, std::allocator<google_breakpad::ExceptionHandler*> > > >(__gnu_cxx::__normal_iterator<google_breakpad::ExceptionHandler**, std::vector<google_breakpad::ExceptionHandler*, std::allocator<google_breakpad::ExceptionHandler*> > >)
PUBLIC 17100 0 __gnu_cxx::__normal_iterator<google_breakpad::ExceptionHandler**, std::vector<google_breakpad::ExceptionHandler*, std::allocator<google_breakpad::ExceptionHandler*> > > std::__copy_move_a2<true, __gnu_cxx::__normal_iterator<google_breakpad::ExceptionHandler**, std::vector<google_breakpad::ExceptionHandler*, std::allocator<google_breakpad::ExceptionHandler*> > >, __gnu_cxx::__normal_iterator<google_breakpad::ExceptionHandler**, std::vector<google_breakpad::ExceptionHandler*, std::allocator<google_breakpad::ExceptionHandler*> > > >(__gnu_cxx::__normal_iterator<google_breakpad::ExceptionHandler**, std::vector<google_breakpad::ExceptionHandler*, std::allocator<google_breakpad::ExceptionHandler*> > >, __gnu_cxx::__normal_iterator<google_breakpad::ExceptionHandler**, std::vector<google_breakpad::ExceptionHandler*, std::allocator<google_breakpad::ExceptionHandler*> > >, __gnu_cxx::__normal_iterator<google_breakpad::ExceptionHandler**, std::vector<google_breakpad::ExceptionHandler*, std::allocator<google_breakpad::ExceptionHandler*> > >)
PUBLIC 17174 0 void __gnu_cxx::new_allocator<google_breakpad::ExceptionHandler*>::destroy<google_breakpad::ExceptionHandler*>(google_breakpad::ExceptionHandler**)
PUBLIC 17183 0 void std::_Destroy_aux<true>::__destroy<google_breakpad::ExceptionHandler**>(google_breakpad::ExceptionHandler**, google_breakpad::ExceptionHandler**)
PUBLIC 17192 0 std::__cxx11::_List_base<google_breakpad::MappingEntry, std::allocator<google_breakpad::MappingEntry> >::_M_get_node()
PUBLIC 171b2 0 std::__allocated_ptr<std::allocator<std::_List_node<google_breakpad::MappingEntry> > >::__allocated_ptr(std::allocator<std::_List_node<google_breakpad::MappingEntry> >&, std::_List_node<google_breakpad::MappingEntry>*)
PUBLIC 171ec 0 std::__allocated_ptr<std::allocator<std::_List_node<google_breakpad::MappingEntry> > >::~__allocated_ptr()
PUBLIC 17227 0 void std::allocator_traits<std::allocator<std::_List_node<google_breakpad::MappingEntry> > >::construct<google_breakpad::MappingEntry, google_breakpad::MappingEntry const&>(std::allocator<std::_List_node<google_breakpad::MappingEntry> >&, google_breakpad::MappingEntry*, google_breakpad::MappingEntry const&)
PUBLIC 17260 0 std::__allocated_ptr<std::allocator<std::_List_node<google_breakpad::MappingEntry> > >::operator=(decltype(nullptr))
PUBLIC 1727e 0 std::_List_node<unsigned long>::_M_valptr()
PUBLIC 1729c 0 bool __gnu_cxx::__ops::_Iter_equals_val<void* const>::operator()<std::_List_iterator<google_breakpad::AppMemory> >(std::_List_iterator<google_breakpad::AppMemory>)
PUBLIC 172d6 0 std::_List_iterator<google_breakpad::AppMemory>::operator++()
PUBLIC 172f6 0 std::__cxx11::_List_base<google_breakpad::AppMemory, std::allocator<google_breakpad::AppMemory> >::_M_get_node()
PUBLIC 17316 0 std::__allocated_ptr<std::allocator<std::_List_node<google_breakpad::AppMemory> > >::__allocated_ptr(std::allocator<std::_List_node<google_breakpad::AppMemory> >&, std::_List_node<google_breakpad::AppMemory>*)
PUBLIC 17350 0 std::__allocated_ptr<std::allocator<std::_List_node<google_breakpad::AppMemory> > >::~__allocated_ptr()
PUBLIC 1738b 0 void std::allocator_traits<std::allocator<std::_List_node<google_breakpad::AppMemory> > >::construct<google_breakpad::AppMemory, google_breakpad::AppMemory const&>(std::allocator<std::_List_node<google_breakpad::AppMemory> >&, google_breakpad::AppMemory*, google_breakpad::AppMemory const&)
PUBLIC 173c4 0 std::__allocated_ptr<std::allocator<std::_List_node<google_breakpad::AppMemory> > >::operator=(decltype(nullptr))
PUBLIC 173e2 0 __gnu_cxx::new_allocator<std::_List_node<google_breakpad::MappingEntry> >::new_allocator()
PUBLIC 173ee 0 __gnu_cxx::__aligned_membuf<google_breakpad::MappingEntry>::_M_addr()
PUBLIC 173fc 0 __gnu_cxx::new_allocator<std::_List_node<google_breakpad::MappingEntry> >::deallocate(std::_List_node<google_breakpad::MappingEntry>*, unsigned long)
PUBLIC 17420 0 __gnu_cxx::new_allocator<std::_List_node<google_breakpad::AppMemory> >::new_allocator()
PUBLIC 1742c 0 __gnu_cxx::__aligned_membuf<google_breakpad::AppMemory>::_M_addr()
PUBLIC 1743a 0 __gnu_cxx::new_allocator<std::_List_node<google_breakpad::AppMemory> >::deallocate(std::_List_node<google_breakpad::AppMemory>*, unsigned long)
PUBLIC 1745e 0 __gnu_cxx::new_allocator<google_breakpad::ExceptionHandler*>::new_allocator()
PUBLIC 1746a 0 __gnu_cxx::new_allocator<google_breakpad::ExceptionHandler*>::deallocate(google_breakpad::ExceptionHandler**, unsigned long)
PUBLIC 1748e 0 std::vector<google_breakpad::ExceptionHandler*, std::allocator<google_breakpad::ExceptionHandler*> >::max_size() const
PUBLIC 174b0 0 std::allocator_traits<std::allocator<google_breakpad::ExceptionHandler*> >::allocate(std::allocator<google_breakpad::ExceptionHandler*>&, unsigned long)
PUBLIC 174da 0 std::move_iterator<google_breakpad::ExceptionHandler**> std::__make_move_if_noexcept_iterator<google_breakpad::ExceptionHandler*, std::move_iterator<google_breakpad::ExceptionHandler**> >(google_breakpad::ExceptionHandler**)
PUBLIC 174ff 0 google_breakpad::ExceptionHandler** std::__uninitialized_copy_a<std::move_iterator<google_breakpad::ExceptionHandler**>, google_breakpad::ExceptionHandler**, google_breakpad::ExceptionHandler*>(std::move_iterator<google_breakpad::ExceptionHandler**>, std::move_iterator<google_breakpad::ExceptionHandler**>, google_breakpad::ExceptionHandler**, std::allocator<google_breakpad::ExceptionHandler*>&)
PUBLIC 17530 0 __gnu_cxx::__normal_iterator<google_breakpad::ExceptionHandler**, std::vector<google_breakpad::ExceptionHandler*, std::allocator<google_breakpad::ExceptionHandler*> > >::operator*() const
PUBLIC 17541 0 google_breakpad::ExceptionHandler** std::__niter_base<google_breakpad::ExceptionHandler**, std::vector<google_breakpad::ExceptionHandler*, std::allocator<google_breakpad::ExceptionHandler*> > >(__gnu_cxx::__normal_iterator<google_breakpad::ExceptionHandler**, std::vector<google_breakpad::ExceptionHandler*, std::allocator<google_breakpad::ExceptionHandler*> > >)
PUBLIC 1755e 0 google_breakpad::ExceptionHandler** std::__copy_move_a<true, google_breakpad::ExceptionHandler**, google_breakpad::ExceptionHandler**>(google_breakpad::ExceptionHandler**, google_breakpad::ExceptionHandler**, google_breakpad::ExceptionHandler**)
PUBLIC 1758f 0 std::allocator_traits<std::allocator<std::_List_node<google_breakpad::MappingEntry> > >::allocate(std::allocator<std::_List_node<google_breakpad::MappingEntry> >&, unsigned long)
PUBLIC 175b9 0 std::allocator<std::_List_node<google_breakpad::MappingEntry> >* std::__addressof<std::allocator<std::_List_node<google_breakpad::MappingEntry> > >(std::allocator<std::_List_node<google_breakpad::MappingEntry> >&)
PUBLIC 175c8 0 void __gnu_cxx::new_allocator<std::_List_node<google_breakpad::MappingEntry> >::construct<google_breakpad::MappingEntry, google_breakpad::MappingEntry const&>(google_breakpad::MappingEntry*, google_breakpad::MappingEntry const&)
PUBLIC 1761e 0 __gnu_cxx::__aligned_membuf<unsigned long>::_M_ptr()
PUBLIC 17638 0 std::_List_iterator<google_breakpad::AppMemory>::operator*() const
PUBLIC 17655 0 std::allocator_traits<std::allocator<std::_List_node<google_breakpad::AppMemory> > >::allocate(std::allocator<std::_List_node<google_breakpad::AppMemory> >&, unsigned long)
PUBLIC 1767f 0 std::allocator<std::_List_node<google_breakpad::AppMemory> >* std::__addressof<std::allocator<std::_List_node<google_breakpad::AppMemory> > >(std::allocator<std::_List_node<google_breakpad::AppMemory> >&)
PUBLIC 1768e 0 void __gnu_cxx::new_allocator<std::_List_node<google_breakpad::AppMemory> >::construct<google_breakpad::AppMemory, google_breakpad::AppMemory const&>(google_breakpad::AppMemory*, google_breakpad::AppMemory const&)
PUBLIC 176e1 0 std::allocator_traits<std::allocator<google_breakpad::ExceptionHandler*> >::max_size(std::allocator<google_breakpad::ExceptionHandler*> const&)
PUBLIC 176fc 0 std::_Vector_base<google_breakpad::ExceptionHandler*, std::allocator<google_breakpad::ExceptionHandler*> >::_M_get_Tp_allocator() const
PUBLIC 1770a 0 __gnu_cxx::new_allocator<google_breakpad::ExceptionHandler*>::allocate(unsigned long, void const*)
PUBLIC 1774c 0 std::move_iterator<google_breakpad::ExceptionHandler**>::move_iterator(google_breakpad::ExceptionHandler**)
PUBLIC 17766 0 google_breakpad::ExceptionHandler** std::uninitialized_copy<std::move_iterator<google_breakpad::ExceptionHandler**>, google_breakpad::ExceptionHandler**>(std::move_iterator<google_breakpad::ExceptionHandler**>, std::move_iterator<google_breakpad::ExceptionHandler**>, google_breakpad::ExceptionHandler**)
PUBLIC 17797 0 google_breakpad::ExceptionHandler** std::__copy_move<true, true, std::random_access_iterator_tag>::__copy_m<google_breakpad::ExceptionHandler*>(google_breakpad::ExceptionHandler* const*, google_breakpad::ExceptionHandler* const*, google_breakpad::ExceptionHandler**)
PUBLIC 177fc 0 __gnu_cxx::new_allocator<std::_List_node<google_breakpad::MappingEntry> >::allocate(unsigned long, void const*)
PUBLIC 17850 0 __gnu_cxx::__aligned_membuf<unsigned long>::_M_addr()
PUBLIC 1785e 0 __gnu_cxx::new_allocator<std::_List_node<google_breakpad::AppMemory> >::allocate(unsigned long, void const*)
PUBLIC 178a0 0 __gnu_cxx::new_allocator<google_breakpad::ExceptionHandler*>::max_size() const
PUBLIC 178b4 0 google_breakpad::ExceptionHandler** std::__uninitialized_copy<true>::__uninit_copy<std::move_iterator<google_breakpad::ExceptionHandler**>, google_breakpad::ExceptionHandler**>(std::move_iterator<google_breakpad::ExceptionHandler**>, std::move_iterator<google_breakpad::ExceptionHandler**>, google_breakpad::ExceptionHandler**)
PUBLIC 178e2 0 __gnu_cxx::new_allocator<std::_List_node<google_breakpad::MappingEntry> >::max_size() const
PUBLIC 178f6 0 __gnu_cxx::new_allocator<std::_List_node<google_breakpad::AppMemory> >::max_size() const
PUBLIC 1790a 0 google_breakpad::ExceptionHandler** std::copy<std::move_iterator<google_breakpad::ExceptionHandler**>, google_breakpad::ExceptionHandler**>(std::move_iterator<google_breakpad::ExceptionHandler**>, std::move_iterator<google_breakpad::ExceptionHandler**>, google_breakpad::ExceptionHandler**)
PUBLIC 17956 0 decltype (__miter_base(({parm#1}.base)())) std::__miter_base<google_breakpad::ExceptionHandler**>(std::move_iterator<google_breakpad::ExceptionHandler**>)
PUBLIC 17978 0 google_breakpad::ExceptionHandler** std::__copy_move_a2<true, google_breakpad::ExceptionHandler**, google_breakpad::ExceptionHandler**>(google_breakpad::ExceptionHandler**, google_breakpad::ExceptionHandler**, google_breakpad::ExceptionHandler**)
PUBLIC 179d0 0 std::move_iterator<google_breakpad::ExceptionHandler**>::base() const
PUBLIC 179e1 0 google_breakpad::ExceptionHandler** std::__miter_base<google_breakpad::ExceptionHandler**>(google_breakpad::ExceptionHandler**)
PUBLIC 179ef 0 google_breakpad::ExceptionHandler** std::__niter_base<google_breakpad::ExceptionHandler**>(google_breakpad::ExceptionHandler**)
PUBLIC 179fe 0 google_breakpad::MinidumpDescriptor::MinidumpDescriptor(google_breakpad::MinidumpDescriptor const&)
PUBLIC 17b02 0 google_breakpad::MinidumpDescriptor::operator=(google_breakpad::MinidumpDescriptor const&)
PUBLIC 17c22 0 google_breakpad::MinidumpDescriptor::UpdatePath()
PUBLIC 17dde 0 std::__cxx11::basic_string<char, std::char_traits<char>, std::allocator<char> > std::operator+<char, std::char_traits<char>, std::allocator<char> >(std::__cxx11::basic_string<char, std::char_traits<char>, std::allocator<char> > const&, char const*)
PUBLIC 17e40 0 std::remove_reference<std::__cxx11::basic_string<char, std::char_traits<char>, std::allocator<char> >&>::type&& std::move<std::__cxx11::basic_string<char, std::char_traits<char>, std::allocator<char> >&>(std::__cxx11::basic_string<char, std::char_traits<char>, std::allocator<char> >&)
PUBLIC 17e4e 0 std::__cxx11::basic_string<char, std::char_traits<char>, std::allocator<char> > std::operator+<char, std::char_traits<char>, std::allocator<char> >(std::__cxx11::basic_string<char, std::char_traits<char>, std::allocator<char> >&&, char const*)
PUBLIC 17e96 0 sys_close
PUBLIC 17edf 0 sys_munmap
PUBLIC 17f32 0 sys_open
PUBLIC 17f8c 0 sys_read
PUBLIC 17fe5 0 sys_mmap
PUBLIC 18074 0 (anonymous namespace)::MinidumpWriter::MinidumpWriter(char const*, int, google_breakpad::ExceptionHandler::CrashContext const*, std::__cxx11::list<google_breakpad::MappingEntry, std::allocator<google_breakpad::MappingEntry> > const&, std::__cxx11::list<google_breakpad::AppMemory, std::allocator<google_breakpad::AppMemory> > const&, bool, unsigned long, bool, google_breakpad::LinuxDumper*)
PUBLIC 1822a 0 (anonymous namespace)::MinidumpWriter::Init()
PUBLIC 18376 0 (anonymous namespace)::MinidumpWriter::~MinidumpWriter()
PUBLIC 183e0 0 (anonymous namespace)::MinidumpWriter::CrashingThreadReferencesPrincipalMapping()
PUBLIC 18550 0 (anonymous namespace)::MinidumpWriter::Dump()
PUBLIC 18bda 0 (anonymous namespace)::MinidumpWriter::FillThreadStack(MDRawThread*, unsigned long, unsigned long, int, unsigned char**)
PUBLIC 18ecc 0 (anonymous namespace)::MinidumpWriter::WriteThreadListStream(MDRawDirectory*)
PUBLIC 19702 0 (anonymous namespace)::MinidumpWriter::WriteAppMemory()
PUBLIC 198ad 0 (anonymous namespace)::MinidumpWriter::ShouldIncludeMapping(google_breakpad::MappingInfo const&)
PUBLIC 198fc 0 (anonymous namespace)::MinidumpWriter::HaveMappingInfo(google_breakpad::MappingInfo const&)
PUBLIC 199e0 0 (anonymous namespace)::MinidumpWriter::WriteMappings(MDRawDirectory*)
PUBLIC 19d6c 0 (anonymous namespace)::MinidumpWriter::FillRawModule(google_breakpad::MappingInfo const&, bool, unsigned int, MDRawModule*, unsigned char const*)
PUBLIC 1a048 0 (anonymous namespace)::MinidumpWriter::WriteMemoryListStream(MDRawDirectory*)
PUBLIC 1a1b0 0 (anonymous namespace)::MinidumpWriter::WriteExceptionStream(MDRawDirectory*)
PUBLIC 1a31a 0 (anonymous namespace)::MinidumpWriter::WriteSystemInfoStream(MDRawDirectory*)
PUBLIC 1a40a 0 (anonymous namespace)::MinidumpWriter::WriteDSODebugStream(MDRawDirectory*)
PUBLIC 1abbc 0 (anonymous namespace)::MinidumpWriter::set_minidump_size_limit(long)
PUBLIC 1abd8 0 (anonymous namespace)::MinidumpWriter::Alloc(unsigned int)
PUBLIC 1ac0e 0 (anonymous namespace)::MinidumpWriter::GetCrashThread() const
PUBLIC 1ac2c 0 (anonymous namespace)::MinidumpWriter::NullifyDirectoryEntry(MDRawDirectory*)
PUBLIC 1ac5c 0 (anonymous namespace)::MinidumpWriter::WriteCPUInformation(MDRawSystemInfo*)
PUBLIC 1b004 0 (anonymous namespace)::MinidumpWriter::WriteFile(MDLocationDescriptor*, char const*)
PUBLIC 1b240 0 (anonymous namespace)::MinidumpWriter::WriteOSInformation(MDRawSystemInfo*)
PUBLIC 1b43c 0 (anonymous namespace)::MinidumpWriter::WriteProcFile(MDLocationDescriptor*, int, char const*)
PUBLIC 1b4c8 0 (anonymous namespace)::WriteMinidumpImpl(char const*, int, long, int, void const*, unsigned long, std::__cxx11::list<google_breakpad::MappingEntry, std::allocator<google_breakpad::MappingEntry> > const&, std::__cxx11::list<google_breakpad::AppMemory, std::allocator<google_breakpad::AppMemory> > const&, bool, unsigned long, bool)
PUBLIC 1b677 0 google_breakpad::WriteMinidump(char const*, int, void const*, unsigned long, bool, unsigned long, bool)
PUBLIC 1b752 0 google_breakpad::WriteMinidump(int, int, void const*, unsigned long, bool, unsigned long, bool)
PUBLIC 1b82a 0 google_breakpad::WriteMinidump(char const*, int, int)
PUBLIC 1b99a 0 google_breakpad::WriteMinidump(char const*, int, void const*, unsigned long, std::__cxx11::list<google_breakpad::MappingEntry, std::allocator<google_breakpad::MappingEntry> > const&, std::__cxx11::list<google_breakpad::AppMemory, std::allocator<google_breakpad::AppMemory> > const&, bool, unsigned long, bool)
PUBLIC 1ba0d 0 google_breakpad::WriteMinidump(int, int, void const*, unsigned long, std::__cxx11::list<google_breakpad::MappingEntry, std::allocator<google_breakpad::MappingEntry> > const&, std::__cxx11::list<google_breakpad::AppMemory, std::allocator<google_breakpad::AppMemory> > const&, bool, unsigned long, bool)
PUBLIC 1ba7d 0 google_breakpad::WriteMinidump(char const*, long, int, void const*, unsigned long, std::__cxx11::list<google_breakpad::MappingEntry, std::allocator<google_breakpad::MappingEntry> > const&, std::__cxx11::list<google_breakpad::AppMemory, std::allocator<google_breakpad::AppMemory> > const&, bool, unsigned long, bool)
PUBLIC 1bae5 0 google_breakpad::WriteMinidump(int, long, int, void const*, unsigned long, std::__cxx11::list<google_breakpad::MappingEntry, std::allocator<google_breakpad::MappingEntry> > const&, std::__cxx11::list<google_breakpad::AppMemory, std::allocator<google_breakpad::AppMemory> > const&, bool, unsigned long, bool)
PUBLIC 1bb4a 0 google_breakpad::WriteMinidump(char const*, std::__cxx11::list<google_breakpad::MappingEntry, std::allocator<google_breakpad::MappingEntry> > const&, std::__cxx11::list<google_breakpad::AppMemory, std::allocator<google_breakpad::AppMemory> > const&, google_breakpad::LinuxDumper*)
PUBLIC 1bc1a 0 operator new(unsigned long, google_breakpad::PageAllocator&)
PUBLIC 1bc40 0 google_breakpad::LinuxDumper::threads()
PUBLIC 1bc52 0 google_breakpad::LinuxDumper::mappings()
PUBLIC 1bc66 0 google_breakpad::LinuxDumper::auxv()
PUBLIC 1bc7a 0 google_breakpad::LinuxDumper::allocator()
PUBLIC 1bc8c 0 google_breakpad::LinuxDumper::crash_address() const
PUBLIC 1bc9e 0 google_breakpad::LinuxDumper::set_crash_address(unsigned long)
PUBLIC 1bcba 0 google_breakpad::LinuxDumper::crash_signal() const
PUBLIC 1bccc 0 google_breakpad::LinuxDumper::set_crash_signal(int)
PUBLIC 1bce4 0 google_breakpad::LinuxDumper::crash_signal_code() const
PUBLIC 1bcf6 0 google_breakpad::LinuxDumper::crash_thread() const
PUBLIC 1bd08 0 google_breakpad::LinuxDumper::set_crash_thread(int)
PUBLIC 1bd20 0 google_breakpad::MinidumpFileWriter::position() const
PUBLIC 1bd32 0 google_breakpad::UntypedMDRVA::UntypedMDRVA(google_breakpad::MinidumpFileWriter*)
PUBLIC 1bd72 0 google_breakpad::UntypedMDRVA::position() const
PUBLIC 1bd84 0 google_breakpad::UntypedMDRVA::location() const
PUBLIC 1bda8 0 google_breakpad::UntypedMDRVA::Copy(void const*, unsigned long)
PUBLIC 1bdda 0 google_breakpad::LineReader::LineReader(int)
PUBLIC 1be04 0 google_breakpad::LineReader::GetNextLine(char const**, unsigned int*)
PUBLIC 1bfaa 0 google_breakpad::LineReader::PopLine(unsigned int)
PUBLIC 1c032 0 google_breakpad::ProcCpuInfoReader::ProcCpuInfoReader(int)
PUBLIC 1c064 0 google_breakpad::ProcCpuInfoReader::GetNextField(char const**)
PUBLIC 1c1ee 0 google_breakpad::ProcCpuInfoReader::GetValueAndLen(unsigned long*)
PUBLIC 1c24c 0 google_breakpad::wasteful_vector<MDMemoryDescriptor>::~wasteful_vector()
PUBLIC 1c267 0 unsigned long const& std::min<unsigned long>(unsigned long const&, unsigned long const&)
PUBLIC 1c292 0 google_breakpad::wasteful_vector<unsigned char>::~wasteful_vector()
PUBLIC 1c2ae 0 google_breakpad::auto_wasteful_vector<unsigned char, 20u>::~auto_wasteful_vector()
PUBLIC 1c2ca 0 google_breakpad::wasteful_vector<char>::~wasteful_vector()
PUBLIC 1c2e6 0 std::vector<int, google_breakpad::PageStdAllocator<int> >::size() const
PUBLIC 1c30e 0 std::vector<int, google_breakpad::PageStdAllocator<int> >::operator[](unsigned long) const
PUBLIC 1c330 0 google_breakpad::PageStdAllocator<MDMemoryDescriptor>::~PageStdAllocator()
PUBLIC 1c34c 0 google_breakpad::wasteful_vector<MDMemoryDescriptor>::wasteful_vector(google_breakpad::PageAllocator*, unsigned int)
PUBLIC 1c3c8 0 std::vector<MDMemoryDescriptor, google_breakpad::PageStdAllocator<MDMemoryDescriptor> >::~vector()
PUBLIC 1c40e 0 google_breakpad::TypedMDRVA<MDRawDirectory>::TypedMDRVA(google_breakpad::MinidumpFileWriter*)
PUBLIC 1c460 0 google_breakpad::TypedMDRVA<MDRawDirectory>::~TypedMDRVA()
PUBLIC 1c488 0 google_breakpad::TypedMDRVA<MDRawHeader>::TypedMDRVA(google_breakpad::MinidumpFileWriter*)
PUBLIC 1c4de 0 google_breakpad::TypedMDRVA<MDRawHeader>::~TypedMDRVA()
PUBLIC 1c506 0 google_breakpad::TypedMDRVA<MDRawHeader>::Allocate()
PUBLIC 1c536 0 google_breakpad::TypedMDRVA<MDRawDirectory>::AllocateArray(unsigned long)
PUBLIC 1c59a 0 google_breakpad::TypedMDRVA<MDRawHeader>::get()
PUBLIC 1c5ac 0 google_breakpad::TypedMDRVA<MDRawDirectory>::CopyIndex(unsigned int, MDRawDirectory*)
PUBLIC 1c627 0 MDMemoryDescriptor const& std::forward<MDMemoryDescriptor const&>(std::remove_reference<MDMemoryDescriptor const&>::type&)
PUBLIC 1c636 0 std::vector<MDMemoryDescriptor, google_breakpad::PageStdAllocator<MDMemoryDescriptor> >::push_back(MDMemoryDescriptor const&)
PUBLIC 1c6a2 0 google_breakpad::TypedMDRVA<unsigned int>::TypedMDRVA(google_breakpad::MinidumpFileWriter*)
PUBLIC 1c6de 0 google_breakpad::TypedMDRVA<unsigned int>::~TypedMDRVA()
PUBLIC 1c706 0 google_breakpad::TypedMDRVA<unsigned int>::AllocateObjectAndArray(unsigned long, unsigned long)
PUBLIC 1c778 0 google_breakpad::TypedMDRVA<unsigned int>::get()
PUBLIC 1c78a 0 std::vector<google_breakpad::MappingInfo*, google_breakpad::PageStdAllocator<google_breakpad::MappingInfo*> >::size() const
PUBLIC 1c7b2 0 std::vector<google_breakpad::MappingInfo*, google_breakpad::PageStdAllocator<google_breakpad::MappingInfo*> >::operator[](unsigned long) const
PUBLIC 1c7d4 0 google_breakpad::TypedMDRVA<MDRawContextAMD64>::TypedMDRVA(google_breakpad::MinidumpFileWriter*)
PUBLIC 1c820 0 google_breakpad::TypedMDRVA<MDRawContextAMD64>::~TypedMDRVA()
PUBLIC 1c84a 0 google_breakpad::TypedMDRVA<MDRawContextAMD64>::Allocate()
PUBLIC 1c87e 0 google_breakpad::TypedMDRVA<MDRawContextAMD64>::get()
PUBLIC 1c890 0 google_breakpad::TypedMDRVA<unsigned int>::CopyIndexAfterObject(unsigned int, void const*, unsigned long)
PUBLIC 1c914 0 std::__cxx11::list<google_breakpad::AppMemory, std::allocator<google_breakpad::AppMemory> >::begin() const
PUBLIC 1c93c 0 std::__cxx11::list<google_breakpad::AppMemory, std::allocator<google_breakpad::AppMemory> >::end() const
PUBLIC 1c962 0 std::_List_const_iterator<google_breakpad::AppMemory>::operator!=(std::_List_const_iterator<google_breakpad::AppMemory> const&) const
PUBLIC 1c984 0 std::_List_const_iterator<google_breakpad::AppMemory>::operator++()
PUBLIC 1c9a4 0 std::_List_const_iterator<google_breakpad::AppMemory>::operator->() const
PUBLIC 1c9c2 0 std::__cxx11::list<google_breakpad::MappingEntry, std::allocator<google_breakpad::MappingEntry> >::begin() const
PUBLIC 1c9ea 0 std::__cxx11::list<google_breakpad::MappingEntry, std::allocator<google_breakpad::MappingEntry> >::end() const
PUBLIC 1ca10 0 std::_List_const_iterator<google_breakpad::MappingEntry>::operator!=(std::_List_const_iterator<google_breakpad::MappingEntry> const&) const
PUBLIC 1ca32 0 std::_List_const_iterator<google_breakpad::MappingEntry>::operator++()
PUBLIC 1ca52 0 std::_List_const_iterator<google_breakpad::MappingEntry>::operator->() const
PUBLIC 1ca70 0 std::__cxx11::list<google_breakpad::MappingEntry, std::allocator<google_breakpad::MappingEntry> >::size() const
PUBLIC 1ca8a 0 google_breakpad::TypedMDRVA<unsigned int>::Allocate()
PUBLIC 1caba 0 google_breakpad::PageStdAllocator<unsigned char>::~PageStdAllocator()
PUBLIC 1cad6 0 google_breakpad::auto_wasteful_vector<unsigned char, 20u>::auto_wasteful_vector(google_breakpad::PageAllocator*)
PUBLIC 1cb58 0 std::vector<unsigned char, google_breakpad::PageStdAllocator<unsigned char> >::~vector()
PUBLIC 1cb9e 0 std::vector<unsigned char, google_breakpad::PageStdAllocator<unsigned char> >::end()
PUBLIC 1cbc8 0 __gnu_cxx::__normal_iterator<unsigned char const*, std::vector<unsigned char, google_breakpad::PageStdAllocator<unsigned char> > >::__normal_iterator<unsigned char*>(__gnu_cxx::__normal_iterator<unsigned char*, __gnu_cxx::__enable_if<std::__are_same<unsigned char*, unsigned char*>::__value, std::vector<unsigned char, google_breakpad::PageStdAllocator<unsigned char> > >::__type> const&)
PUBLIC 1cbf2 0 __gnu_cxx::__normal_iterator<unsigned char*, std::vector<unsigned char, google_breakpad::PageStdAllocator<unsigned char> > > std::vector<unsigned char, google_breakpad::PageStdAllocator<unsigned char> >::insert<unsigned char const*, void>(__gnu_cxx::__normal_iterator<unsigned char const*, std::vector<unsigned char, google_breakpad::PageStdAllocator<unsigned char> > >, unsigned char const*, unsigned char const*)
PUBLIC 1cc9e 0 std::vector<unsigned char, google_breakpad::PageStdAllocator<unsigned char> >::empty() const
PUBLIC 1cce0 0 std::vector<unsigned char, google_breakpad::PageStdAllocator<unsigned char> >::size() const
PUBLIC 1cd04 0 std::vector<unsigned char, google_breakpad::PageStdAllocator<unsigned char> >::operator[](unsigned long)
PUBLIC 1cd22 0 std::vector<MDMemoryDescriptor, google_breakpad::PageStdAllocator<MDMemoryDescriptor> >::size() const
PUBLIC 1cd4a 0 std::vector<MDMemoryDescriptor, google_breakpad::PageStdAllocator<MDMemoryDescriptor> >::operator[](unsigned long)
PUBLIC 1cd6c 0 google_breakpad::TypedMDRVA<MDRawExceptionStream>::TypedMDRVA(google_breakpad::MinidumpFileWriter*)
PUBLIC 1cdb8 0 google_breakpad::TypedMDRVA<MDRawExceptionStream>::~TypedMDRVA()
PUBLIC 1cde2 0 google_breakpad::TypedMDRVA<MDRawExceptionStream>::Allocate()
PUBLIC 1ce16 0 google_breakpad::TypedMDRVA<MDRawExceptionStream>::get()
PUBLIC 1ce28 0 google_breakpad::TypedMDRVA<MDRawSystemInfo>::TypedMDRVA(google_breakpad::MinidumpFileWriter*)
PUBLIC 1ce72 0 google_breakpad::TypedMDRVA<MDRawSystemInfo>::~TypedMDRVA()
PUBLIC 1ce9a 0 google_breakpad::TypedMDRVA<MDRawSystemInfo>::Allocate()
PUBLIC 1ceca 0 google_breakpad::TypedMDRVA<MDRawSystemInfo>::get()
PUBLIC 1cedc 0 std::vector<unsigned long, google_breakpad::PageStdAllocator<unsigned long> >::operator[](unsigned long) const
PUBLIC 1cefe 0 google_breakpad::TypedMDRVA<MDRawLinkMap64>::TypedMDRVA(google_breakpad::MinidumpFileWriter*)
PUBLIC 1cf52 0 google_breakpad::TypedMDRVA<MDRawLinkMap64>::~TypedMDRVA()
PUBLIC 1cf7a 0 google_breakpad::TypedMDRVA<MDRawLinkMap64>::AllocateArray(unsigned long)
PUBLIC 1cfde 0 google_breakpad::TypedMDRVA<MDRawLinkMap64>::CopyIndex(unsigned int, MDRawLinkMap64*)
PUBLIC 1d05a 0 google_breakpad::TypedMDRVA<MDRawDebug64>::TypedMDRVA(google_breakpad::MinidumpFileWriter*)
PUBLIC 1d0d0 0 google_breakpad::TypedMDRVA<MDRawDebug64>::~TypedMDRVA()
PUBLIC 1d0f8 0 google_breakpad::TypedMDRVA<MDRawDebug64>::AllocateObjectAndArray(unsigned long, unsigned long)
PUBLIC 1d16a 0 google_breakpad::TypedMDRVA<MDRawDebug64>::get()
PUBLIC 1d17c 0 google_breakpad::PageStdAllocator<char>::~PageStdAllocator()
PUBLIC 1d198 0 google_breakpad::wasteful_vector<char>::wasteful_vector(google_breakpad::PageAllocator*, unsigned int)
PUBLIC 1d214 0 std::vector<char, google_breakpad::PageStdAllocator<char> >::~vector()
PUBLIC 1d25a 0 std::vector<char, google_breakpad::PageStdAllocator<char> >::resize(unsigned long)
PUBLIC 1d2e4 0 std::vector<char, google_breakpad::PageStdAllocator<char> >::operator[](unsigned long)
PUBLIC 1d302 0 google_breakpad::TypedMDRVA<MDRawDebug64>::CopyIndexAfterObject(unsigned int, void const*, unsigned long)
PUBLIC 1d386 0 google_breakpad::PageStdAllocator<MDMemoryDescriptor>::PageStdAllocator(google_breakpad::PageAllocator&)
PUBLIC 1d3c8 0 std::allocator<MDMemoryDescriptor>::~allocator()
PUBLIC 1d3e4 0 std::vector<MDMemoryDescriptor, google_breakpad::PageStdAllocator<MDMemoryDescriptor> >::vector(google_breakpad::PageStdAllocator<MDMemoryDescriptor> const&)
PUBLIC 1d40a 0 std::vector<MDMemoryDescriptor, google_breakpad::PageStdAllocator<MDMemoryDescriptor> >::reserve(unsigned long)
PUBLIC 1d550 0 std::_Vector_base<MDMemoryDescriptor, google_breakpad::PageStdAllocator<MDMemoryDescriptor> >::_Vector_impl::~_Vector_impl()
PUBLIC 1d56c 0 std::_Vector_base<MDMemoryDescriptor, google_breakpad::PageStdAllocator<MDMemoryDescriptor> >::~_Vector_base()
PUBLIC 1d5be 0 std::_Vector_base<MDMemoryDescriptor, google_breakpad::PageStdAllocator<MDMemoryDescriptor> >::_M_get_Tp_allocator()
PUBLIC 1d5cc 0 void std::_Destroy<MDMemoryDescriptor*, google_breakpad::PageStdAllocator<MDMemoryDescriptor> >(MDMemoryDescriptor*, MDMemoryDescriptor*, google_breakpad::PageStdAllocator<MDMemoryDescriptor>&)
PUBLIC 1d612 0 google_breakpad::TypedMDRVA<MDRawDirectory>::Flush()
PUBLIC 1d646 0 google_breakpad::TypedMDRVA<MDRawHeader>::Flush()
PUBLIC 1d67a 0 google_breakpad::minidump_size<MDRawHeader>::size()
PUBLIC 1d685 0 google_breakpad::minidump_size<MDRawDirectory>::size()
PUBLIC 1d690 0 decltype (_S_construct({parm#1}, {parm#2}, (forward<MDMemoryDescriptor const&>)({parm#3}))) std::allocator_traits<google_breakpad::PageStdAllocator<MDMemoryDescriptor> >::construct<MDMemoryDescriptor, MDMemoryDescriptor const&>(google_breakpad::PageStdAllocator<MDMemoryDescriptor>&, MDMemoryDescriptor*, MDMemoryDescriptor const&)
PUBLIC 1d6ca 0 void std::vector<MDMemoryDescriptor, google_breakpad::PageStdAllocator<MDMemoryDescriptor> >::_M_emplace_back_aux<MDMemoryDescriptor const&>(MDMemoryDescriptor const&)
PUBLIC 1d8b8 0 google_breakpad::TypedMDRVA<unsigned int>::Flush()
PUBLIC 1d8ec 0 google_breakpad::minidump_size<unsigned int>::size()
PUBLIC 1d8f8 0 google_breakpad::TypedMDRVA<MDRawContextAMD64>::Flush()
PUBLIC 1d92c 0 google_breakpad::minidump_size<MDRawContextAMD64>::size()
PUBLIC 1d938 0 std::_List_const_iterator<google_breakpad::AppMemory>::_List_const_iterator(std::__detail::_List_node_base const*)
PUBLIC 1d952 0 std::_List_node<google_breakpad::AppMemory>::_M_valptr() const
PUBLIC 1d970 0 std::_List_const_iterator<google_breakpad::MappingEntry>::_List_const_iterator(std::__detail::_List_node_base const*)
PUBLIC 1d98a 0 std::_List_node<google_breakpad::MappingEntry>::_M_valptr() const
PUBLIC 1d9a8 0 std::__cxx11::_List_base<google_breakpad::MappingEntry, std::allocator<google_breakpad::MappingEntry> >::_M_node_count() const
PUBLIC 1d9c6 0 google_breakpad::PageStdAllocator<unsigned char>::PageStdAllocator(google_breakpad::PageAllocator&, unsigned char*, unsigned long)
PUBLIC 1da10 0 std::allocator<unsigned char>::~allocator()
PUBLIC 1da2c 0 std::allocator<unsigned char>::allocator(std::allocator<unsigned char> const&)
PUBLIC 1da52 0 google_breakpad::wasteful_vector<unsigned char>::wasteful_vector(google_breakpad::PageStdAllocator<unsigned char>)
PUBLIC 1da78 0 std::vector<unsigned char, google_breakpad::PageStdAllocator<unsigned char> >::reserve(unsigned long)
PUBLIC 1dbb0 0 std::_Vector_base<unsigned char, google_breakpad::PageStdAllocator<unsigned char> >::_Vector_impl::~_Vector_impl()
PUBLIC 1dbcc 0 std::_Vector_base<unsigned char, google_breakpad::PageStdAllocator<unsigned char> >::~_Vector_base()
PUBLIC 1dc1a 0 std::_Vector_base<unsigned char, google_breakpad::PageStdAllocator<unsigned char> >::_M_get_Tp_allocator()
PUBLIC 1dc28 0 void std::_Destroy<unsigned char*, google_breakpad::PageStdAllocator<unsigned char> >(unsigned char*, unsigned char*, google_breakpad::PageStdAllocator<unsigned char>&)
PUBLIC 1dc6e 0 __gnu_cxx::__normal_iterator<unsigned char*, std::vector<unsigned char, google_breakpad::PageStdAllocator<unsigned char> > >::__normal_iterator(unsigned char* const&)
PUBLIC 1dc8c 0 __gnu_cxx::__normal_iterator<unsigned char*, std::vector<unsigned char, google_breakpad::PageStdAllocator<unsigned char> > >::base() const
PUBLIC 1dc9a 0 std::vector<unsigned char, google_breakpad::PageStdAllocator<unsigned char> >::cbegin() const
PUBLIC 1dccb 0 __gnu_cxx::__normal_iterator<unsigned char const*, std::vector<unsigned char, google_breakpad::PageStdAllocator<unsigned char> > >::difference_type __gnu_cxx::operator-<unsigned char const*, std::vector<unsigned char, google_breakpad::PageStdAllocator<unsigned char> > >(__gnu_cxx::__normal_iterator<unsigned char const*, std::vector<unsigned char, google_breakpad::PageStdAllocator<unsigned char> > > const&, __gnu_cxx::__normal_iterator<unsigned char const*, std::vector<unsigned char, google_breakpad::PageStdAllocator<unsigned char> > > const&)
PUBLIC 1dd0a 0 std::vector<unsigned char, google_breakpad::PageStdAllocator<unsigned char> >::begin()
PUBLIC 1dd34 0 __gnu_cxx::__normal_iterator<unsigned char*, std::vector<unsigned char, google_breakpad::PageStdAllocator<unsigned char> > >::operator+(long) const
PUBLIC 1dd70 0 void std::vector<unsigned char, google_breakpad::PageStdAllocator<unsigned char> >::_M_insert_dispatch<unsigned char const*>(__gnu_cxx::__normal_iterator<unsigned char*, std::vector<unsigned char, google_breakpad::PageStdAllocator<unsigned char> > >, unsigned char const*, unsigned char const*, std::__false_type)
PUBLIC 1ddae 0 std::vector<unsigned char, google_breakpad::PageStdAllocator<unsigned char> >::begin() const
PUBLIC 1dde0 0 std::vector<unsigned char, google_breakpad::PageStdAllocator<unsigned char> >::end() const
PUBLIC 1de11 0 bool __gnu_cxx::operator==<unsigned char const*, std::vector<unsigned char, google_breakpad::PageStdAllocator<unsigned char> > >(__gnu_cxx::__normal_iterator<unsigned char const*, std::vector<unsigned char, google_breakpad::PageStdAllocator<unsigned char> > > const&, __gnu_cxx::__normal_iterator<unsigned char const*, std::vector<unsigned char, google_breakpad::PageStdAllocator<unsigned char> > > const&)
PUBLIC 1de4e 0 google_breakpad::TypedMDRVA<MDRawExceptionStream>::Flush()
PUBLIC 1de82 0 google_breakpad::minidump_size<MDRawExceptionStream>::size()
PUBLIC 1de8e 0 google_breakpad::TypedMDRVA<MDRawSystemInfo>::Flush()
PUBLIC 1dec2 0 google_breakpad::minidump_size<MDRawSystemInfo>::size()
PUBLIC 1dece 0 google_breakpad::TypedMDRVA<MDRawLinkMap64>::Flush()
PUBLIC 1df02 0 google_breakpad::minidump_size<MDRawLinkMap64>::size()
PUBLIC 1df0e 0 google_breakpad::TypedMDRVA<MDRawDebug64>::Flush()
PUBLIC 1df42 0 google_breakpad::minidump_size<MDRawDebug64>::size()
PUBLIC 1df4e 0 google_breakpad::PageStdAllocator<char>::PageStdAllocator(google_breakpad::PageAllocator&)
PUBLIC 1df90 0 std::vector<char, google_breakpad::PageStdAllocator<char> >::vector(google_breakpad::PageStdAllocator<char> const&)
PUBLIC 1dfb6 0 std::vector<char, google_breakpad::PageStdAllocator<char> >::reserve(unsigned long)
PUBLIC 1e0ee 0 std::_Vector_base<char, google_breakpad::PageStdAllocator<char> >::_Vector_impl::~_Vector_impl()
PUBLIC 1e10a 0 std::_Vector_base<char, google_breakpad::PageStdAllocator<char> >::~_Vector_base()
PUBLIC 1e158 0 std::_Vector_base<char, google_breakpad::PageStdAllocator<char> >::_M_get_Tp_allocator()
PUBLIC 1e166 0 void std::_Destroy<char*, google_breakpad::PageStdAllocator<char> >(char*, char*, google_breakpad::PageStdAllocator<char>&)
PUBLIC 1e1ac 0 std::vector<char, google_breakpad::PageStdAllocator<char> >::size() const
PUBLIC 1e1d0 0 std::vector<char, google_breakpad::PageStdAllocator<char> >::_M_default_append(unsigned long)
PUBLIC 1e3ce 0 std::vector<char, google_breakpad::PageStdAllocator<char> >::_M_erase_at_end(char*)
PUBLIC 1e414 0 std::allocator<MDMemoryDescriptor>::allocator()
PUBLIC 1e430 0 __gnu_cxx::new_allocator<MDMemoryDescriptor>::~new_allocator()
PUBLIC 1e43c 0 std::_Vector_base<MDMemoryDescriptor, google_breakpad::PageStdAllocator<MDMemoryDescriptor> >::_Vector_base(google_breakpad::PageStdAllocator<MDMemoryDescriptor> const&)
PUBLIC 1e462 0 std::vector<MDMemoryDescriptor, google_breakpad::PageStdAllocator<MDMemoryDescriptor> >::max_size() const
PUBLIC 1e484 0 std::vector<MDMemoryDescriptor, google_breakpad::PageStdAllocator<MDMemoryDescriptor> >::capacity() const
PUBLIC 1e4ab 0 std::move_iterator<MDMemoryDescriptor*> std::__make_move_if_noexcept_iterator<MDMemoryDescriptor, std::move_iterator<MDMemoryDescriptor*> >(MDMemoryDescriptor*)
PUBLIC 1e4d0 0 MDMemoryDescriptor* std::vector<MDMemoryDescriptor, google_breakpad::PageStdAllocator<MDMemoryDescriptor> >::_M_allocate_and_copy<std::move_iterator<MDMemoryDescriptor*> >(unsigned long, std::move_iterator<MDMemoryDescriptor*>, std::move_iterator<MDMemoryDescriptor*>)
PUBLIC 1e568 0 std::_Vector_base<MDMemoryDescriptor, google_breakpad::PageStdAllocator<MDMemoryDescriptor> >::_M_deallocate(MDMemoryDescriptor*, unsigned long)
PUBLIC 1e59d 0 MDMemoryDescriptor* std::__addressof<MDMemoryDescriptor>(MDMemoryDescriptor&)
PUBLIC 1e5ab 0 void std::allocator_traits<google_breakpad::PageStdAllocator<MDMemoryDescriptor> >::destroy<MDMemoryDescriptor>(google_breakpad::PageStdAllocator<MDMemoryDescriptor>&, MDMemoryDescriptor*)
PUBLIC 1e5d6 0 std::enable_if<std::__and_<std::allocator_traits<google_breakpad::PageStdAllocator<MDMemoryDescriptor> >::__construct_helper<MDMemoryDescriptor, MDMemoryDescriptor const&>::type>::value, void>::type std::allocator_traits<google_breakpad::PageStdAllocator<MDMemoryDescriptor> >::_S_construct<MDMemoryDescriptor, MDMemoryDescriptor const&>(google_breakpad::PageStdAllocator<MDMemoryDescriptor>&, MDMemoryDescriptor*, MDMemoryDescriptor const&)
PUBLIC 1e610 0 std::vector<MDMemoryDescriptor, google_breakpad::PageStdAllocator<MDMemoryDescriptor> >::_M_check_len(unsigned long, char const*) const
PUBLIC 1e6da 0 std::_Vector_base<MDMemoryDescriptor, google_breakpad::PageStdAllocator<MDMemoryDescriptor> >::_M_allocate(unsigned long)
PUBLIC 1e70d 0 MDMemoryDescriptor* std::__uninitialized_move_if_noexcept_a<MDMemoryDescriptor*, MDMemoryDescriptor*, google_breakpad::PageStdAllocator<MDMemoryDescriptor> >(MDMemoryDescriptor*, MDMemoryDescriptor*, MDMemoryDescriptor*, google_breakpad::PageStdAllocator<MDMemoryDescriptor>&)
PUBLIC 1e762 0 __gnu_cxx::__aligned_membuf<google_breakpad::AppMemory>::_M_ptr() const
PUBLIC 1e77c 0 __gnu_cxx::__aligned_membuf<google_breakpad::MappingEntry>::_M_ptr() const
PUBLIC 1e796 0 std::_List_node<unsigned long>::_M_valptr() const
PUBLIC 1e7b4 0 std::allocator<unsigned char>::allocator()
PUBLIC 1e7d0 0 __gnu_cxx::new_allocator<unsigned char>::~new_allocator()
PUBLIC 1e7dc 0 __gnu_cxx::new_allocator<unsigned char>::new_allocator(__gnu_cxx::new_allocator<unsigned char> const&)
PUBLIC 1e7ec 0 std::vector<unsigned char, google_breakpad::PageStdAllocator<unsigned char> >::vector(google_breakpad::PageStdAllocator<unsigned char> const&)
PUBLIC 1e812 0 std::vector<unsigned char, google_breakpad::PageStdAllocator<unsigned char> >::max_size() const
PUBLIC 1e834 0 std::vector<unsigned char, google_breakpad::PageStdAllocator<unsigned char> >::capacity() const
PUBLIC 1e857 0 std::move_iterator<unsigned char*> std::__make_move_if_noexcept_iterator<unsigned char, std::move_iterator<unsigned char*> >(unsigned char*)
PUBLIC 1e87c 0 unsigned char* std::vector<unsigned char, google_breakpad::PageStdAllocator<unsigned char> >::_M_allocate_and_copy<std::move_iterator<unsigned char*> >(unsigned long, std::move_iterator<unsigned char*>, std::move_iterator<unsigned char*>)
PUBLIC 1e914 0 std::_Vector_base<unsigned char, google_breakpad::PageStdAllocator<unsigned char> >::_M_deallocate(unsigned char*, unsigned long)
PUBLIC 1e949 0 unsigned char* std::__addressof<unsigned char>(unsigned char&)
PUBLIC 1e957 0 void std::allocator_traits<google_breakpad::PageStdAllocator<unsigned char> >::destroy<unsigned char>(google_breakpad::PageStdAllocator<unsigned char>&, unsigned char*)
PUBLIC 1e982 0 __gnu_cxx::__normal_iterator<unsigned char const*, std::vector<unsigned char, google_breakpad::PageStdAllocator<unsigned char> > >::__normal_iterator(unsigned char const* const&)
PUBLIC 1e9a0 0 __gnu_cxx::__normal_iterator<unsigned char const*, std::vector<unsigned char, google_breakpad::PageStdAllocator<unsigned char> > >::base() const
PUBLIC 1e9ae 0 void std::vector<unsigned char, google_breakpad::PageStdAllocator<unsigned char> >::_M_range_insert<unsigned char const*>(__gnu_cxx::__normal_iterator<unsigned char*, std::vector<unsigned char, google_breakpad::PageStdAllocator<unsigned char> > >, unsigned char const*, unsigned char const*, std::forward_iterator_tag)
PUBLIC 1ed80 0 std::_Vector_base<char, google_breakpad::PageStdAllocator<char> >::_Vector_base(google_breakpad::PageStdAllocator<char> const&)
PUBLIC 1eda6 0 std::vector<char, google_breakpad::PageStdAllocator<char> >::max_size() const
PUBLIC 1edc8 0 std::vector<char, google_breakpad::PageStdAllocator<char> >::capacity() const
PUBLIC 1edeb 0 std::move_iterator<char*> std::__make_move_if_noexcept_iterator<char, std::move_iterator<char*> >(char*)
PUBLIC 1ee10 0 char* std::vector<char, google_breakpad::PageStdAllocator<char> >::_M_allocate_and_copy<std::move_iterator<char*> >(unsigned long, std::move_iterator<char*>, std::move_iterator<char*>)
PUBLIC 1eea8 0 std::_Vector_base<char, google_breakpad::PageStdAllocator<char> >::_M_deallocate(char*, unsigned long)
PUBLIC 1eedd 0 char* std::__addressof<char>(char&)
PUBLIC 1eeeb 0 void std::allocator_traits<google_breakpad::PageStdAllocator<char> >::destroy<char>(google_breakpad::PageStdAllocator<char>&, char*)
PUBLIC 1ef16 0 char* std::__uninitialized_default_n_a<char*, unsigned long, google_breakpad::PageStdAllocator<char> >(char*, unsigned long, google_breakpad::PageStdAllocator<char>&)
PUBLIC 1efa8 0 std::vector<char, google_breakpad::PageStdAllocator<char> >::_M_check_len(unsigned long, char const*) const
PUBLIC 1f072 0 std::_Vector_base<char, google_breakpad::PageStdAllocator<char> >::_M_allocate(unsigned long)
PUBLIC 1f0a5 0 char* std::__uninitialized_move_if_noexcept_a<char*, char*, google_breakpad::PageStdAllocator<char> >(char*, char*, char*, google_breakpad::PageStdAllocator<char>&)
PUBLIC 1f0fa 0 __gnu_cxx::new_allocator<MDMemoryDescriptor>::new_allocator()
PUBLIC 1f106 0 google_breakpad::PageStdAllocator<MDMemoryDescriptor>::PageStdAllocator(google_breakpad::PageStdAllocator<MDMemoryDescriptor> const&)
PUBLIC 1f15a 0 std::_Vector_base<MDMemoryDescriptor, google_breakpad::PageStdAllocator<MDMemoryDescriptor> >::_Vector_impl::_Vector_impl(google_breakpad::PageStdAllocator<MDMemoryDescriptor> const&)
PUBLIC 1f1a4 0 std::allocator_traits<google_breakpad::PageStdAllocator<MDMemoryDescriptor> >::max_size(google_breakpad::PageStdAllocator<MDMemoryDescriptor> const&)
PUBLIC 1f1c4 0 std::_Vector_base<MDMemoryDescriptor, google_breakpad::PageStdAllocator<MDMemoryDescriptor> >::_M_get_Tp_allocator() const
PUBLIC 1f1d2 0 std::move_iterator<MDMemoryDescriptor*>::move_iterator(MDMemoryDescriptor*)
PUBLIC 1f1ec 0 MDMemoryDescriptor&& std::forward<MDMemoryDescriptor>(std::remove_reference<MDMemoryDescriptor>::type&)
PUBLIC 1f1fa 0 MDMemoryDescriptor* std::__uninitialized_copy_a<std::move_iterator<MDMemoryDescriptor*>, MDMemoryDescriptor*, google_breakpad::PageStdAllocator<MDMemoryDescriptor> >(std::move_iterator<MDMemoryDescriptor*>, std::move_iterator<MDMemoryDescriptor*>, MDMemoryDescriptor*, google_breakpad::PageStdAllocator<MDMemoryDescriptor>&)
PUBLIC 1f2b9 0 std::allocator_traits<google_breakpad::PageStdAllocator<MDMemoryDescriptor> >::deallocate(google_breakpad::PageStdAllocator<MDMemoryDescriptor>&, MDMemoryDescriptor*, unsigned long)
PUBLIC 1f2e7 0 decltype (({parm#1}.destroy)({parm#2})) std::allocator_traits<google_breakpad::PageStdAllocator<MDMemoryDescriptor> >::_S_destroy<google_breakpad::PageStdAllocator<MDMemoryDescriptor>, MDMemoryDescriptor>(google_breakpad::PageStdAllocator<MDMemoryDescriptor>&, MDMemoryDescriptor*, int)
PUBLIC 1f310 0 void __gnu_cxx::new_allocator<MDMemoryDescriptor>::construct<MDMemoryDescriptor, MDMemoryDescriptor const&>(MDMemoryDescriptor*, MDMemoryDescriptor const&)
PUBLIC 1f363 0 std::allocator_traits<google_breakpad::PageStdAllocator<MDMemoryDescriptor> >::allocate(google_breakpad::PageStdAllocator<MDMemoryDescriptor>&, unsigned long)
PUBLIC 1f38e 0 __gnu_cxx::__aligned_membuf<google_breakpad::AppMemory>::_M_addr() const
PUBLIC 1f39c 0 __gnu_cxx::__aligned_membuf<google_breakpad::MappingEntry>::_M_addr() const
PUBLIC 1f3aa 0 __gnu_cxx::__aligned_membuf<unsigned long>::_M_ptr() const
PUBLIC 1f3c4 0 __gnu_cxx::new_allocator<unsigned char>::new_allocator()
PUBLIC 1f3d0 0 std::_Vector_base<unsigned char, google_breakpad::PageStdAllocator<unsigned char> >::_Vector_base(google_breakpad::PageStdAllocator<unsigned char> const&)
PUBLIC 1f3f6 0 std::allocator_traits<google_breakpad::PageStdAllocator<unsigned char> >::max_size(google_breakpad::PageStdAllocator<unsigned char> const&)
PUBLIC 1f416 0 std::_Vector_base<unsigned char, google_breakpad::PageStdAllocator<unsigned char> >::_M_get_Tp_allocator() const
PUBLIC 1f424 0 std::move_iterator<unsigned char*>::move_iterator(unsigned char*)
PUBLIC 1f43e 0 std::_Vector_base<unsigned char, google_breakpad::PageStdAllocator<unsigned char> >::_M_allocate(unsigned long)
PUBLIC 1f471 0 unsigned char&& std::forward<unsigned char>(std::remove_reference<unsigned char>::type&)
PUBLIC 1f47f 0 unsigned char* std::__uninitialized_copy_a<std::move_iterator<unsigned char*>, unsigned char*, google_breakpad::PageStdAllocator<unsigned char> >(std::move_iterator<unsigned char*>, std::move_iterator<unsigned char*>, unsigned char*, google_breakpad::PageStdAllocator<unsigned char>&)
PUBLIC 1f53e 0 std::allocator_traits<google_breakpad::PageStdAllocator<unsigned char> >::deallocate(google_breakpad::PageStdAllocator<unsigned char>&, unsigned char*, unsigned long)
PUBLIC 1f56c 0 decltype (({parm#1}.destroy)({parm#2})) std::allocator_traits<google_breakpad::PageStdAllocator<unsigned char> >::_S_destroy<google_breakpad::PageStdAllocator<unsigned char>, unsigned char>(google_breakpad::PageStdAllocator<unsigned char>&, unsigned char*, int)
PUBLIC 1f595 0 std::iterator_traits<unsigned char const*>::difference_type std::distance<unsigned char const*>(unsigned char const*, unsigned char const*)
PUBLIC 1f5d4 0 __gnu_cxx::__normal_iterator<unsigned char*, std::vector<unsigned char, google_breakpad::PageStdAllocator<unsigned char> > >::difference_type __gnu_cxx::operator-<unsigned char*, std::vector<unsigned char, google_breakpad::PageStdAllocator<unsigned char> > >(__gnu_cxx::__normal_iterator<unsigned char*, std::vector<unsigned char, google_breakpad::PageStdAllocator<unsigned char> > > const&, __gnu_cxx::__normal_iterator<unsigned char*, std::vector<unsigned char, google_breakpad::PageStdAllocator<unsigned char> > > const&)
PUBLIC 1f613 0 unsigned char* std::__uninitialized_move_a<unsigned char*, unsigned char*, google_breakpad::PageStdAllocator<unsigned char> >(unsigned char*, unsigned char*, unsigned char*, google_breakpad::PageStdAllocator<unsigned char>&)
PUBLIC 1f667 0 unsigned char* std::move_backward<unsigned char*, unsigned char*>(unsigned char*, unsigned char*, unsigned char*)
PUBLIC 1f6b3 0 __gnu_cxx::__normal_iterator<unsigned char*, std::vector<unsigned char, google_breakpad::PageStdAllocator<unsigned char> > > std::copy<unsigned char const*, __gnu_cxx::__normal_iterator<unsigned char*, std::vector<unsigned char, google_breakpad::PageStdAllocator<unsigned char> > > >(unsigned char const*, unsigned char const*, __gnu_cxx::__normal_iterator<unsigned char*, std::vector<unsigned char, google_breakpad::PageStdAllocator<unsigned char> > >)
PUBLIC 1f6ff 0 void std::advance<unsigned char const*, unsigned long>(unsigned char const*&, unsigned long)
PUBLIC 1f747 0 unsigned char const& std::forward<unsigned char const&>(std::remove_reference<unsigned char const&>::type&)
PUBLIC 1f755 0 unsigned char* std::__uninitialized_copy_a<unsigned char const*, unsigned char*, google_breakpad::PageStdAllocator<unsigned char> >(unsigned char const*, unsigned char const*, unsigned char*, google_breakpad::PageStdAllocator<unsigned char>&)
PUBLIC 1f7f2 0 std::vector<unsigned char, google_breakpad::PageStdAllocator<unsigned char> >::_M_check_len(unsigned long, char const*) const
PUBLIC 1f8bb 0 unsigned char* std::__uninitialized_move_if_noexcept_a<unsigned char*, unsigned char*, google_breakpad::PageStdAllocator<unsigned char> >(unsigned char*, unsigned char*, unsigned char*, google_breakpad::PageStdAllocator<unsigned char>&)
PUBLIC 1f910 0 google_breakpad::PageStdAllocator<char>::PageStdAllocator(google_breakpad::PageStdAllocator<char> const&)
PUBLIC 1f964 0 std::_Vector_base<char, google_breakpad::PageStdAllocator<char> >::_Vector_impl::_Vector_impl(google_breakpad::PageStdAllocator<char> const&)
PUBLIC 1f9ae 0 std::allocator_traits<google_breakpad::PageStdAllocator<char> >::max_size(google_breakpad::PageStdAllocator<char> const&)
PUBLIC 1f9ce 0 std::_Vector_base<char, google_breakpad::PageStdAllocator<char> >::_M_get_Tp_allocator() const
PUBLIC 1f9dc 0 std::move_iterator<char*>::move_iterator(char*)
PUBLIC 1f9f6 0 char&& std::forward<char>(std::remove_reference<char>::type&)
PUBLIC 1fa04 0 char* std::__uninitialized_copy_a<std::move_iterator<char*>, char*, google_breakpad::PageStdAllocator<char> >(std::move_iterator<char*>, std::move_iterator<char*>, char*, google_breakpad::PageStdAllocator<char>&)
PUBLIC 1fac3 0 std::allocator_traits<google_breakpad::PageStdAllocator<char> >::deallocate(google_breakpad::PageStdAllocator<char>&, char*, unsigned long)
PUBLIC 1faf1 0 decltype (({parm#1}.destroy)({parm#2})) std::allocator_traits<google_breakpad::PageStdAllocator<char> >::_S_destroy<google_breakpad::PageStdAllocator<char>, char>(google_breakpad::PageStdAllocator<char>&, char*, int)
PUBLIC 1fb1a 0 decltype (_S_construct({parm#1}, {parm#2})) std::allocator_traits<google_breakpad::PageStdAllocator<char> >::construct<char>(google_breakpad::PageStdAllocator<char>&, char*)
PUBLIC 1fb40 0 std::allocator_traits<google_breakpad::PageStdAllocator<char> >::allocate(google_breakpad::PageStdAllocator<char>&, unsigned long)
PUBLIC 1fb6a 0 std::allocator<MDMemoryDescriptor>::allocator(std::allocator<MDMemoryDescriptor> const&)
PUBLIC 1fb90 0 decltype (({parm#1}.max_size)()) std::allocator_traits<google_breakpad::PageStdAllocator<MDMemoryDescriptor> >::_S_max_size<google_breakpad::PageStdAllocator<MDMemoryDescriptor> const>(google_breakpad::PageStdAllocator<MDMemoryDescriptor> const&, int)
PUBLIC 1fbad 0 bool std::operator!=<MDMemoryDescriptor*>(std::move_iterator<MDMemoryDescriptor*> const&, std::move_iterator<MDMemoryDescriptor*> const&)
PUBLIC 1fbd6 0 std::move_iterator<MDMemoryDescriptor*>::operator++()
PUBLIC 1fbf6 0 std::move_iterator<MDMemoryDescriptor*>::operator*() const
PUBLIC 1fc07 0 decltype (_S_construct({parm#1}, {parm#2}, (forward<MDMemoryDescriptor>)({parm#3}))) std::allocator_traits<google_breakpad::PageStdAllocator<MDMemoryDescriptor> >::construct<MDMemoryDescriptor, MDMemoryDescriptor>(google_breakpad::PageStdAllocator<MDMemoryDescriptor>&, MDMemoryDescriptor*, MDMemoryDescriptor&&)
PUBLIC 1fc40 0 google_breakpad::PageStdAllocator<MDMemoryDescriptor>::deallocate(MDMemoryDescriptor*, unsigned long)
PUBLIC 1fc54 0 void __gnu_cxx::new_allocator<MDMemoryDescriptor>::destroy<MDMemoryDescriptor>(MDMemoryDescriptor*)
PUBLIC 1fc64 0 google_breakpad::PageStdAllocator<MDMemoryDescriptor>::allocate(unsigned long, void const*)
PUBLIC 1fcb4 0 __gnu_cxx::__aligned_membuf<unsigned long>::_M_addr() const
PUBLIC 1fcc2 0 google_breakpad::PageStdAllocator<unsigned char>::PageStdAllocator(google_breakpad::PageStdAllocator<unsigned char> const&)
PUBLIC 1fd16 0 std::_Vector_base<unsigned char, google_breakpad::PageStdAllocator<unsigned char> >::_Vector_impl::_Vector_impl(google_breakpad::PageStdAllocator<unsigned char> const&)
PUBLIC 1fd60 0 decltype (({parm#1}.max_size)()) std::allocator_traits<google_breakpad::PageStdAllocator<unsigned char> >::_S_max_size<google_breakpad::PageStdAllocator<unsigned char> const>(google_breakpad::PageStdAllocator<unsigned char> const&, int)
PUBLIC 1fd7d 0 std::allocator_traits<google_breakpad::PageStdAllocator<unsigned char> >::allocate(google_breakpad::PageStdAllocator<unsigned char>&, unsigned long)
PUBLIC 1fda7 0 bool std::operator!=<unsigned char*>(std::move_iterator<unsigned char*> const&, std::move_iterator<unsigned char*> const&)
PUBLIC 1fdd0 0 std::move_iterator<unsigned char*>::operator++()
PUBLIC 1fdf0 0 std::move_iterator<unsigned char*>::operator*() const
PUBLIC 1fe01 0 decltype (_S_construct({parm#1}, {parm#2}, (forward<unsigned char>)({parm#3}))) std::allocator_traits<google_breakpad::PageStdAllocator<unsigned char> >::construct<unsigned char, unsigned char>(google_breakpad::PageStdAllocator<unsigned char>&, unsigned char*, unsigned char&&)
PUBLIC 1fe3a 0 google_breakpad::PageStdAllocator<unsigned char>::deallocate(unsigned char*, unsigned long)
PUBLIC 1fe4e 0 void __gnu_cxx::new_allocator<unsigned char>::destroy<unsigned char>(unsigned char*)
PUBLIC 1fe5d 0 std::iterator_traits<unsigned char const*>::iterator_category std::__iterator_category<unsigned char const*>(unsigned char const* const&)
PUBLIC 1fe67 0 std::iterator_traits<unsigned char const*>::difference_type std::__distance<unsigned char const*>(unsigned char const*, unsigned char const*, std::random_access_iterator_tag)
PUBLIC 1fe83 0 std::move_iterator<unsigned char*> std::make_move_iterator<unsigned char*>(unsigned char*)
PUBLIC 1fea8 0 unsigned char* std::__miter_base<unsigned char*>(unsigned char*)
PUBLIC 1feb6 0 unsigned char* std::__copy_move_backward_a2<true, unsigned char*, unsigned char*>(unsigned char*, unsigned char*, unsigned char*)
PUBLIC 1ff0e 0 unsigned char const* std::__miter_base<unsigned char const*>(unsigned char const*)
PUBLIC 1ff1c 0 __gnu_cxx::__normal_iterator<unsigned char*, std::vector<unsigned char, google_breakpad::PageStdAllocator<unsigned char> > > std::__copy_move_a2<false, unsigned char const*, __gnu_cxx::__normal_iterator<unsigned char*, std::vector<unsigned char, google_breakpad::PageStdAllocator<unsigned char> > > >(unsigned char const*, unsigned char const*, __gnu_cxx::__normal_iterator<unsigned char*, std::vector<unsigned char, google_breakpad::PageStdAllocator<unsigned char> > >)
PUBLIC 1ff8f 0 void std::__advance<unsigned char const*, long>(unsigned char const*&, long, std::random_access_iterator_tag)
PUBLIC 1ffb3 0 decltype (_S_construct({parm#1}, {parm#2}, (forward<unsigned char const&>)({parm#3}))) std::allocator_traits<google_breakpad::PageStdAllocator<unsigned char> >::construct<unsigned char, unsigned char const&>(google_breakpad::PageStdAllocator<unsigned char>&, unsigned char*, unsigned char const&)
PUBLIC 1ffec 0 decltype (({parm#1}.max_size)()) std::allocator_traits<google_breakpad::PageStdAllocator<char> >::_S_max_size<google_breakpad::PageStdAllocator<char> const>(google_breakpad::PageStdAllocator<char> const&, int)
PUBLIC 20009 0 bool std::operator!=<char*>(std::move_iterator<char*> const&, std::move_iterator<char*> const&)
PUBLIC 20032 0 std::move_iterator<char*>::operator++()
PUBLIC 20052 0 std::move_iterator<char*>::operator*() const
PUBLIC 20063 0 decltype (_S_construct({parm#1}, {parm#2}, (forward<char>)({parm#3}))) std::allocator_traits<google_breakpad::PageStdAllocator<char> >::construct<char, char>(google_breakpad::PageStdAllocator<char>&, char*, char&&)
PUBLIC 2009c 0 google_breakpad::PageStdAllocator<char>::deallocate(char*, unsigned long)
PUBLIC 200b0 0 void __gnu_cxx::new_allocator<char>::destroy<char>(char*)
PUBLIC 200bf 0 std::enable_if<std::__and_<std::allocator_traits<google_breakpad::PageStdAllocator<char> >::__construct_helper<char>::type>::value, void>::type std::allocator_traits<google_breakpad::PageStdAllocator<char> >::_S_construct<char>(google_breakpad::PageStdAllocator<char>&, char*)
PUBLIC 200e6 0 google_breakpad::PageStdAllocator<char>::allocate(unsigned long, void const*)
PUBLIC 20132 0 __gnu_cxx::new_allocator<MDMemoryDescriptor>::new_allocator(__gnu_cxx::new_allocator<MDMemoryDescriptor> const&)
PUBLIC 20142 0 __gnu_cxx::new_allocator<MDMemoryDescriptor>::max_size() const
PUBLIC 20156 0 bool std::operator==<MDMemoryDescriptor*>(std::move_iterator<MDMemoryDescriptor*> const&, std::move_iterator<MDMemoryDescriptor*> const&)
PUBLIC 2018f 0 std::enable_if<std::__and_<std::allocator_traits<google_breakpad::PageStdAllocator<MDMemoryDescriptor> >::__construct_helper<MDMemoryDescriptor, MDMemoryDescriptor>::type>::value, void>::type std::allocator_traits<google_breakpad::PageStdAllocator<MDMemoryDescriptor> >::_S_construct<MDMemoryDescriptor, MDMemoryDescriptor>(google_breakpad::PageStdAllocator<MDMemoryDescriptor>&, MDMemoryDescriptor*, MDMemoryDescriptor&&)
PUBLIC 201c8 0 __gnu_cxx::new_allocator<unsigned char>::max_size() const
PUBLIC 201da 0 google_breakpad::PageStdAllocator<unsigned char>::allocate(unsigned long, void const*)
PUBLIC 20226 0 bool std::operator==<unsigned char*>(std::move_iterator<unsigned char*> const&, std::move_iterator<unsigned char*> const&)
PUBLIC 2025f 0 std::enable_if<std::__and_<std::allocator_traits<google_breakpad::PageStdAllocator<unsigned char> >::__construct_helper<unsigned char, unsigned char>::type>::value, void>::type std::allocator_traits<google_breakpad::PageStdAllocator<unsigned char> >::_S_construct<unsigned char, unsigned char>(google_breakpad::PageStdAllocator<unsigned char>&, unsigned char*, unsigned char&&)
PUBLIC 20298 0 unsigned char* std::__niter_base<unsigned char*>(unsigned char*)
PUBLIC 202a6 0 unsigned char* std::__copy_move_backward_a<true, unsigned char*, unsigned char*>(unsigned char*, unsigned char*, unsigned char*)
PUBLIC 202d7 0 unsigned char const* std::__niter_base<unsigned char const*>(unsigned char const*)
PUBLIC 202e5 0 unsigned char* std::__niter_base<unsigned char*, std::vector<unsigned char, google_breakpad::PageStdAllocator<unsigned char> > >(__gnu_cxx::__normal_iterator<unsigned char*, std::vector<unsigned char, google_breakpad::PageStdAllocator<unsigned char> > >)
PUBLIC 20302 0 unsigned char* std::__copy_move_a<false, unsigned char const*, unsigned char*>(unsigned char const*, unsigned char const*, unsigned char*)
PUBLIC 20333 0 std::enable_if<std::__and_<std::allocator_traits<google_breakpad::PageStdAllocator<unsigned char> >::__construct_helper<unsigned char, unsigned char const&>::type>::value, void>::type std::allocator_traits<google_breakpad::PageStdAllocator<unsigned char> >::_S_construct<unsigned char, unsigned char const&>(google_breakpad::PageStdAllocator<unsigned char>&, unsigned char*, unsigned char const&)
PUBLIC 2036c 0 __gnu_cxx::new_allocator<char>::max_size() const
PUBLIC 2037d 0 bool std::operator==<char*>(std::move_iterator<char*> const&, std::move_iterator<char*> const&)
PUBLIC 203b6 0 std::enable_if<std::__and_<std::allocator_traits<google_breakpad::PageStdAllocator<char> >::__construct_helper<char, char>::type>::value, void>::type std::allocator_traits<google_breakpad::PageStdAllocator<char> >::_S_construct<char, char>(google_breakpad::PageStdAllocator<char>&, char*, char&&)
PUBLIC 203f0 0 void __gnu_cxx::new_allocator<char>::construct<char>(char*)
PUBLIC 2041c 0 std::move_iterator<MDMemoryDescriptor*>::base() const
PUBLIC 2042e 0 void __gnu_cxx::new_allocator<MDMemoryDescriptor>::construct<MDMemoryDescriptor, MDMemoryDescriptor>(MDMemoryDescriptor*, MDMemoryDescriptor&&)
PUBLIC 20482 0 std::move_iterator<unsigned char*>::base() const
PUBLIC 20494 0 void __gnu_cxx::new_allocator<unsigned char>::construct<unsigned char, unsigned char>(unsigned char*, unsigned char&&)
PUBLIC 204d8 0 unsigned char* std::__copy_move_backward<true, true, std::random_access_iterator_tag>::__copy_move_b<unsigned char>(unsigned char const*, unsigned char const*, unsigned char*)
PUBLIC 2053c 0 unsigned char* std::__copy_move<false, true, std::random_access_iterator_tag>::__copy_m<unsigned char>(unsigned char const*, unsigned char const*, unsigned char*)
PUBLIC 2058e 0 void __gnu_cxx::new_allocator<unsigned char>::construct<unsigned char, unsigned char const&>(unsigned char*, unsigned char const&)
PUBLIC 205d2 0 std::move_iterator<char*>::base() const
PUBLIC 205e4 0 void __gnu_cxx::new_allocator<char>::construct<char, char>(char*, char&&)
PUBLIC 20628 0 google_breakpad::LinuxPtraceDumper::~LinuxPtraceDumper()
PUBLIC 20656 0 google_breakpad::LinuxPtraceDumper::~LinuxPtraceDumper()
PUBLIC 20682 0 sys_close
PUBLIC 206cb 0 sys_getpid
PUBLIC 20708 0 sys_munmap
PUBLIC 2075b 0 sys_open
PUBLIC 207b5 0 sys_read
PUBLIC 2080e 0 sys_stat
PUBLIC 20864 0 sys_mmap
PUBLIC 208f2 0 IsMappedFileOpenUnsafe(google_breakpad::MappingInfo const&)
PUBLIC 20921 0 google_breakpad::(anonymous namespace)::MappingContainsAddress(google_breakpad::MappingInfo const&, unsigned long)
PUBLIC 20958 0 google_breakpad::LinuxDumper::LinuxDumper(int, char const*)
PUBLIC 20afa 0 google_breakpad::LinuxDumper::~LinuxDumper()
PUBLIC 20b60 0 google_breakpad::LinuxDumper::~LinuxDumper()
PUBLIC 20b8c 0 google_breakpad::LinuxDumper::Init()
PUBLIC 20bec 0 google_breakpad::LinuxDumper::LateInit()
PUBLIC 20bfc 0 google_breakpad::LinuxDumper::ElfFileIdentifierForMapping(google_breakpad::MappingInfo const&, bool, unsigned int, google_breakpad::wasteful_vector<unsigned char>&)
PUBLIC 20ede 0 google_breakpad::LinuxDumper::SetCrashInfoFromSigInfo(siginfo_t const&)
PUBLIC 20f34 0 google_breakpad::LinuxDumper::GetCrashSignalString() const
PUBLIC 211dc 0 google_breakpad::LinuxDumper::GetMappingAbsolutePath(google_breakpad::MappingInfo const&, char*) const
PUBLIC 21246 0 google_breakpad::(anonymous namespace)::ElfFileSoNameFromMappedFile(void const*, char*, unsigned long)
PUBLIC 213b5 0 google_breakpad::(anonymous namespace)::ElfFileSoName(google_breakpad::LinuxDumper const&, google_breakpad::MappingInfo const&, char*, unsigned long)
PUBLIC 214f6 0 google_breakpad::LinuxDumper::GetMappingEffectiveNameAndPath(google_breakpad::MappingInfo const&, char*, unsigned long, char*, unsigned long)
PUBLIC 2161a 0 google_breakpad::LinuxDumper::ReadAuxv()
PUBLIC 2172a 0 google_breakpad::LinuxDumper::EnumerateMappings()
PUBLIC 21ce0 0 google_breakpad::LinuxDumper::GetStackInfo(void const**, unsigned long*, unsigned long)
PUBLIC 21d8a 0 google_breakpad::LinuxDumper::SanitizeStackCopy(unsigned char*, unsigned long, unsigned long, unsigned long)
PUBLIC 22132 0 google_breakpad::LinuxDumper::StackHasPointerToMapping(unsigned char const*, unsigned long, unsigned long, google_breakpad::MappingInfo const&)
PUBLIC 221ca 0 google_breakpad::LinuxDumper::FindMapping(void const*) const
PUBLIC 222b0 0 google_breakpad::LinuxDumper::FindMappingNoBias(unsigned long) const
PUBLIC 22378 0 google_breakpad::LinuxDumper::HandleDeletedFileInMapping(char*) const
PUBLIC 225aa 0 google_breakpad::LinuxDumper::set_crash_signal_code(int)
PUBLIC 225c2 0 google_breakpad::MemoryRange::data() const
PUBLIC 225d4 0 google_breakpad::MemoryRange::length() const
PUBLIC 225e6 0 google_breakpad::MemoryMappedFile::data() const
PUBLIC 22600 0 google_breakpad::MemoryMappedFile::size() const
PUBLIC 2261a 0 google_breakpad::wasteful_vector<int>::~wasteful_vector()
PUBLIC 22636 0 google_breakpad::wasteful_vector<google_breakpad::MappingInfo*>::~wasteful_vector()
PUBLIC 22652 0 google_breakpad::wasteful_vector<unsigned long>::~wasteful_vector()
PUBLIC 2266e 0 google_breakpad::PageStdAllocator<int>::~PageStdAllocator()
PUBLIC 2268a 0 google_breakpad::wasteful_vector<int>::wasteful_vector(google_breakpad::PageAllocator*, unsigned int)
PUBLIC 22706 0 std::vector<int, google_breakpad::PageStdAllocator<int> >::~vector()
PUBLIC 2274c 0 google_breakpad::PageStdAllocator<google_breakpad::MappingInfo*>::~PageStdAllocator()
PUBLIC 22768 0 google_breakpad::wasteful_vector<google_breakpad::MappingInfo*>::wasteful_vector(google_breakpad::PageAllocator*, unsigned int)
PUBLIC 227e4 0 std::vector<google_breakpad::MappingInfo*, google_breakpad::PageStdAllocator<google_breakpad::MappingInfo*> >::~vector()
PUBLIC 2282a 0 google_breakpad::PageStdAllocator<unsigned long>::~PageStdAllocator()
PUBLIC 22846 0 google_breakpad::wasteful_vector<unsigned long>::wasteful_vector(google_breakpad::PageAllocator*, unsigned int)
PUBLIC 228c2 0 std::vector<unsigned long, google_breakpad::PageStdAllocator<unsigned long> >::~vector()
PUBLIC 22908 0 std::vector<unsigned long, google_breakpad::PageStdAllocator<unsigned long> >::resize(unsigned long)
PUBLIC 22996 0 std::vector<google_breakpad::MappingInfo*, google_breakpad::PageStdAllocator<google_breakpad::MappingInfo*> >::operator[](unsigned long)
PUBLIC 229b8 0 std::vector<unsigned long, google_breakpad::PageStdAllocator<unsigned long> >::operator[](unsigned long)
PUBLIC 229da 0 std::vector<google_breakpad::MappingInfo*, google_breakpad::PageStdAllocator<google_breakpad::MappingInfo*> >::empty() const
PUBLIC 22a1c 0 std::vector<google_breakpad::MappingInfo*, google_breakpad::PageStdAllocator<google_breakpad::MappingInfo*> >::back()
PUBLIC 22a5b 0 google_breakpad::MappingInfo* const& std::forward<google_breakpad::MappingInfo* const&>(std::remove_reference<google_breakpad::MappingInfo* const&>::type&)
PUBLIC 22a6a 0 std::vector<google_breakpad::MappingInfo*, google_breakpad::PageStdAllocator<google_breakpad::MappingInfo*> >::push_back(google_breakpad::MappingInfo* const&)
PUBLIC 22ad6 0 bool google_breakpad::SafeReadLink<255ul>(char const*, char (&) [255ul])
PUBLIC 22b00 0 google_breakpad::PageStdAllocator<int>::PageStdAllocator(google_breakpad::PageAllocator&)
PUBLIC 22b42 0 std::allocator<int>::~allocator()
PUBLIC 22b5e 0 std::vector<int, google_breakpad::PageStdAllocator<int> >::vector(google_breakpad::PageStdAllocator<int> const&)
PUBLIC 22b84 0 std::vector<int, google_breakpad::PageStdAllocator<int> >::reserve(unsigned long)
PUBLIC 22ccc 0 std::_Vector_base<int, google_breakpad::PageStdAllocator<int> >::_Vector_impl::~_Vector_impl()
PUBLIC 22ce8 0 std::_Vector_base<int, google_breakpad::PageStdAllocator<int> >::~_Vector_base()
PUBLIC 22d3a 0 std::_Vector_base<int, google_breakpad::PageStdAllocator<int> >::_M_get_Tp_allocator()
PUBLIC 22d48 0 void std::_Destroy<int*, google_breakpad::PageStdAllocator<int> >(int*, int*, google_breakpad::PageStdAllocator<int>&)
PUBLIC 22d8e 0 google_breakpad::PageStdAllocator<google_breakpad::MappingInfo*>::PageStdAllocator(google_breakpad::PageAllocator&)
PUBLIC 22dd0 0 std::allocator<google_breakpad::MappingInfo*>::~allocator()
PUBLIC 22dec 0 std::vector<google_breakpad::MappingInfo*, google_breakpad::PageStdAllocator<google_breakpad::MappingInfo*> >::vector(google_breakpad::PageStdAllocator<google_breakpad::MappingInfo*> const&)
PUBLIC 22e12 0 std::vector<google_breakpad::MappingInfo*, google_breakpad::PageStdAllocator<google_breakpad::MappingInfo*> >::reserve(unsigned long)
PUBLIC 22f5a 0 std::_Vector_base<google_breakpad::MappingInfo*, google_breakpad::PageStdAllocator<google_breakpad::MappingInfo*> >::_Vector_impl::~_Vector_impl()
PUBLIC 22f76 0 std::_Vector_base<google_breakpad::MappingInfo*, google_breakpad::PageStdAllocator<google_breakpad::MappingInfo*> >::~_Vector_base()
PUBLIC 22fc8 0 std::_Vector_base<google_breakpad::MappingInfo*, google_breakpad::PageStdAllocator<google_breakpad::MappingInfo*> >::_M_get_Tp_allocator()
PUBLIC 22fd6 0 void std::_Destroy<google_breakpad::MappingInfo**, google_breakpad::PageStdAllocator<google_breakpad::MappingInfo*> >(google_breakpad::MappingInfo**, google_breakpad::MappingInfo**, google_breakpad::PageStdAllocator<google_breakpad::MappingInfo*>&)
PUBLIC 2301c 0 google_breakpad::PageStdAllocator<unsigned long>::PageStdAllocator(google_breakpad::PageAllocator&)
PUBLIC 2305e 0 std::allocator<unsigned long>::~allocator()
PUBLIC 2307a 0 std::vector<unsigned long, google_breakpad::PageStdAllocator<unsigned long> >::vector(google_breakpad::PageStdAllocator<unsigned long> const&)
PUBLIC 230a0 0 std::vector<unsigned long, google_breakpad::PageStdAllocator<unsigned long> >::reserve(unsigned long)
PUBLIC 231e8 0 std::_Vector_base<unsigned long, google_breakpad::PageStdAllocator<unsigned long> >::_Vector_impl::~_Vector_impl()
PUBLIC 23204 0 std::_Vector_base<unsigned long, google_breakpad::PageStdAllocator<unsigned long> >::~_Vector_base()
PUBLIC 23256 0 std::_Vector_base<unsigned long, google_breakpad::PageStdAllocator<unsigned long> >::_M_get_Tp_allocator()
PUBLIC 23264 0 void std::_Destroy<unsigned long*, google_breakpad::PageStdAllocator<unsigned long> >(unsigned long*, unsigned long*, google_breakpad::PageStdAllocator<unsigned long>&)
PUBLIC 232aa 0 std::vector<unsigned long, google_breakpad::PageStdAllocator<unsigned long> >::size() const
PUBLIC 232d2 0 std::vector<unsigned long, google_breakpad::PageStdAllocator<unsigned long> >::_M_default_append(unsigned long)
PUBLIC 234e0 0 std::vector<unsigned long, google_breakpad::PageStdAllocator<unsigned long> >::_M_erase_at_end(unsigned long*)
PUBLIC 23526 0 std::vector<google_breakpad::MappingInfo*, google_breakpad::PageStdAllocator<google_breakpad::MappingInfo*> >::begin() const
PUBLIC 23558 0 std::vector<google_breakpad::MappingInfo*, google_breakpad::PageStdAllocator<google_breakpad::MappingInfo*> >::end() const
PUBLIC 23589 0 bool __gnu_cxx::operator==<google_breakpad::MappingInfo* const*, std::vector<google_breakpad::MappingInfo*, google_breakpad::PageStdAllocator<google_breakpad::MappingInfo*> > >(__gnu_cxx::__normal_iterator<google_breakpad::MappingInfo* const*, std::vector<google_breakpad::MappingInfo*, google_breakpad::PageStdAllocator<google_breakpad::MappingInfo*> > > const&, __gnu_cxx::__normal_iterator<google_breakpad::MappingInfo* const*, std::vector<google_breakpad::MappingInfo*, google_breakpad::PageStdAllocator<google_breakpad::MappingInfo*> > > const&)
PUBLIC 235c6 0 std::vector<google_breakpad::MappingInfo*, google_breakpad::PageStdAllocator<google_breakpad::MappingInfo*> >::end()
PUBLIC 235f0 0 __gnu_cxx::__normal_iterator<google_breakpad::MappingInfo**, std::vector<google_breakpad::MappingInfo*, google_breakpad::PageStdAllocator<google_breakpad::MappingInfo*> > >::operator-(long) const
PUBLIC 23632 0 __gnu_cxx::__normal_iterator<google_breakpad::MappingInfo**, std::vector<google_breakpad::MappingInfo*, google_breakpad::PageStdAllocator<google_breakpad::MappingInfo*> > >::operator*() const
PUBLIC 23643 0 decltype (_S_construct({parm#1}, {parm#2}, (forward<google_breakpad::MappingInfo* const&>)({parm#3}))) std::allocator_traits<google_breakpad::PageStdAllocator<google_breakpad::MappingInfo*> >::construct<google_breakpad::MappingInfo*, google_breakpad::MappingInfo* const&>(google_breakpad::PageStdAllocator<google_breakpad::MappingInfo*>&, google_breakpad::MappingInfo**, google_breakpad::MappingInfo* const&)
PUBLIC 2367c 0 void std::vector<google_breakpad::MappingInfo*, google_breakpad::PageStdAllocator<google_breakpad::MappingInfo*> >::_M_emplace_back_aux<google_breakpad::MappingInfo* const&>(google_breakpad::MappingInfo* const&)
PUBLIC 2386e 0 std::allocator<int>::allocator()
PUBLIC 2388a 0 __gnu_cxx::new_allocator<int>::~new_allocator()
PUBLIC 23896 0 std::_Vector_base<int, google_breakpad::PageStdAllocator<int> >::_Vector_base(google_breakpad::PageStdAllocator<int> const&)
PUBLIC 238bc 0 std::vector<int, google_breakpad::PageStdAllocator<int> >::max_size() const
PUBLIC 238de 0 std::vector<int, google_breakpad::PageStdAllocator<int> >::capacity() const
PUBLIC 23905 0 std::move_iterator<int*> std::__make_move_if_noexcept_iterator<int, std::move_iterator<int*> >(int*)
PUBLIC 2392a 0 int* std::vector<int, google_breakpad::PageStdAllocator<int> >::_M_allocate_and_copy<std::move_iterator<int*> >(unsigned long, std::move_iterator<int*>, std::move_iterator<int*>)
PUBLIC 239c2 0 std::_Vector_base<int, google_breakpad::PageStdAllocator<int> >::_M_deallocate(int*, unsigned long)
PUBLIC 239f7 0 int* std::__addressof<int>(int&)
PUBLIC 23a05 0 void std::allocator_traits<google_breakpad::PageStdAllocator<int> >::destroy<int>(google_breakpad::PageStdAllocator<int>&, int*)
PUBLIC 23a30 0 std::allocator<google_breakpad::MappingInfo*>::allocator()
PUBLIC 23a4c 0 __gnu_cxx::new_allocator<google_breakpad::MappingInfo*>::~new_allocator()
PUBLIC 23a58 0 std::_Vector_base<google_breakpad::MappingInfo*, google_breakpad::PageStdAllocator<google_breakpad::MappingInfo*> >::_Vector_base(google_breakpad::PageStdAllocator<google_breakpad::MappingInfo*> const&)
PUBLIC 23a7e 0 std::vector<google_breakpad::MappingInfo*, google_breakpad::PageStdAllocator<google_breakpad::MappingInfo*> >::max_size() const
PUBLIC 23aa0 0 std::vector<google_breakpad::MappingInfo*, google_breakpad::PageStdAllocator<google_breakpad::MappingInfo*> >::capacity() const
PUBLIC 23ac7 0 std::move_iterator<google_breakpad::MappingInfo**> std::__make_move_if_noexcept_iterator<google_breakpad::MappingInfo*, std::move_iterator<google_breakpad::MappingInfo**> >(google_breakpad::MappingInfo**)
PUBLIC 23aec 0 google_breakpad::MappingInfo** std::vector<google_breakpad::MappingInfo*, google_breakpad::PageStdAllocator<google_breakpad::MappingInfo*> >::_M_allocate_and_copy<std::move_iterator<google_breakpad::MappingInfo**> >(unsigned long, std::move_iterator<google_breakpad::MappingInfo**>, std::move_iterator<google_breakpad::MappingInfo**>)
PUBLIC 23b84 0 std::_Vector_base<google_breakpad::MappingInfo*, google_breakpad::PageStdAllocator<google_breakpad::MappingInfo*> >::_M_deallocate(google_breakpad::MappingInfo**, unsigned long)
PUBLIC 23bb9 0 google_breakpad::MappingInfo** std::__addressof<google_breakpad::MappingInfo*>(google_breakpad::MappingInfo*&)
PUBLIC 23bc7 0 void std::allocator_traits<google_breakpad::PageStdAllocator<google_breakpad::MappingInfo*> >::destroy<google_breakpad::MappingInfo*>(google_breakpad::PageStdAllocator<google_breakpad::MappingInfo*>&, google_breakpad::MappingInfo**)
PUBLIC 23bf2 0 std::allocator<unsigned long>::allocator()
PUBLIC 23c0e 0 __gnu_cxx::new_allocator<unsigned long>::~new_allocator()
PUBLIC 23c1a 0 std::_Vector_base<unsigned long, google_breakpad::PageStdAllocator<unsigned long> >::_Vector_base(google_breakpad::PageStdAllocator<unsigned long> const&)
PUBLIC 23c40 0 std::vector<unsigned long, google_breakpad::PageStdAllocator<unsigned long> >::max_size() const
PUBLIC 23c62 0 std::vector<unsigned long, google_breakpad::PageStdAllocator<unsigned long> >::capacity() const
PUBLIC 23c89 0 std::move_iterator<unsigned long*> std::__make_move_if_noexcept_iterator<unsigned long, std::move_iterator<unsigned long*> >(unsigned long*)
PUBLIC 23cae 0 unsigned long* std::vector<unsigned long, google_breakpad::PageStdAllocator<unsigned long> >::_M_allocate_and_copy<std::move_iterator<unsigned long*> >(unsigned long, std::move_iterator<unsigned long*>, std::move_iterator<unsigned long*>)
PUBLIC 23d46 0 std::_Vector_base<unsigned long, google_breakpad::PageStdAllocator<unsigned long> >::_M_deallocate(unsigned long*, unsigned long)
PUBLIC 23d7b 0 unsigned long* std::__addressof<unsigned long>(unsigned long&)
PUBLIC 23d89 0 void std::allocator_traits<google_breakpad::PageStdAllocator<unsigned long> >::destroy<unsigned long>(google_breakpad::PageStdAllocator<unsigned long>&, unsigned long*)
PUBLIC 23db4 0 unsigned long* std::__uninitialized_default_n_a<unsigned long*, unsigned long, google_breakpad::PageStdAllocator<unsigned long> >(unsigned long*, unsigned long, google_breakpad::PageStdAllocator<unsigned long>&)
PUBLIC 23e46 0 std::vector<unsigned long, google_breakpad::PageStdAllocator<unsigned long> >::_M_check_len(unsigned long, char const*) const
PUBLIC 23f10 0 std::_Vector_base<unsigned long, google_breakpad::PageStdAllocator<unsigned long> >::_M_allocate(unsigned long)
PUBLIC 23f43 0 unsigned long* std::__uninitialized_move_if_noexcept_a<unsigned long*, unsigned long*, google_breakpad::PageStdAllocator<unsigned long> >(unsigned long*, unsigned long*, unsigned long*, google_breakpad::PageStdAllocator<unsigned long>&)
PUBLIC 23f98 0 __gnu_cxx::__normal_iterator<google_breakpad::MappingInfo* const*, std::vector<google_breakpad::MappingInfo*, google_breakpad::PageStdAllocator<google_breakpad::MappingInfo*> > >::__normal_iterator(google_breakpad::MappingInfo* const* const&)
PUBLIC 23fb6 0 __gnu_cxx::__normal_iterator<google_breakpad::MappingInfo* const*, std::vector<google_breakpad::MappingInfo*, google_breakpad::PageStdAllocator<google_breakpad::MappingInfo*> > >::base() const
PUBLIC 23fc4 0 __gnu_cxx::__normal_iterator<google_breakpad::MappingInfo**, std::vector<google_breakpad::MappingInfo*, google_breakpad::PageStdAllocator<google_breakpad::MappingInfo*> > >::__normal_iterator(google_breakpad::MappingInfo** const&)
PUBLIC 23fe1 0 std::enable_if<std::__and_<std::allocator_traits<google_breakpad::PageStdAllocator<google_breakpad::MappingInfo*> >::__construct_helper<google_breakpad::MappingInfo*, google_breakpad::MappingInfo* const&>::type>::value, void>::type std::allocator_traits<google_breakpad::PageStdAllocator<google_breakpad::MappingInfo*> >::_S_construct<google_breakpad::MappingInfo*, google_breakpad::MappingInfo* const&>(google_breakpad::PageStdAllocator<google_breakpad::MappingInfo*>&, google_breakpad::MappingInfo**, google_breakpad::MappingInfo* const&)
PUBLIC 2401a 0 std::vector<google_breakpad::MappingInfo*, google_breakpad::PageStdAllocator<google_breakpad::MappingInfo*> >::_M_check_len(unsigned long, char const*) const
PUBLIC 240e4 0 std::_Vector_base<google_breakpad::MappingInfo*, google_breakpad::PageStdAllocator<google_breakpad::MappingInfo*> >::_M_allocate(unsigned long)
PUBLIC 24117 0 google_breakpad::MappingInfo** std::__uninitialized_move_if_noexcept_a<google_breakpad::MappingInfo**, google_breakpad::MappingInfo**, google_breakpad::PageStdAllocator<google_breakpad::MappingInfo*> >(google_breakpad::MappingInfo**, google_breakpad::MappingInfo**, google_breakpad::MappingInfo**, google_breakpad::PageStdAllocator<google_breakpad::MappingInfo*>&)
PUBLIC 2416c 0 __gnu_cxx::new_allocator<int>::new_allocator()
PUBLIC 24178 0 google_breakpad::PageStdAllocator<int>::PageStdAllocator(google_breakpad::PageStdAllocator<int> const&)
PUBLIC 241cc 0 std::_Vector_base<int, google_breakpad::PageStdAllocator<int> >::_Vector_impl::_Vector_impl(google_breakpad::PageStdAllocator<int> const&)
PUBLIC 24216 0 std::allocator_traits<google_breakpad::PageStdAllocator<int> >::max_size(google_breakpad::PageStdAllocator<int> const&)
PUBLIC 24236 0 std::_Vector_base<int, google_breakpad::PageStdAllocator<int> >::_M_get_Tp_allocator() const
PUBLIC 24244 0 std::move_iterator<int*>::move_iterator(int*)
PUBLIC 2425e 0 std::_Vector_base<int, google_breakpad::PageStdAllocator<int> >::_M_allocate(unsigned long)
PUBLIC 24291 0 int&& std::forward<int>(std::remove_reference<int>::type&)
PUBLIC 2429f 0 int* std::__uninitialized_copy_a<std::move_iterator<int*>, int*, google_breakpad::PageStdAllocator<int> >(std::move_iterator<int*>, std::move_iterator<int*>, int*, google_breakpad::PageStdAllocator<int>&)
PUBLIC 2435e 0 std::allocator_traits<google_breakpad::PageStdAllocator<int> >::deallocate(google_breakpad::PageStdAllocator<int>&, int*, unsigned long)
PUBLIC 2438c 0 decltype (({parm#1}.destroy)({parm#2})) std::allocator_traits<google_breakpad::PageStdAllocator<int> >::_S_destroy<google_breakpad::PageStdAllocator<int>, int>(google_breakpad::PageStdAllocator<int>&, int*, int)
PUBLIC 243b6 0 __gnu_cxx::new_allocator<google_breakpad::MappingInfo*>::new_allocator()
PUBLIC 243c2 0 google_breakpad::PageStdAllocator<google_breakpad::MappingInfo*>::PageStdAllocator(google_breakpad::PageStdAllocator<google_breakpad::MappingInfo*> const&)
PUBLIC 24416 0 std::_Vector_base<google_breakpad::MappingInfo*, google_breakpad::PageStdAllocator<google_breakpad::MappingInfo*> >::_Vector_impl::_Vector_impl(google_breakpad::PageStdAllocator<google_breakpad::MappingInfo*> const&)
PUBLIC 24460 0 std::allocator_traits<google_breakpad::PageStdAllocator<google_breakpad::MappingInfo*> >::max_size(google_breakpad::PageStdAllocator<google_breakpad::MappingInfo*> const&)
PUBLIC 24480 0 std::_Vector_base<google_breakpad::MappingInfo*, google_breakpad::PageStdAllocator<google_breakpad::MappingInfo*> >::_M_get_Tp_allocator() const
PUBLIC 2448e 0 std::move_iterator<google_breakpad::MappingInfo**>::move_iterator(google_breakpad::MappingInfo**)
PUBLIC 244a8 0 google_breakpad::MappingInfo*&& std::forward<google_breakpad::MappingInfo*>(std::remove_reference<google_breakpad::MappingInfo*>::type&)
PUBLIC 244b6 0 google_breakpad::MappingInfo** std::__uninitialized_copy_a<std::move_iterator<google_breakpad::MappingInfo**>, google_breakpad::MappingInfo**, google_breakpad::PageStdAllocator<google_breakpad::MappingInfo*> >(std::move_iterator<google_breakpad::MappingInfo**>, std::move_iterator<google_breakpad::MappingInfo**>, google_breakpad::MappingInfo**, google_breakpad::PageStdAllocator<google_breakpad::MappingInfo*>&)
PUBLIC 24575 0 std::allocator_traits<google_breakpad::PageStdAllocator<google_breakpad::MappingInfo*> >::deallocate(google_breakpad::PageStdAllocator<google_breakpad::MappingInfo*>&, google_breakpad::MappingInfo**, unsigned long)
PUBLIC 245a3 0 decltype (({parm#1}.destroy)({parm#2})) std::allocator_traits<google_breakpad::PageStdAllocator<google_breakpad::MappingInfo*> >::_S_destroy<google_breakpad::PageStdAllocator<google_breakpad::MappingInfo*>, google_breakpad::MappingInfo*>(google_breakpad::PageStdAllocator<google_breakpad::MappingInfo*>&, google_breakpad::MappingInfo**, int)
PUBLIC 245cc 0 __gnu_cxx::new_allocator<unsigned long>::new_allocator()
PUBLIC 245d8 0 google_breakpad::PageStdAllocator<unsigned long>::PageStdAllocator(google_breakpad::PageStdAllocator<unsigned long> const&)
PUBLIC 2462c 0 std::_Vector_base<unsigned long, google_breakpad::PageStdAllocator<unsigned long> >::_Vector_impl::_Vector_impl(google_breakpad::PageStdAllocator<unsigned long> const&)
PUBLIC 24676 0 std::allocator_traits<google_breakpad::PageStdAllocator<unsigned long> >::max_size(google_breakpad::PageStdAllocator<unsigned long> const&)
PUBLIC 24696 0 std::_Vector_base<unsigned long, google_breakpad::PageStdAllocator<unsigned long> >::_M_get_Tp_allocator() const
PUBLIC 246a4 0 std::move_iterator<unsigned long*>::move_iterator(unsigned long*)
PUBLIC 246be 0 unsigned long&& std::forward<unsigned long>(std::remove_reference<unsigned long>::type&)
PUBLIC 246cc 0 unsigned long* std::__uninitialized_copy_a<std::move_iterator<unsigned long*>, unsigned long*, google_breakpad::PageStdAllocator<unsigned long> >(std::move_iterator<unsigned long*>, std::move_iterator<unsigned long*>, unsigned long*, google_breakpad::PageStdAllocator<unsigned long>&)
PUBLIC 2478b 0 std::allocator_traits<google_breakpad::PageStdAllocator<unsigned long> >::deallocate(google_breakpad::PageStdAllocator<unsigned long>&, unsigned long*, unsigned long)
PUBLIC 247b9 0 decltype (({parm#1}.destroy)({parm#2})) std::allocator_traits<google_breakpad::PageStdAllocator<unsigned long> >::_S_destroy<google_breakpad::PageStdAllocator<unsigned long>, unsigned long>(google_breakpad::PageStdAllocator<unsigned long>&, unsigned long*, int)
PUBLIC 247e2 0 decltype (_S_construct({parm#1}, {parm#2})) std::allocator_traits<google_breakpad::PageStdAllocator<unsigned long> >::construct<unsigned long>(google_breakpad::PageStdAllocator<unsigned long>&, unsigned long*)
PUBLIC 24808 0 std::allocator_traits<google_breakpad::PageStdAllocator<unsigned long> >::allocate(google_breakpad::PageStdAllocator<unsigned long>&, unsigned long)
PUBLIC 24832 0 void __gnu_cxx::new_allocator<google_breakpad::MappingInfo*>::construct<google_breakpad::MappingInfo*, google_breakpad::MappingInfo* const&>(google_breakpad::MappingInfo**, google_breakpad::MappingInfo* const&)
PUBLIC 24877 0 std::allocator_traits<google_breakpad::PageStdAllocator<google_breakpad::MappingInfo*> >::allocate(google_breakpad::PageStdAllocator<google_breakpad::MappingInfo*>&, unsigned long)
PUBLIC 248a2 0 std::allocator<int>::allocator(std::allocator<int> const&)
PUBLIC 248c8 0 decltype (({parm#1}.max_size)()) std::allocator_traits<google_breakpad::PageStdAllocator<int> >::_S_max_size<google_breakpad::PageStdAllocator<int> const>(google_breakpad::PageStdAllocator<int> const&, int)
PUBLIC 248e5 0 std::allocator_traits<google_breakpad::PageStdAllocator<int> >::allocate(google_breakpad::PageStdAllocator<int>&, unsigned long)
PUBLIC 2490f 0 bool std::operator!=<int*>(std::move_iterator<int*> const&, std::move_iterator<int*> const&)
PUBLIC 24938 0 std::move_iterator<int*>::operator++()
PUBLIC 24958 0 std::move_iterator<int*>::operator*() const
PUBLIC 24969 0 decltype (_S_construct({parm#1}, {parm#2}, (forward<int>)({parm#3}))) std::allocator_traits<google_breakpad::PageStdAllocator<int> >::construct<int, int>(google_breakpad::PageStdAllocator<int>&, int*, int&&)
PUBLIC 249a2 0 google_breakpad::PageStdAllocator<int>::deallocate(int*, unsigned long)
PUBLIC 249b6 0 void __gnu_cxx::new_allocator<int>::destroy<int>(int*)
PUBLIC 249c6 0 std::allocator<google_breakpad::MappingInfo*>::allocator(std::allocator<google_breakpad::MappingInfo*> const&)
PUBLIC 249ec 0 decltype (({parm#1}.max_size)()) std::allocator_traits<google_breakpad::PageStdAllocator<google_breakpad::MappingInfo*> >::_S_max_size<google_breakpad::PageStdAllocator<google_breakpad::MappingInfo*> const>(google_breakpad::PageStdAllocator<google_breakpad::MappingInfo*> const&, int)
PUBLIC 24a09 0 bool std::operator!=<google_breakpad::MappingInfo**>(std::move_iterator<google_breakpad::MappingInfo**> const&, std::move_iterator<google_breakpad::MappingInfo**> const&)
PUBLIC 24a32 0 std::move_iterator<google_breakpad::MappingInfo**>::operator++()
PUBLIC 24a52 0 std::move_iterator<google_breakpad::MappingInfo**>::operator*() const
PUBLIC 24a63 0 decltype (_S_construct({parm#1}, {parm#2}, (forward<google_breakpad::MappingInfo*>)({parm#3}))) std::allocator_traits<google_breakpad::PageStdAllocator<google_breakpad::MappingInfo*> >::construct<google_breakpad::MappingInfo*, google_breakpad::MappingInfo*>(google_breakpad::PageStdAllocator<google_breakpad::MappingInfo*>&, google_breakpad::MappingInfo**, google_breakpad::MappingInfo*&&)
PUBLIC 24a9c 0 google_breakpad::PageStdAllocator<google_breakpad::MappingInfo*>::deallocate(google_breakpad::MappingInfo**, unsigned long)
PUBLIC 24ab0 0 void __gnu_cxx::new_allocator<google_breakpad::MappingInfo*>::destroy<google_breakpad::MappingInfo*>(google_breakpad::MappingInfo**)
PUBLIC 24ac0 0 std::allocator<unsigned long>::allocator(std::allocator<unsigned long> const&)
PUBLIC 24ae6 0 decltype (({parm#1}.max_size)()) std::allocator_traits<google_breakpad::PageStdAllocator<unsigned long> >::_S_max_size<google_breakpad::PageStdAllocator<unsigned long> const>(google_breakpad::PageStdAllocator<unsigned long> const&, int)
PUBLIC 24b03 0 bool std::operator!=<unsigned long*>(std::move_iterator<unsigned long*> const&, std::move_iterator<unsigned long*> const&)
PUBLIC 24b2c 0 std::move_iterator<unsigned long*>::operator++()
PUBLIC 24b4c 0 std::move_iterator<unsigned long*>::operator*() const
PUBLIC 24b5d 0 decltype (_S_construct({parm#1}, {parm#2}, (forward<unsigned long>)({parm#3}))) std::allocator_traits<google_breakpad::PageStdAllocator<unsigned long> >::construct<unsigned long, unsigned long>(google_breakpad::PageStdAllocator<unsigned long>&, unsigned long*, unsigned long&&)
PUBLIC 24b96 0 google_breakpad::PageStdAllocator<unsigned long>::deallocate(unsigned long*, unsigned long)
PUBLIC 24baa 0 void __gnu_cxx::new_allocator<unsigned long>::destroy<unsigned long>(unsigned long*)
PUBLIC 24bb9 0 std::enable_if<std::__and_<std::allocator_traits<google_breakpad::PageStdAllocator<unsigned long> >::__construct_helper<unsigned long>::type>::value, void>::type std::allocator_traits<google_breakpad::PageStdAllocator<unsigned long> >::_S_construct<unsigned long>(google_breakpad::PageStdAllocator<unsigned long>&, unsigned long*)
PUBLIC 24be0 0 google_breakpad::PageStdAllocator<unsigned long>::allocate(unsigned long, void const*)
PUBLIC 24c30 0 google_breakpad::PageStdAllocator<google_breakpad::MappingInfo*>::allocate(unsigned long, void const*)
PUBLIC 24c80 0 __gnu_cxx::new_allocator<int>::new_allocator(__gnu_cxx::new_allocator<int> const&)
PUBLIC 24c90 0 __gnu_cxx::new_allocator<int>::max_size() const
PUBLIC 24ca4 0 google_breakpad::PageStdAllocator<int>::allocate(unsigned long, void const*)
PUBLIC 24cf4 0 bool std::operator==<int*>(std::move_iterator<int*> const&, std::move_iterator<int*> const&)
PUBLIC 24d2d 0 std::enable_if<std::__and_<std::allocator_traits<google_breakpad::PageStdAllocator<int> >::__construct_helper<int, int>::type>::value, void>::type std::allocator_traits<google_breakpad::PageStdAllocator<int> >::_S_construct<int, int>(google_breakpad::PageStdAllocator<int>&, int*, int&&)
PUBLIC 24d66 0 __gnu_cxx::new_allocator<google_breakpad::MappingInfo*>::new_allocator(__gnu_cxx::new_allocator<google_breakpad::MappingInfo*> const&)
PUBLIC 24d76 0 __gnu_cxx::new_allocator<google_breakpad::MappingInfo*>::max_size() const
PUBLIC 24d8a 0 bool std::operator==<google_breakpad::MappingInfo**>(std::move_iterator<google_breakpad::MappingInfo**> const&, std::move_iterator<google_breakpad::MappingInfo**> const&)
PUBLIC 24dc3 0 std::enable_if<std::__and_<std::allocator_traits<google_breakpad::PageStdAllocator<google_breakpad::MappingInfo*> >::__construct_helper<google_breakpad::MappingInfo*, google_breakpad::MappingInfo*>::type>::value, void>::type std::allocator_traits<google_breakpad::PageStdAllocator<google_breakpad::MappingInfo*> >::_S_construct<google_breakpad::MappingInfo*, google_breakpad::MappingInfo*>(google_breakpad::PageStdAllocator<google_breakpad::MappingInfo*>&, google_breakpad::MappingInfo**, google_breakpad::MappingInfo*&&)
PUBLIC 24dfc 0 __gnu_cxx::new_allocator<unsigned long>::new_allocator(__gnu_cxx::new_allocator<unsigned long> const&)
PUBLIC 24e0c 0 __gnu_cxx::new_allocator<unsigned long>::max_size() const
PUBLIC 24e20 0 bool std::operator==<unsigned long*>(std::move_iterator<unsigned long*> const&, std::move_iterator<unsigned long*> const&)
PUBLIC 24e59 0 std::enable_if<std::__and_<std::allocator_traits<google_breakpad::PageStdAllocator<unsigned long> >::__construct_helper<unsigned long, unsigned long>::type>::value, void>::type std::allocator_traits<google_breakpad::PageStdAllocator<unsigned long> >::_S_construct<unsigned long, unsigned long>(google_breakpad::PageStdAllocator<unsigned long>&, unsigned long*, unsigned long&&)
PUBLIC 24e92 0 void __gnu_cxx::new_allocator<unsigned long>::construct<unsigned long>(unsigned long*)
PUBLIC 24ec2 0 std::move_iterator<int*>::base() const
PUBLIC 24ed4 0 void __gnu_cxx::new_allocator<int>::construct<int, int>(int*, int&&)
PUBLIC 24f18 0 std::move_iterator<google_breakpad::MappingInfo**>::base() const
PUBLIC 24f2a 0 void __gnu_cxx::new_allocator<google_breakpad::MappingInfo*>::construct<google_breakpad::MappingInfo*, google_breakpad::MappingInfo*>(google_breakpad::MappingInfo**, google_breakpad::MappingInfo*&&)
PUBLIC 24f70 0 std::move_iterator<unsigned long*>::base() const
PUBLIC 24f82 0 void __gnu_cxx::new_allocator<unsigned long>::construct<unsigned long, unsigned long>(unsigned long*, unsigned long&&)
PUBLIC 24fc8 0 sys_close
PUBLIC 25011 0 sys_getdents
PUBLIC 2506b 0 sys_open
PUBLIC 250c5 0 sys_ptrace
PUBLIC 2512d 0 sys_read
PUBLIC 25186 0 sys_wait4
PUBLIC 251ee 0 sys_mmap
PUBLIC 2527c 0 sys_waitpid
PUBLIC 252a6 0 SuspendThread(int)
PUBLIC 253bf 0 ResumeThread(int)
PUBLIC 253ec 0 google_breakpad::LinuxPtraceDumper::LinuxPtraceDumper(int)
PUBLIC 25434 0 google_breakpad::LinuxPtraceDumper::BuildProcPath(char*, int, char const*) const
PUBLIC 2553a 0 google_breakpad::LinuxPtraceDumper::CopyFromProcess(void*, int, void const*, unsigned long)
PUBLIC 25604 0 google_breakpad::LinuxPtraceDumper::ReadRegisterSet(google_breakpad::ThreadInfo*, int)
PUBLIC 256ae 0 google_breakpad::LinuxPtraceDumper::ReadRegisters(google_breakpad::ThreadInfo*, int)
PUBLIC 25752 0 google_breakpad::LinuxPtraceDumper::GetThreadInfoByIndex(unsigned long, google_breakpad::ThreadInfo*)
PUBLIC 25a84 0 google_breakpad::LinuxPtraceDumper::IsPostMortem() const
PUBLIC 25a94 0 google_breakpad::LinuxPtraceDumper::ThreadsSuspend()
PUBLIC 25bec 0 google_breakpad::LinuxPtraceDumper::ThreadsResume()
PUBLIC 25c82 0 google_breakpad::LinuxPtraceDumper::EnumerateThreads()
PUBLIC 25e2c 0 google_breakpad::DirectoryReader::DirectoryReader(int)
PUBLIC 25e4e 0 google_breakpad::DirectoryReader::GetNextEntry(char const**)
PUBLIC 25f20 0 google_breakpad::DirectoryReader::PopEntry()
PUBLIC 25f9a 0 std::vector<int, google_breakpad::PageStdAllocator<int> >::operator[](unsigned long)
PUBLIC 25fbc 0 std::vector<int, google_breakpad::PageStdAllocator<int> >::resize(unsigned long)
PUBLIC 26049 0 int const& std::forward<int const&>(std::remove_reference<int const&>::type&)
PUBLIC 26058 0 std::vector<int, google_breakpad::PageStdAllocator<int> >::push_back(int const&)
PUBLIC 260c4 0 std::vector<int, google_breakpad::PageStdAllocator<int> >::_M_default_append(unsigned long)
PUBLIC 262d2 0 std::vector<int, google_breakpad::PageStdAllocator<int> >::_M_erase_at_end(int*)
PUBLIC 26317 0 decltype (_S_construct({parm#1}, {parm#2}, (forward<int const&>)({parm#3}))) std::allocator_traits<google_breakpad::PageStdAllocator<int> >::construct<int, int const&>(google_breakpad::PageStdAllocator<int>&, int*, int const&)
PUBLIC 26350 0 void std::vector<int, google_breakpad::PageStdAllocator<int> >::_M_emplace_back_aux<int const&>(int const&)
PUBLIC 26541 0 int* std::__uninitialized_default_n_a<int*, unsigned long, google_breakpad::PageStdAllocator<int> >(int*, unsigned long, google_breakpad::PageStdAllocator<int>&)
PUBLIC 265d4 0 std::vector<int, google_breakpad::PageStdAllocator<int> >::_M_check_len(unsigned long, char const*) const
PUBLIC 2669d 0 int* std::__uninitialized_move_if_noexcept_a<int*, int*, google_breakpad::PageStdAllocator<int> >(int*, int*, int*, google_breakpad::PageStdAllocator<int>&)
PUBLIC 266f1 0 std::enable_if<std::__and_<std::allocator_traits<google_breakpad::PageStdAllocator<int> >::__construct_helper<int, int const&>::type>::value, void>::type std::allocator_traits<google_breakpad::PageStdAllocator<int> >::_S_construct<int, int const&>(google_breakpad::PageStdAllocator<int>&, int*, int const&)
PUBLIC 2672a 0 decltype (_S_construct({parm#1}, {parm#2})) std::allocator_traits<google_breakpad::PageStdAllocator<int> >::construct<int>(google_breakpad::PageStdAllocator<int>&, int*)
PUBLIC 26750 0 void __gnu_cxx::new_allocator<int>::construct<int, int const&>(int*, int const&)
PUBLIC 26793 0 std::enable_if<std::__and_<std::allocator_traits<google_breakpad::PageStdAllocator<int> >::__construct_helper<int>::type>::value, void>::type std::allocator_traits<google_breakpad::PageStdAllocator<int> >::_S_construct<int>(google_breakpad::PageStdAllocator<int>&, int*)
PUBLIC 267ba 0 void __gnu_cxx::new_allocator<int>::construct<int>(int*)
PUBLIC 267e9 0 sys_write
PUBLIC 26842 0 logger::write(char const*, unsigned long)
PUBLIC 2686a 0 sys_close
PUBLIC 268b3 0 sys_lseek
PUBLIC 2690d 0 sys_open
PUBLIC 26967 0 sys_write
PUBLIC 269c0 0 google_breakpad::MinidumpFileWriter::MinidumpFileWriter()
PUBLIC 269f4 0 google_breakpad::MinidumpFileWriter::~MinidumpFileWriter()
PUBLIC 26a1c 0 google_breakpad::MinidumpFileWriter::Open(char const*)
PUBLIC 26a82 0 google_breakpad::MinidumpFileWriter::SetFile(int)
PUBLIC 26ad0 0 google_breakpad::MinidumpFileWriter::Close()
PUBLIC 26b3a 0 google_breakpad::MinidumpFileWriter::CopyStringToMDString(wchar_t const*, unsigned int, google_breakpad::TypedMDRVA<MDString>*)
PUBLIC 26bee 0 google_breakpad::MinidumpFileWriter::CopyStringToMDString(char const*, unsigned int, google_breakpad::TypedMDRVA<MDString>*)
PUBLIC 26ca8 0 google_breakpad::MinidumpFileWriter::WriteString(wchar_t const*, unsigned int, MDLocationDescriptor*)
PUBLIC 26cd8 0 google_breakpad::MinidumpFileWriter::WriteString(char const*, unsigned int, MDLocationDescriptor*)
PUBLIC 26d08 0 google_breakpad::MinidumpFileWriter::WriteMemory(void const*, unsigned long, MDMemoryDescriptor*)
PUBLIC 26e00 0 google_breakpad::MinidumpFileWriter::Allocate(unsigned long)
PUBLIC 26f1a 0 google_breakpad::MinidumpFileWriter::Copy(unsigned int, void const*, long)
PUBLIC 2702e 0 google_breakpad::UntypedMDRVA::Allocate(unsigned long)
PUBLIC 270a8 0 google_breakpad::UntypedMDRVA::Copy(unsigned int, void const*, unsigned long)
PUBLIC 27170 0 google_breakpad::UntypedMDRVA::size() const
PUBLIC 27182 0 google_breakpad::minidump_size<MDString>::size()
PUBLIC 2718e 0 google_breakpad::TypedMDRVA<MDString>::get()
PUBLIC 271a0 0 google_breakpad::TypedMDRVA<MDString>::CopyIndexAfterObject(unsigned int, void const*, unsigned long)
PUBLIC 27224 0 bool google_breakpad::MinidumpFileWriter::WriteStringCore<wchar_t>(wchar_t const*, unsigned int, MDLocationDescriptor*)
PUBLIC 273a4 0 bool google_breakpad::MinidumpFileWriter::WriteStringCore<char>(char const*, unsigned int, MDLocationDescriptor*)
PUBLIC 27522 0 google_breakpad::TypedMDRVA<MDString>::TypedMDRVA(google_breakpad::MinidumpFileWriter*)
PUBLIC 27568 0 google_breakpad::TypedMDRVA<MDString>::~TypedMDRVA()
PUBLIC 27590 0 google_breakpad::TypedMDRVA<MDString>::AllocateObjectAndArray(unsigned long, unsigned long)
PUBLIC 27602 0 google_breakpad::TypedMDRVA<MDString>::Flush()
PUBLIC 27636 0 my_strlen
PUBLIC 2766b 0 my_strcmp
PUBLIC 276c9 0 my_strncmp
PUBLIC 27747 0 my_strtoui
PUBLIC 277e0 0 my_uint_len
PUBLIC 2782b 0 my_uitos
PUBLIC 278ad 0 my_strchr
PUBLIC 278f1 0 my_strrchr
PUBLIC 27932 0 my_memchr
PUBLIC 27985 0 my_read_hex_ptr
PUBLIC 27a42 0 my_read_decimal_ptr
PUBLIC 27aac 0 my_memset
PUBLIC 27af2 0 my_strlcpy
PUBLIC 27b74 0 my_strlcat
PUBLIC 27bf4 0 my_isspace
PUBLIC 27c44 0 sys_munmap
PUBLIC 27c97 0 sys_mmap
PUBLIC 27d26 0 google_breakpad::FileID::FileID(char const*)
PUBLIC 27d89 0 google_breakpad::ElfClassBuildIDNoteIdentifier(void const*, unsigned long, google_breakpad::wasteful_vector<unsigned char>&)
PUBLIC 27e89 0 google_breakpad::FindElfBuildIDNote(void const*, google_breakpad::wasteful_vector<unsigned char>&)
PUBLIC 28039 0 google_breakpad::HashElfTextSection(void const*, google_breakpad::wasteful_vector<unsigned char>&)
PUBLIC 28150 0 google_breakpad::FileID::ElfFileIdentifierFromMappedFile(void const*, google_breakpad::wasteful_vector<unsigned char>&)
PUBLIC 28194 0 google_breakpad::FileID::ElfFileIdentifier(google_breakpad::wasteful_vector<unsigned char>&)
PUBLIC 28236 0 google_breakpad::bytes_to_hex_string(unsigned char const*, unsigned long)
PUBLIC 282d6 0 google_breakpad::FileID::ConvertIdentifierToUUIDString[abi:cxx11](google_breakpad::wasteful_vector<unsigned char> const&)
PUBLIC 283d0 0 google_breakpad::FileID::ConvertIdentifierToString[abi:cxx11](google_breakpad::wasteful_vector<unsigned char> const&)
PUBLIC 28422 0 google_breakpad::wasteful_vector<google_breakpad::ElfSegment>::~wasteful_vector()
PUBLIC 2843e 0 google_breakpad::auto_wasteful_vector<google_breakpad::ElfSegment, 2u>::~auto_wasteful_vector()
PUBLIC 2845a 0 google_breakpad::PageStdAllocator<google_breakpad::ElfSegment>::~PageStdAllocator()
PUBLIC 28476 0 google_breakpad::auto_wasteful_vector<google_breakpad::ElfSegment, 2u>::auto_wasteful_vector(google_breakpad::PageAllocator*)
PUBLIC 284f8 0 std::vector<google_breakpad::ElfSegment, google_breakpad::PageStdAllocator<google_breakpad::ElfSegment> >::~vector()
PUBLIC 2853e 0 std::vector<google_breakpad::ElfSegment, google_breakpad::PageStdAllocator<google_breakpad::ElfSegment> >::begin()
PUBLIC 28568 0 std::vector<google_breakpad::ElfSegment, google_breakpad::PageStdAllocator<google_breakpad::ElfSegment> >::end()
PUBLIC 28591 0 bool __gnu_cxx::operator!=<google_breakpad::ElfSegment*, std::vector<google_breakpad::ElfSegment, google_breakpad::PageStdAllocator<google_breakpad::ElfSegment> > >(__gnu_cxx::__normal_iterator<google_breakpad::ElfSegment*, std::vector<google_breakpad::ElfSegment, google_breakpad::PageStdAllocator<google_breakpad::ElfSegment> > > const&, __gnu_cxx::__normal_iterator<google_breakpad::ElfSegment*, std::vector<google_breakpad::ElfSegment, google_breakpad::PageStdAllocator<google_breakpad::ElfSegment> > > const&)
PUBLIC 285ce 0 __gnu_cxx::__normal_iterator<google_breakpad::ElfSegment*, std::vector<google_breakpad::ElfSegment, google_breakpad::PageStdAllocator<google_breakpad::ElfSegment> > >::operator++()
PUBLIC 285ee 0 __gnu_cxx::__normal_iterator<google_breakpad::ElfSegment*, std::vector<google_breakpad::ElfSegment, google_breakpad::PageStdAllocator<google_breakpad::ElfSegment> > >::operator*() const
PUBLIC 28600 0 std::vector<unsigned char, google_breakpad::PageStdAllocator<unsigned char> >::resize(unsigned long)
PUBLIC 2868a 0 std::vector<unsigned char, google_breakpad::PageStdAllocator<unsigned char> >::operator[](unsigned long) const
PUBLIC 286a8 0 google_breakpad::PageStdAllocator<google_breakpad::ElfSegment>::PageStdAllocator(google_breakpad::PageAllocator&, google_breakpad::ElfSegment*, unsigned long)
PUBLIC 286f2 0 std::allocator<google_breakpad::ElfSegment>::~allocator()
PUBLIC 2870e 0 std::allocator<google_breakpad::ElfSegment>::allocator(std::allocator<google_breakpad::ElfSegment> const&)
PUBLIC 28734 0 google_breakpad::wasteful_vector<google_breakpad::ElfSegment>::wasteful_vector(google_breakpad::PageStdAllocator<google_breakpad::ElfSegment>)
PUBLIC 2875a 0 std::vector<google_breakpad::ElfSegment, google_breakpad::PageStdAllocator<google_breakpad::ElfSegment> >::reserve(unsigned long)
PUBLIC 288a0 0 std::_Vector_base<google_breakpad::ElfSegment, google_breakpad::PageStdAllocator<google_breakpad::ElfSegment> >::_Vector_impl::~_Vector_impl()
PUBLIC 288bc 0 std::_Vector_base<google_breakpad::ElfSegment, google_breakpad::PageStdAllocator<google_breakpad::ElfSegment> >::~_Vector_base()
PUBLIC 2890e 0 std::_Vector_base<google_breakpad::ElfSegment, google_breakpad::PageStdAllocator<google_breakpad::ElfSegment> >::_M_get_Tp_allocator()
PUBLIC 2891c 0 void std::_Destroy<google_breakpad::ElfSegment*, google_breakpad::PageStdAllocator<google_breakpad::ElfSegment> >(google_breakpad::ElfSegment*, google_breakpad::ElfSegment*, google_breakpad::PageStdAllocator<google_breakpad::ElfSegment>&)
PUBLIC 28962 0 __gnu_cxx::__normal_iterator<google_breakpad::ElfSegment*, std::vector<google_breakpad::ElfSegment, google_breakpad::PageStdAllocator<google_breakpad::ElfSegment> > >::__normal_iterator(google_breakpad::ElfSegment* const&)
PUBLIC 28980 0 __gnu_cxx::__normal_iterator<google_breakpad::ElfSegment*, std::vector<google_breakpad::ElfSegment, google_breakpad::PageStdAllocator<google_breakpad::ElfSegment> > >::base() const
PUBLIC 2898e 0 std::vector<unsigned char, google_breakpad::PageStdAllocator<unsigned char> >::_M_default_append(unsigned long)
PUBLIC 28b8c 0 std::vector<unsigned char, google_breakpad::PageStdAllocator<unsigned char> >::_M_erase_at_end(unsigned char*)
PUBLIC 28bd2 0 std::allocator<google_breakpad::ElfSegment>::allocator()
PUBLIC 28bee 0 __gnu_cxx::new_allocator<google_breakpad::ElfSegment>::~new_allocator()
PUBLIC 28bfa 0 __gnu_cxx::new_allocator<google_breakpad::ElfSegment>::new_allocator(__gnu_cxx::new_allocator<google_breakpad::ElfSegment> const&)
PUBLIC 28c0a 0 std::vector<google_breakpad::ElfSegment, google_breakpad::PageStdAllocator<google_breakpad::ElfSegment> >::vector(google_breakpad::PageStdAllocator<google_breakpad::ElfSegment> const&)
PUBLIC 28c30 0 std::vector<google_breakpad::ElfSegment, google_breakpad::PageStdAllocator<google_breakpad::ElfSegment> >::max_size() const
PUBLIC 28c52 0 std::vector<google_breakpad::ElfSegment, google_breakpad::PageStdAllocator<google_breakpad::ElfSegment> >::capacity() const
PUBLIC 28c7a 0 std::vector<google_breakpad::ElfSegment, google_breakpad::PageStdAllocator<google_breakpad::ElfSegment> >::size() const
PUBLIC 28ca1 0 std::move_iterator<google_breakpad::ElfSegment*> std::__make_move_if_noexcept_iterator<google_breakpad::ElfSegment, std::move_iterator<google_breakpad::ElfSegment*> >(google_breakpad::ElfSegment*)
PUBLIC 28cc6 0 google_breakpad::ElfSegment* std::vector<google_breakpad::ElfSegment, google_breakpad::PageStdAllocator<google_breakpad::ElfSegment> >::_M_allocate_and_copy<std::move_iterator<google_breakpad::ElfSegment*> >(unsigned long, std::move_iterator<google_breakpad::ElfSegment*>, std::move_iterator<google_breakpad::ElfSegment*>)
PUBLIC 28d5e 0 std::_Vector_base<google_breakpad::ElfSegment, google_breakpad::PageStdAllocator<google_breakpad::ElfSegment> >::_M_deallocate(google_breakpad::ElfSegment*, unsigned long)
PUBLIC 28d93 0 google_breakpad::ElfSegment* std::__addressof<google_breakpad::ElfSegment>(google_breakpad::ElfSegment&)
PUBLIC 28da1 0 void std::allocator_traits<google_breakpad::PageStdAllocator<google_breakpad::ElfSegment> >::destroy<google_breakpad::ElfSegment>(google_breakpad::PageStdAllocator<google_breakpad::ElfSegment>&, google_breakpad::ElfSegment*)
PUBLIC 28dcc 0 unsigned char* std::__uninitialized_default_n_a<unsigned char*, unsigned long, google_breakpad::PageStdAllocator<unsigned char> >(unsigned char*, unsigned long, google_breakpad::PageStdAllocator<unsigned char>&)
PUBLIC 28e5e 0 __gnu_cxx::new_allocator<google_breakpad::ElfSegment>::new_allocator()
PUBLIC 28e6a 0 std::_Vector_base<google_breakpad::ElfSegment, google_breakpad::PageStdAllocator<google_breakpad::ElfSegment> >::_Vector_base(google_breakpad::PageStdAllocator<google_breakpad::ElfSegment> const&)
PUBLIC 28e90 0 std::allocator_traits<google_breakpad::PageStdAllocator<google_breakpad::ElfSegment> >::max_size(google_breakpad::PageStdAllocator<google_breakpad::ElfSegment> const&)
PUBLIC 28eb0 0 std::_Vector_base<google_breakpad::ElfSegment, google_breakpad::PageStdAllocator<google_breakpad::ElfSegment> >::_M_get_Tp_allocator() const
PUBLIC 28ebe 0 std::move_iterator<google_breakpad::ElfSegment*>::move_iterator(google_breakpad::ElfSegment*)
PUBLIC 28ed8 0 std::_Vector_base<google_breakpad::ElfSegment, google_breakpad::PageStdAllocator<google_breakpad::ElfSegment> >::_M_allocate(unsigned long)
PUBLIC 28f0b 0 google_breakpad::ElfSegment&& std::forward<google_breakpad::ElfSegment>(std::remove_reference<google_breakpad::ElfSegment>::type&)
PUBLIC 28f19 0 google_breakpad::ElfSegment* std::__uninitialized_copy_a<std::move_iterator<google_breakpad::ElfSegment*>, google_breakpad::ElfSegment*, google_breakpad::PageStdAllocator<google_breakpad::ElfSegment> >(std::move_iterator<google_breakpad::ElfSegment*>, std::move_iterator<google_breakpad::ElfSegment*>, google_breakpad::ElfSegment*, google_breakpad::PageStdAllocator<google_breakpad::ElfSegment>&)
PUBLIC 28fd8 0 std::allocator_traits<google_breakpad::PageStdAllocator<google_breakpad::ElfSegment> >::deallocate(google_breakpad::PageStdAllocator<google_breakpad::ElfSegment>&, google_breakpad::ElfSegment*, unsigned long)
PUBLIC 29006 0 decltype (({parm#1}.destroy)({parm#2})) std::allocator_traits<google_breakpad::PageStdAllocator<google_breakpad::ElfSegment> >::_S_destroy<google_breakpad::PageStdAllocator<google_breakpad::ElfSegment>, google_breakpad::ElfSegment>(google_breakpad::PageStdAllocator<google_breakpad::ElfSegment>&, google_breakpad::ElfSegment*, int)
PUBLIC 2902f 0 decltype (_S_construct({parm#1}, {parm#2})) std::allocator_traits<google_breakpad::PageStdAllocator<unsigned char> >::construct<unsigned char>(google_breakpad::PageStdAllocator<unsigned char>&, unsigned char*)
PUBLIC 29056 0 google_breakpad::PageStdAllocator<google_breakpad::ElfSegment>::PageStdAllocator(google_breakpad::PageStdAllocator<google_breakpad::ElfSegment> const&)
PUBLIC 290aa 0 std::_Vector_base<google_breakpad::ElfSegment, google_breakpad::PageStdAllocator<google_breakpad::ElfSegment> >::_Vector_impl::_Vector_impl(google_breakpad::PageStdAllocator<google_breakpad::ElfSegment> const&)
PUBLIC 290f4 0 decltype (({parm#1}.max_size)()) std::allocator_traits<google_breakpad::PageStdAllocator<google_breakpad::ElfSegment> >::_S_max_size<google_breakpad::PageStdAllocator<google_breakpad::ElfSegment> const>(google_breakpad::PageStdAllocator<google_breakpad::ElfSegment> const&, int)
PUBLIC 29111 0 std::allocator_traits<google_breakpad::PageStdAllocator<google_breakpad::ElfSegment> >::allocate(google_breakpad::PageStdAllocator<google_breakpad::ElfSegment>&, unsigned long)
PUBLIC 2913b 0 bool std::operator!=<google_breakpad::ElfSegment*>(std::move_iterator<google_breakpad::ElfSegment*> const&, std::move_iterator<google_breakpad::ElfSegment*> const&)
PUBLIC 29164 0 std::move_iterator<google_breakpad::ElfSegment*>::operator++()
PUBLIC 29184 0 std::move_iterator<google_breakpad::ElfSegment*>::operator*() const
PUBLIC 29195 0 decltype (_S_construct({parm#1}, {parm#2}, (forward<google_breakpad::ElfSegment>)({parm#3}))) std::allocator_traits<google_breakpad::PageStdAllocator<google_breakpad::ElfSegment> >::construct<google_breakpad::ElfSegment, google_breakpad::ElfSegment>(google_breakpad::PageStdAllocator<google_breakpad::ElfSegment>&, google_breakpad::ElfSegment*, google_breakpad::ElfSegment&&)
PUBLIC 291ce 0 google_breakpad::PageStdAllocator<google_breakpad::ElfSegment>::deallocate(google_breakpad::ElfSegment*, unsigned long)
PUBLIC 291e2 0 void __gnu_cxx::new_allocator<google_breakpad::ElfSegment>::destroy<google_breakpad::ElfSegment>(google_breakpad::ElfSegment*)
PUBLIC 291f1 0 std::enable_if<std::__and_<std::allocator_traits<google_breakpad::PageStdAllocator<unsigned char> >::__construct_helper<unsigned char>::type>::value, void>::type std::allocator_traits<google_breakpad::PageStdAllocator<unsigned char> >::_S_construct<unsigned char>(google_breakpad::PageStdAllocator<unsigned char>&, unsigned char*)
PUBLIC 29218 0 __gnu_cxx::new_allocator<google_breakpad::ElfSegment>::max_size() const
PUBLIC 2922c 0 google_breakpad::PageStdAllocator<google_breakpad::ElfSegment>::allocate(unsigned long, void const*)
PUBLIC 2927c 0 bool std::operator==<google_breakpad::ElfSegment*>(std::move_iterator<google_breakpad::ElfSegment*> const&, std::move_iterator<google_breakpad::ElfSegment*> const&)
PUBLIC 292b5 0 std::enable_if<std::__and_<std::allocator_traits<google_breakpad::PageStdAllocator<google_breakpad::ElfSegment> >::__construct_helper<google_breakpad::ElfSegment, google_breakpad::ElfSegment>::type>::value, void>::type std::allocator_traits<google_breakpad::PageStdAllocator<google_breakpad::ElfSegment> >::_S_construct<google_breakpad::ElfSegment, google_breakpad::ElfSegment>(google_breakpad::PageStdAllocator<google_breakpad::ElfSegment>&, google_breakpad::ElfSegment*, google_breakpad::ElfSegment&&)
PUBLIC 292ee 0 void __gnu_cxx::new_allocator<unsigned char>::construct<unsigned char>(unsigned char*)
PUBLIC 2931a 0 std::move_iterator<google_breakpad::ElfSegment*>::base() const
PUBLIC 2932c 0 void __gnu_cxx::new_allocator<google_breakpad::ElfSegment>::construct<google_breakpad::ElfSegment, google_breakpad::ElfSegment>(google_breakpad::ElfSegment*, google_breakpad::ElfSegment&&)
PUBLIC 29380 0 sys_close
PUBLIC 293c9 0 sys_fstat
PUBLIC 2941d 0 sys_munmap
PUBLIC 29470 0 sys_open
PUBLIC 294ca 0 sys_mmap
PUBLIC 29558 0 google_breakpad::MemoryMappedFile::MemoryMappedFile()
PUBLIC 29574 0 google_breakpad::MemoryMappedFile::MemoryMappedFile(char const*, unsigned long)
PUBLIC 295ae 0 google_breakpad::MemoryMappedFile::~MemoryMappedFile()
PUBLIC 295ca 0 google_breakpad::MemoryMappedFile::Map(char const*, unsigned long)
PUBLIC 29704 0 google_breakpad::MemoryMappedFile::Unmap()
PUBLIC 2976c 0 google_breakpad::MemoryRange::MemoryRange()
PUBLIC 2978e 0 google_breakpad::MemoryRange::Set(void const*, unsigned long)
PUBLIC 297c6 0 sys_readlink
PUBLIC 29821 0 google_breakpad::SafeReadLink(char const*, char*, unsigned long)
PUBLIC 2987f 0 CreateGUID(MDGUID*)
PUBLIC 29899 0 GUIDToString(MDGUID const*, char*, int)
PUBLIC 2996b 0 GUIDGenerator::BytesToUInt32(unsigned char const*)
PUBLIC 299b8 0 GUIDGenerator::CreateGUID(MDGUID*)
PUBLIC 29a57 0 GUIDGenerator::InitOnce()
PUBLIC 29a77 0 GUIDGenerator::InitOnceImpl()
PUBLIC 29a9e 0 GUIDGenerator::CreateGUIDFromDevUrandom(MDGUID*)
PUBLIC 29b23 0 GUIDGenerator::CreateGUIDFromRand(MDGUID*)
PUBLIC 29b6e 0 sys_mmap
PUBLIC 29bfc 0 google_breakpad::IsValidElf(void const*)
PUBLIC 29c27 0 google_breakpad::ElfClass(void const*)
PUBLIC 29c44 0 google_breakpad::FindElfSection(void const*, char const*, unsigned int, void const**, unsigned long*)
PUBLIC 29d8e 0 google_breakpad::FindElfSegments(void const*, unsigned int, google_breakpad::wasteful_vector<google_breakpad::ElfSegment>*)
PUBLIC 29e6d 0 void google_breakpad::(anonymous namespace)::FindElfClassSection<google_breakpad::ElfClass32>(char const*, char const*, google_breakpad::ElfClass32::Word, void const**, unsigned long*)
PUBLIC 2a048 0 void google_breakpad::(anonymous namespace)::FindElfClassSection<google_breakpad::ElfClass64>(char const*, char const*, google_breakpad::ElfClass64::Word, void const**, unsigned long*)
PUBLIC 2a21c 0 void google_breakpad::(anonymous namespace)::FindElfClassSegment<google_breakpad::ElfClass32>(char const*, google_breakpad::ElfClass32::Word, google_breakpad::wasteful_vector<google_breakpad::ElfSegment>*)
PUBLIC 2a3ad 0 void google_breakpad::(anonymous namespace)::FindElfClassSegment<google_breakpad::ElfClass64>(char const*, google_breakpad::ElfClass64::Word, google_breakpad::wasteful_vector<google_breakpad::ElfSegment>*)
PUBLIC 2a55e 0 Elf32_Shdr const* google_breakpad::GetOffset<google_breakpad::ElfClass32, Elf32_Shdr>(google_breakpad::ElfClass32::Ehdr const*, google_breakpad::ElfClass32::Off)
PUBLIC 2a575 0 char const* google_breakpad::GetOffset<google_breakpad::ElfClass32, char>(google_breakpad::ElfClass32::Ehdr const*, google_breakpad::ElfClass32::Off)
PUBLIC 2a58c 0 google_breakpad::ElfClass32::Shdr const* google_breakpad::FindElfSectionByName<google_breakpad::ElfClass32>(char const*, google_breakpad::ElfClass32::Word, google_breakpad::ElfClass32::Shdr const*, char const*, char const*, int)
PUBLIC 2a710 0 Elf64_Shdr const* google_breakpad::GetOffset<google_breakpad::ElfClass64, Elf64_Shdr>(google_breakpad::ElfClass64::Ehdr const*, google_breakpad::ElfClass64::Off)
PUBLIC 2a729 0 char const* google_breakpad::GetOffset<google_breakpad::ElfClass64, char>(google_breakpad::ElfClass64::Ehdr const*, google_breakpad::ElfClass64::Off)
PUBLIC 2a742 0 google_breakpad::ElfClass64::Shdr const* google_breakpad::FindElfSectionByName<google_breakpad::ElfClass64>(char const*, google_breakpad::ElfClass64::Word, google_breakpad::ElfClass64::Shdr const*, char const*, char const*, int)
PUBLIC 2a8a5 0 Elf32_Phdr const* google_breakpad::GetOffset<google_breakpad::ElfClass32, Elf32_Phdr>(google_breakpad::ElfClass32::Ehdr const*, google_breakpad::ElfClass32::Off)
PUBLIC 2a8bc 0 google_breakpad::ElfSegment const& std::forward<google_breakpad::ElfSegment const&>(std::remove_reference<google_breakpad::ElfSegment const&>::type&)
PUBLIC 2a8ca 0 std::vector<google_breakpad::ElfSegment, google_breakpad::PageStdAllocator<google_breakpad::ElfSegment> >::push_back(google_breakpad::ElfSegment const&)
PUBLIC 2a936 0 Elf64_Phdr const* google_breakpad::GetOffset<google_breakpad::ElfClass64, Elf64_Phdr>(google_breakpad::ElfClass64::Ehdr const*, google_breakpad::ElfClass64::Off)
PUBLIC 2a94f 0 decltype (_S_construct({parm#1}, {parm#2}, (forward<google_breakpad::ElfSegment const&>)({parm#3}))) std::allocator_traits<google_breakpad::PageStdAllocator<google_breakpad::ElfSegment> >::construct<google_breakpad::ElfSegment, google_breakpad::ElfSegment const&>(google_breakpad::PageStdAllocator<google_breakpad::ElfSegment>&, google_breakpad::ElfSegment*, google_breakpad::ElfSegment const&)
PUBLIC 2a988 0 void std::vector<google_breakpad::ElfSegment, google_breakpad::PageStdAllocator<google_breakpad::ElfSegment> >::_M_emplace_back_aux<google_breakpad::ElfSegment const&>(google_breakpad::ElfSegment const&)
PUBLIC 2ab76 0 std::enable_if<std::__and_<std::allocator_traits<google_breakpad::PageStdAllocator<google_breakpad::ElfSegment> >::__construct_helper<google_breakpad::ElfSegment, google_breakpad::ElfSegment const&>::type>::value, void>::type std::allocator_traits<google_breakpad::PageStdAllocator<google_breakpad::ElfSegment> >::_S_construct<google_breakpad::ElfSegment, google_breakpad::ElfSegment const&>(google_breakpad::PageStdAllocator<google_breakpad::ElfSegment>&, google_breakpad::ElfSegment*, google_breakpad::ElfSegment const&)
PUBLIC 2abb0 0 std::vector<google_breakpad::ElfSegment, google_breakpad::PageStdAllocator<google_breakpad::ElfSegment> >::_M_check_len(unsigned long, char const*) const
PUBLIC 2ac79 0 google_breakpad::ElfSegment* std::__uninitialized_move_if_noexcept_a<google_breakpad::ElfSegment*, google_breakpad::ElfSegment*, google_breakpad::PageStdAllocator<google_breakpad::ElfSegment> >(google_breakpad::ElfSegment*, google_breakpad::ElfSegment*, google_breakpad::ElfSegment*, google_breakpad::PageStdAllocator<google_breakpad::ElfSegment>&)
PUBLIC 2acce 0 void __gnu_cxx::new_allocator<google_breakpad::ElfSegment>::construct<google_breakpad::ElfSegment, google_breakpad::ElfSegment const&>(google_breakpad::ElfSegment*, google_breakpad::ElfSegment const&)
PUBLIC 2ad21 0 google_breakpad::UTF8ToUTF16(char const*, std::vector<unsigned short, std::allocator<unsigned short> >*)
PUBLIC 2ae43 0 google_breakpad::UTF8ToUTF16Char(char const*, int, unsigned short*)
PUBLIC 2aef9 0 google_breakpad::UTF32ToUTF16(wchar_t const*, std::vector<unsigned short, std::allocator<unsigned short> >*)
PUBLIC 2b01f 0 google_breakpad::UTF32ToUTF16Char(wchar_t, unsigned short*)
PUBLIC 2b0ae 0 google_breakpad::Swap(unsigned short)
PUBLIC 2b0cc 0 google_breakpad::UTF16ToUTF8[abi:cxx11](std::vector<unsigned short, std::allocator<unsigned short> > const&, bool)
PUBLIC 2b390 0 std::vector<unsigned short, std::allocator<unsigned short> >::clear()
PUBLIC 2b3b6 0 std::vector<unsigned short, std::allocator<unsigned short> >::begin()
PUBLIC 2b3dc 0 __gnu_cxx::__normal_iterator<unsigned short const*, std::vector<unsigned short, std::allocator<unsigned short> > >::__normal_iterator<unsigned short*>(__gnu_cxx::__normal_iterator<unsigned short*, __gnu_cxx::__enable_if<std::__are_same<unsigned short*, unsigned short*>::__value, std::vector<unsigned short, std::allocator<unsigned short> > >::__type> const&)
PUBLIC 2b406 0 std::vector<unsigned short, std::allocator<unsigned short> >::insert(__gnu_cxx::__normal_iterator<unsigned short const*, std::vector<unsigned short, std::allocator<unsigned short> > >, unsigned long, unsigned short const&)
PUBLIC 2b4a4 0 std::vector<unsigned short, std::allocator<unsigned short> >::operator[](unsigned long)
PUBLIC 2b4c4 0 std::vector<unsigned short, std::allocator<unsigned short> >::capacity() const
PUBLIC 2b4ea 0 std::vector<unsigned short, std::allocator<unsigned short> >::resize(unsigned long)
PUBLIC 2b576 0 std::vector<unsigned short, std::allocator<unsigned short> >::operator[](unsigned long) const
PUBLIC 2b596 0 google_breakpad::scoped_array<unsigned short>::scoped_array(unsigned short*)
PUBLIC 2b5b0 0 google_breakpad::scoped_array<unsigned short>::~scoped_array()
PUBLIC 2b5da 0 std::vector<unsigned short, std::allocator<unsigned short> >::size() const
PUBLIC 2b600 0 google_breakpad::scoped_array<unsigned short>::reset(unsigned short*)
PUBLIC 2b646 0 google_breakpad::scoped_array<unsigned short>::get() const
PUBLIC 2b658 0 std::vector<unsigned short, std::allocator<unsigned short> >::begin() const
PUBLIC 2b688 0 std::vector<unsigned short, std::allocator<unsigned short> >::end() const
PUBLIC 2b6b9 0 bool __gnu_cxx::operator!=<unsigned short const*, std::vector<unsigned short, std::allocator<unsigned short> > >(__gnu_cxx::__normal_iterator<unsigned short const*, std::vector<unsigned short, std::allocator<unsigned short> > > const&, __gnu_cxx::__normal_iterator<unsigned short const*, std::vector<unsigned short, std::allocator<unsigned short> > > const&)
PUBLIC 2b6f6 0 __gnu_cxx::__normal_iterator<unsigned short const*, std::vector<unsigned short, std::allocator<unsigned short> > >::operator++()
PUBLIC 2b716 0 __gnu_cxx::__normal_iterator<unsigned short const*, std::vector<unsigned short, std::allocator<unsigned short> > >::operator*() const
PUBLIC 2b728 0 google_breakpad::scoped_array<unsigned char>::scoped_array(unsigned char*)
PUBLIC 2b742 0 google_breakpad::scoped_array<unsigned char>::~scoped_array()
PUBLIC 2b76c 0 google_breakpad::scoped_array<unsigned char>::get() const
PUBLIC 2b77e 0 std::vector<unsigned short, std::allocator<unsigned short> >::_M_erase_at_end(unsigned short*)
PUBLIC 2b7c4 0 __gnu_cxx::__normal_iterator<unsigned short*, std::vector<unsigned short, std::allocator<unsigned short> > >::__normal_iterator(unsigned short* const&)
PUBLIC 2b7e2 0 __gnu_cxx::__normal_iterator<unsigned short*, std::vector<unsigned short, std::allocator<unsigned short> > >::base() const
PUBLIC 2b7f0 0 std::vector<unsigned short, std::allocator<unsigned short> >::cbegin() const
PUBLIC 2b820 0 __gnu_cxx::__normal_iterator<unsigned short const*, std::vector<unsigned short, std::allocator<unsigned short> > >::difference_type __gnu_cxx::operator-<unsigned short const*, std::vector<unsigned short, std::allocator<unsigned short> > >(__gnu_cxx::__normal_iterator<unsigned short const*, std::vector<unsigned short, std::allocator<unsigned short> > > const&, __gnu_cxx::__normal_iterator<unsigned short const*, std::vector<unsigned short, std::allocator<unsigned short> > > const&)
PUBLIC 2b862 0 std::vector<unsigned short, std::allocator<unsigned short> >::_M_fill_insert(__gnu_cxx::__normal_iterator<unsigned short*, std::vector<unsigned short, std::allocator<unsigned short> > >, unsigned long, unsigned short const&)
PUBLIC 2bcd0 0 __gnu_cxx::__normal_iterator<unsigned short*, std::vector<unsigned short, std::allocator<unsigned short> > >::operator+(long) const
PUBLIC 2bd0e 0 std::vector<unsigned short, std::allocator<unsigned short> >::_M_default_append(unsigned long)
PUBLIC 2bf12 0 __gnu_cxx::__normal_iterator<unsigned short const*, std::vector<unsigned short, std::allocator<unsigned short> > >::__normal_iterator(unsigned short const* const&)
PUBLIC 2bf30 0 __gnu_cxx::__normal_iterator<unsigned short const*, std::vector<unsigned short, std::allocator<unsigned short> > >::base() const
PUBLIC 2bf3e 0 std::_Vector_base<unsigned short, std::allocator<unsigned short> >::_M_get_Tp_allocator()
PUBLIC 2bf4c 0 void std::_Destroy<unsigned short*, unsigned short>(unsigned short*, unsigned short*, std::allocator<unsigned short>&)
PUBLIC 2bf76 0 std::vector<unsigned short, std::allocator<unsigned short> >::end()
PUBLIC 2bf9f 0 __gnu_cxx::__normal_iterator<unsigned short*, std::vector<unsigned short, std::allocator<unsigned short> > >::difference_type __gnu_cxx::operator-<unsigned short*, std::vector<unsigned short, std::allocator<unsigned short> > >(__gnu_cxx::__normal_iterator<unsigned short*, std::vector<unsigned short, std::allocator<unsigned short> > > const&, __gnu_cxx::__normal_iterator<unsigned short*, std::vector<unsigned short, std::allocator<unsigned short> > > const&)
PUBLIC 2bfe1 0 unsigned short* std::__uninitialized_move_a<unsigned short*, unsigned short*, std::allocator<unsigned short> >(unsigned short*, unsigned short*, unsigned short*, std::allocator<unsigned short>&)
PUBLIC 2c035 0 unsigned short* std::move_backward<unsigned short*, unsigned short*>(unsigned short*, unsigned short*, unsigned short*)
PUBLIC 2c081 0 void std::fill<unsigned short*, unsigned short>(unsigned short*, unsigned short*, unsigned short const&)
PUBLIC 2c0ce 0 unsigned short* std::__uninitialized_fill_n_a<unsigned short*, unsigned long, unsigned short, unsigned short>(unsigned short*, unsigned long, unsigned short const&, std::allocator<unsigned short>&)
PUBLIC 2c100 0 std::vector<unsigned short, std::allocator<unsigned short> >::_M_check_len(unsigned long, char const*) const
PUBLIC 2c1ca 0 std::_Vector_base<unsigned short, std::allocator<unsigned short> >::_M_allocate(unsigned long)
PUBLIC 2c1fd 0 unsigned short* std::__uninitialized_move_if_noexcept_a<unsigned short*, unsigned short*, std::allocator<unsigned short> >(unsigned short*, unsigned short*, unsigned short*, std::allocator<unsigned short>&)
PUBLIC 2c252 0 std::_Vector_base<unsigned short, std::allocator<unsigned short> >::_M_deallocate(unsigned short*, unsigned long)
PUBLIC 2c287 0 unsigned short* std::__uninitialized_default_n_a<unsigned short*, unsigned long, unsigned short>(unsigned short*, unsigned long, std::allocator<unsigned short>&)
PUBLIC 2c2b0 0 void std::_Destroy<unsigned short*>(unsigned short*, unsigned short*)
PUBLIC 2c2d6 0 std::move_iterator<unsigned short*> std::make_move_iterator<unsigned short*>(unsigned short*)
PUBLIC 2c2fb 0 unsigned short* std::__uninitialized_copy_a<std::move_iterator<unsigned short*>, unsigned short*, unsigned short>(std::move_iterator<unsigned short*>, std::move_iterator<unsigned short*>, unsigned short*, std::allocator<unsigned short>&)
PUBLIC 2c32c 0 unsigned short* std::__miter_base<unsigned short*>(unsigned short*)
PUBLIC 2c33a 0 unsigned short* std::__copy_move_backward_a2<true, unsigned short*, unsigned short*>(unsigned short*, unsigned short*, unsigned short*)
PUBLIC 2c392 0 unsigned short* std::__niter_base<unsigned short*>(unsigned short*)
PUBLIC 2c3a0 0 __gnu_cxx::__enable_if<std::__is_scalar<unsigned short>::__value, void>::__type std::__fill_a<unsigned short*, unsigned short>(unsigned short*, unsigned short*, unsigned short const&)
PUBLIC 2c3da 0 unsigned short* std::uninitialized_fill_n<unsigned short*, unsigned long, unsigned short>(unsigned short*, unsigned long, unsigned short const&)
PUBLIC 2c40c 0 std::vector<unsigned short, std::allocator<unsigned short> >::max_size() const
PUBLIC 2c42e 0 std::allocator_traits<std::allocator<unsigned short> >::allocate(std::allocator<unsigned short>&, unsigned long)
PUBLIC 2c458 0 std::move_iterator<unsigned short*> std::__make_move_if_noexcept_iterator<unsigned short, std::move_iterator<unsigned short*> >(unsigned short*)
PUBLIC 2c47d 0 std::allocator_traits<std::allocator<unsigned short> >::deallocate(std::allocator<unsigned short>&, unsigned short*, unsigned long)
PUBLIC 2c4ab 0 unsigned short* std::__uninitialized_default_n<unsigned short*, unsigned long>(unsigned short*, unsigned long)
PUBLIC 2c4d4 0 void std::_Destroy_aux<true>::__destroy<unsigned short*>(unsigned short*, unsigned short*)
PUBLIC 2c4e4 0 std::move_iterator<unsigned short*>::move_iterator(unsigned short*)
PUBLIC 2c4fe 0 unsigned short* std::uninitialized_copy<std::move_iterator<unsigned short*>, unsigned short*>(std::move_iterator<unsigned short*>, std::move_iterator<unsigned short*>, unsigned short*)
PUBLIC 2c52f 0 unsigned short* std::__copy_move_backward_a<true, unsigned short*, unsigned short*>(unsigned short*, unsigned short*, unsigned short*)
PUBLIC 2c560 0 unsigned short* std::__uninitialized_fill_n<true>::__uninit_fill_n<unsigned short*, unsigned long, unsigned short>(unsigned short*, unsigned long, unsigned short const&)
PUBLIC 2c58d 0 std::allocator_traits<std::allocator<unsigned short> >::max_size(std::allocator<unsigned short> const&)
PUBLIC 2c5a8 0 std::_Vector_base<unsigned short, std::allocator<unsigned short> >::_M_get_Tp_allocator() const
PUBLIC 2c5b6 0 __gnu_cxx::new_allocator<unsigned short>::allocate(unsigned long, void const*)
PUBLIC 2c5f8 0 __gnu_cxx::new_allocator<unsigned short>::deallocate(unsigned short*, unsigned long)
PUBLIC 2c61b 0 unsigned short* std::__uninitialized_default_n_1<true>::__uninit_default_n<unsigned short*, unsigned long>(unsigned short*, unsigned long)
PUBLIC 2c64a 0 unsigned short* std::__uninitialized_copy<true>::__uninit_copy<std::move_iterator<unsigned short*>, unsigned short*>(std::move_iterator<unsigned short*>, std::move_iterator<unsigned short*>, unsigned short*)
PUBLIC 2c677 0 unsigned short* std::__copy_move_backward<true, true, std::random_access_iterator_tag>::__copy_move_b<unsigned short>(unsigned short const*, unsigned short const*, unsigned short*)
PUBLIC 2c6e8 0 unsigned short* std::fill_n<unsigned short*, unsigned long, unsigned short>(unsigned short*, unsigned long, unsigned short const&)
PUBLIC 2c720 0 __gnu_cxx::new_allocator<unsigned short>::max_size() const
PUBLIC 2c734 0 unsigned short* std::copy<std::move_iterator<unsigned short*>, unsigned short*>(std::move_iterator<unsigned short*>, std::move_iterator<unsigned short*>, unsigned short*)
PUBLIC 2c780 0 __gnu_cxx::__enable_if<std::__is_scalar<unsigned short>::__value, unsigned short*>::__type std::__fill_n_a<unsigned short*, unsigned long, unsigned short>(unsigned short*, unsigned long, unsigned short const&)
PUBLIC 2c7c7 0 decltype (__miter_base(({parm#1}.base)())) std::__miter_base<unsigned short*>(std::move_iterator<unsigned short*>)
PUBLIC 2c7e9 0 unsigned short* std::__copy_move_a2<true, unsigned short*, unsigned short*>(unsigned short*, unsigned short*, unsigned short*)
PUBLIC 2c842 0 std::move_iterator<unsigned short*>::base() const
PUBLIC 2c853 0 unsigned short* std::__copy_move_a<true, unsigned short*, unsigned short*>(unsigned short*, unsigned short*, unsigned short*)
PUBLIC 2c884 0 unsigned short* std::__copy_move<true, true, std::random_access_iterator_tag>::__copy_m<unsigned short>(unsigned short const*, unsigned short const*, unsigned short*)
PUBLIC 2c8e0 0 ConvertUTF32toUTF16
PUBLIC 2ca61 0 ConvertUTF16toUTF32
PUBLIC 2cbda 0 ConvertUTF16toUTF8
PUBLIC 2ce83 0 isLegalUTF8
PUBLIC 2cfec 0 isLegalUTF8Sequence
PUBLIC 2d04a 0 ConvertUTF8toUTF16
PUBLIC 2d333 0 ConvertUTF32toUTF8
PUBLIC 2d52d 0 ConvertUTF8toUTF32
PUBLIC 2d784 0 google_breakpad::ThreadInfo::GetInstructionPointer() const
PUBLIC 2d79a 0 google_breakpad::ThreadInfo::FillCPUContext(MDRawContextAMD64*) const
PUBLIC 2db18 0 google_breakpad::ThreadInfo::GetGeneralPurposeRegisters(void**, unsigned long*)
PUBLIC 2db84 0 google_breakpad::ThreadInfo::GetFloatingPointRegisters(void**, unsigned long*)
PUBLIC 2dbf4 0 google_breakpad::UContextReader::GetStackPointer(ucontext const*)
PUBLIC 2dc0a 0 google_breakpad::UContextReader::GetInstructionPointer(ucontext const*)
PUBLIC 2dc20 0 google_breakpad::UContextReader::FillCPUContext(MDRawContextAMD64*, ucontext const*, _libc_fpstate const*)
PUBLIC 2df4a 0 sys_mmap
PUBLIC 2dfd8 0 (anonymous namespace)::MicrodumpWriter::MicrodumpWriter(google_breakpad::ExceptionHandler::CrashContext const*, std::__cxx11::list<google_breakpad::MappingEntry, std::allocator<google_breakpad::MappingEntry> > const&, bool, unsigned long, bool, google_breakpad::MicrodumpExtraInfo const&, google_breakpad::LinuxDumper*)
PUBLIC 2e114 0 (anonymous namespace)::MicrodumpWriter::~MicrodumpWriter()
PUBLIC 2e142 0 (anonymous namespace)::MicrodumpWriter::Init()
PUBLIC 2e1ee 0 (anonymous namespace)::MicrodumpWriter::Dump()
PUBLIC 2e2ba 0 (anonymous namespace)::MicrodumpWriter::LogLine(char const*)
PUBLIC 2e2fc 0 (anonymous namespace)::MicrodumpWriter::LogAppend(char const*)
PUBLIC 2e32c 0 (anonymous namespace)::MicrodumpWriter::LogAppend(char*)
PUBLIC 2e352 0 (anonymous namespace)::MicrodumpWriter::LogAppend(void const*, unsigned long)
PUBLIC 2e3a8 0 (anonymous namespace)::MicrodumpWriter::LogCommitLine()
PUBLIC 2e3da 0 (anonymous namespace)::MicrodumpWriter::CaptureCrashingThreadStack(int)
PUBLIC 2e5ca 0 (anonymous namespace)::MicrodumpWriter::DumpProductInformation()
PUBLIC 2e632 0 (anonymous namespace)::MicrodumpWriter::DumpProcessType()
PUBLIC 2e69a 0 (anonymous namespace)::MicrodumpWriter::DumpCrashReason()
PUBLIC 2e752 0 (anonymous namespace)::MicrodumpWriter::DumpOSInformation()
PUBLIC 2e93a 0 (anonymous namespace)::MicrodumpWriter::DumpGPUInformation()
PUBLIC 2e9a2 0 (anonymous namespace)::MicrodumpWriter::DumpThreadStack()
PUBLIC 2eb4c 0 (anonymous namespace)::MicrodumpWriter::DumpCPUState()
PUBLIC 2ebe4 0 (anonymous namespace)::MicrodumpWriter::HaveMappingInfo(google_breakpad::MappingInfo const&)
PUBLIC 2ecc2 0 (anonymous namespace)::MicrodumpWriter::DumpModule(google_breakpad::MappingInfo const&, bool, unsigned int, unsigned char const*)
PUBLIC 2f07e 0 (anonymous namespace)::MicrodumpWriter::DumpMappings()
PUBLIC 2f1ee 0 (anonymous namespace)::MicrodumpWriter::Alloc(unsigned int)
PUBLIC 2f223 0 google_breakpad::WriteMicrodump(int, void const*, unsigned long, std::__cxx11::list<google_breakpad::MappingEntry, std::allocator<google_breakpad::MappingEntry> > const&, bool, unsigned long, bool, google_breakpad::MicrodumpExtraInfo const&)
PUBLIC 2f3a8 0 void (anonymous namespace)::MicrodumpWriter::LogAppend<unsigned char>(unsigned char)
PUBLIC 2f40e 0 void (anonymous namespace)::MicrodumpWriter::LogAppend<int>(int)
PUBLIC 2f46e 0 void (anonymous namespace)::MicrodumpWriter::LogAppend<unsigned long>(unsigned long)
PUBLIC 2f4d2 0 void (anonymous namespace)::MicrodumpWriter::LogAppend<unsigned int>(unsigned int)
PUBLIC 2f532 0 void (anonymous namespace)::MicrodumpWriter::LogAppend<unsigned short>(unsigned short)
PUBLIC 2f59e 0 buggyFunc()
PUBLIC 2f5c2 0 isSingleInstanceRunning(QString)
PUBLIC 2f6d7 0 startSingleInstanceServer(QString)
PUBLIC 2f764 0 main::{lambda()#1}::operator()() const
PUBLIC 2f79e 0 main::{lambda()#2}::operator()() const
PUBLIC 2f7d8 0 main
PUBLIC 3080e 0 QtPrivate::RefCount::ref()
PUBLIC 30850 0 QString::operator=(QString&&)
PUBLIC 3087a 0 QString::operator+=(QString const&)
PUBLIC 3089f 0 QString::fromUtf8(char const*, int)
PUBLIC 308e8 0 QString::QString(char const*)
PUBLIC 30930 0 QString::QString(QStringDataPtr)
PUBLIC 3094a 0 QString::length() const
PUBLIC 3095e 0 QString::constData() const
PUBLIC 3097c 0 QString::QString(QString const&)
PUBLIC 309ac 0 QString::~QString()
PUBLIC 309e0 0 operator+(QString const&, char const*)
PUBLIC 30a77 0 operator+(char const*, QString const&)
PUBLIC 30ade 0 QtSharedPointer::ExternalRefCountData::~ExternalRefCountData()
PUBLIC 30aea 0 QtSharedPointer::ExternalRefCountData::destroy()
PUBLIC 30b0a 0 QtSharedPointer::ExternalRefCountData::operator delete(void*)
PUBLIC 30b26 0 QFlags<QIODevice::OpenModeFlag>::QFlags(QIODevice::OpenModeFlag)
PUBLIC 30b3e 0 QDebug::maybeSpace()
PUBLIC 30b74 0 QDebug::operator<<(char const*)
PUBLIC 30bf2 0 QDebug::operator<<(QString const&)
PUBLIC 30c46 0 QFlags<QLocalServer::SocketOption>::QFlags(QLocalServer::SocketOption)
PUBLIC 30c5e 0 CuteMessageLogger::CuteMessageLogger(Logger*, Logger::LogLevel, char const*, int, char const*)
PUBLIC 30cc0 0 std::exception::exception(std::exception const&)
PUBLIC 30ce2 0 AutomationStudio::setCoreApplication(QCoreApplication*)
PUBLIC 30d28 0 QBasicAtomicInteger<int>::ref()
PUBLIC 30d42 0 void qSwap<QTypedArrayData<unsigned short>*>(QTypedArrayData<unsigned short>*&, QTypedArrayData<unsigned short>*&)
PUBLIC 30d68 0 QTypedArrayData<unsigned short>::data()
PUBLIC 30d82 0 QTypedArrayData<unsigned short>::deallocate(QArrayData*)
PUBLIC 30da8 0 QStaticStringData<21>::data_ptr() const
PUBLIC 30db6 0 QSharedPointer<AutomationStudio>::~QSharedPointer()
PUBLIC 30dd2 0 QSharedPointer<AutomationStudio>::operator->() const
PUBLIC 30dec 0 QStaticStringData<13>::data_ptr() const
PUBLIC 30dfa 0 bool QAtomicOps<int>::ref<int>(std::atomic<int>&)
PUBLIC 30e19 0 std::remove_reference<QTypedArrayData<unsigned short>*&>::type&& std::move<QTypedArrayData<unsigned short>*&>(QTypedArrayData<unsigned short>*&)
PUBLIC 30e27 0 std::enable_if<std::__and_<std::is_move_constructible<QTypedArrayData<unsigned short>*>, std::is_move_assignable<QTypedArrayData<unsigned short>*> >::value, void>::type std::swap<QTypedArrayData<unsigned short>*>(QTypedArrayData<unsigned short>*&, QTypedArrayData<unsigned short>*&)
PUBLIC 30e7a 0 QSharedPointer<AutomationStudio>::deref()
PUBLIC 30e9a 0 QSharedPointer<AutomationStudio>::data() const
PUBLIC 30eac 0 std::__atomic_base<int>::operator++()
PUBLIC 30ec6 0 QSharedPointer<AutomationStudio>::deref(QtSharedPointer::ExternalRefCountData*)
PUBLIC 30f34 0 AutomationStudio::AutomationStudio(QQmlApplicationEngine*, QObject*)::{lambda()#1}::operator()() const
PUBLIC 30ff6 0 AutomationStudio::AutomationStudio(QQmlApplicationEngine*, QObject*)
PUBLIC 3140c 0 AutomationStudio::~AutomationStudio()
PUBLIC 314a6 0 AutomationStudio::~AutomationStudio()
PUBLIC 314d2 0 AutomationStudio::create(int, char const* const*, QQmlApplicationEngine*, QObject*)
PUBLIC 3154a 0 AutomationStudio::solveImportPaths()
PUBLIC 31664 0 AutomationStudio::loadPlugins()
PUBLIC 31c9a 0 AutomationStudio::loadQml(QUrl const&)
PUBLIC 31cc4 0 AutomationStudio::loadInternalPlugins()
PUBLIC 3205d 0 std::remove_reference<AutomationStudio::AutomationStudio(QQmlApplicationEngine*, QObject*)::{lambda()#1}&>::type&& std::move<AutomationStudio::AutomationStudio(QQmlApplicationEngine*, QObject*)::{lambda()#1}&>(std::remove_reference&&)
PUBLIC 3206b 0 std::enable_if<QtPrivate::FunctionPointer<AutomationStudio::AutomationStudio(QQmlApplicationEngine*, QObject*)::{lambda()#1}>::ArgumentCount==(-1), QMetaObject::Connection>::type QObject::connect<void (Settings::*)(), AutomationStudio::AutomationStudio(QQmlApplicationEngine*, QObject*)::{lambda()#1}>(QtPrivate<void (Settings::*)()>::Object const*, std::enable_if<QtPrivate::FunctionPointer<AutomationStudio::AutomationStudio(QQmlApplicationEngine*, QObject*)::{lambda()#1}>::ArgumentCount==(-1), QMetaObject::Connection>::type, QObject const*, QtPrivate::FunctionPointer, Qt::ConnectionType)
PUBLIC 32128 0 QtPrivate::QFunctorSlotObject<AutomationStudio::AutomationStudio(QQmlApplicationEngine*, QObject*)::{lambda()#1}, 0, QtPrivate::List<>, void>::QFunctorSlotObject({lambda()#1})
PUBLIC 32168 0 QtPrivate::QFunctorSlotObject<AutomationStudio::AutomationStudio(QQmlApplicationEngine*, QObject*)::{lambda()#1}, 0, QtPrivate::List<>, void>::~QFunctorSlotObject()
PUBLIC 32183 0 QtPrivate::QFunctorSlotObject<AutomationStudio::AutomationStudio(QQmlApplicationEngine*, QObject*)::{lambda()#1}, 0, QtPrivate::List<>, void>::impl(int, QtPrivate::QSlotObjectBase*, QObject*, void**, bool*)
PUBLIC 321f3 0 void QtPrivate::Functor<AutomationStudio::AutomationStudio(QQmlApplicationEngine*, QObject*)::{lambda()#1}, 0>::call<QtPrivate::List<>, void>({lambda()#1}&, void*, {lambda()#1}&*)
PUBLIC 3221d 0 QtPrivate::FunctorCall<QtPrivate::IndexesList<>, QtPrivate::List<>, void, AutomationStudio::AutomationStudio(QQmlApplicationEngine*, QObject*)::{lambda()#1}>::call({lambda()#1}&, void**)
PUBLIC 32252 0 __static_initialization_and_destruction_0(int, int)
PUBLIC 3229b 0 _GLOBAL__sub_I_automationstudio.cpp
PUBLIC 322b0 0 QFlag::QFlag(int)
PUBLIC 322c8 0 QFlag::operator int() const
PUBLIC 322d8 0 QFlag::QFlag(unsigned int)
PUBLIC 322f0 0 QFlag::operator unsigned int() const
PUBLIC 32300 0 std::__atomic_base<int>::__atomic_base(int)
PUBLIC 32318 0 std::atomic<int>::atomic(int)
PUBLIC 3233c 0 QBasicAtomicInteger<int>::QBasicAtomicInteger(int)
PUBLIC 32360 0 QAtomicInteger<int>::QAtomicInteger(int)
PUBLIC 32384 0 QAtomicInt::QAtomicInt(int)
PUBLIC 323a8 0 QtPrivate::RefCount::isShared() const
PUBLIC 323de 0 QFlags<QArrayData::AllocationOption>::operator|=(QArrayData::AllocationOption)
PUBLIC 32400 0 QArrayData::detachFlags() const
PUBLIC 32438 0 QArrayData::sharedNull()
PUBLIC 32446 0 QFlags<QArrayData::AllocationOption>::QFlags(QFlag)
PUBLIC 3246c 0 QFlags<QArrayData::AllocationOption>::operator|(QArrayData::AllocationOption) const
PUBLIC 324aa 0 QByteArray::QByteArray()
PUBLIC 324c8 0 QByteArray::size() const
PUBLIC 324dc 0 unsigned int const& qMax<unsigned int>(unsigned int const&, unsigned int const&)
PUBLIC 32504 0 QByteArray::reserve(int)
PUBLIC 325ce 0 QString::QString()
PUBLIC 325ec 0 int const& qMax<int>(int const&, int const&)
PUBLIC 32614 0 QtPrivate::QSlotObjectBase::QSlotObjectBase(void (*)(int, QtPrivate::QSlotObjectBase*, QObject*, void**, bool*))
PUBLIC 32644 0 QtPrivate::QSlotObjectBase::~QSlotObjectBase()
PUBLIC 32650 0 QListData::dispose()
PUBLIC 3266e 0 QListData::size() const
PUBLIC 32690 0 QListData::at(int) const
PUBLIC 326c4 0 QListData::begin() const
PUBLIC 326ec 0 QListData::end() const
PUBLIC 32714 0 QListSpecialMethods<QString>::~QListSpecialMethods()
PUBLIC 32720 0 QStringList::QStringList()
PUBLIC 3273c 0 QStringList::~QStringList()
PUBLIC 32758 0 QStringList::QStringList(QStringList&&)
PUBLIC 3277e 0 QStringList::operator<<(QString const&)
PUBLIC 327a7 0 QtPrivate::ConnectionTypes<QtPrivate::List<>, true>::types()
PUBLIC 327b2 0 std::__atomic_base<int>::__atomic_base()
PUBLIC 327be 0 std::atomic<int>::atomic()
PUBLIC 327da 0 QBasicAtomicInteger<int>::QBasicAtomicInteger()
PUBLIC 327f6 0 QtSharedPointer::ExternalRefCountData::ExternalRefCountData(void (*)(QtSharedPointer::ExternalRefCountData*))
PUBLIC 32858 0 QDebug::QDebug(QDebug const&)
PUBLIC 32885 0 QCoreApplication::instance()
PUBLIC 32896 0 AutomationStudio::coreApplication() const
PUBLIC 328a8 0 AutomationStudio::setReleaseVersion(QString)
PUBLIC 32946 0 AutomationStudio::setBuildInfo(QString)
PUBLIC 329e4 0 AutomationStudio::dir() const
PUBLIC 329f6 0 QFlags<QDir::Filter>::QFlags(QDir::Filter)
PUBLIC 32a0e 0 QFlags<QDir::Filter>::QFlags(QFlag)
PUBLIC 32a34 0 QFlags<QDir::SortFlag>::QFlags(QDir::SortFlag)
PUBLIC 32a4c 0 QFlags<QDir::Filter>::operator|(QDir::Filter) const
PUBLIC 32a8a 0 operator|(QDir::Filter, QDir::Filter)
PUBLIC 32abc 0 QtPrivate::QForeachContainer<QStringList>::~QForeachContainer()
PUBLIC 32ad8 0 QBasicAtomicInteger<int>::store(int)
PUBLIC 32afb 0 QTypedArrayData<char>::sharedNull()
PUBLIC 32b06 0 QTypedArrayData<unsigned short>::sharedNull()
PUBLIC 32b12 0 QListSpecialMethods<QString>::QListSpecialMethods()
PUBLIC 32b1e 0 QList<QString>::QList()
PUBLIC 32b48 0 QList<QString>::~QList()
PUBLIC 32b90 0 QList<QString>::append(QString const&)
PUBLIC 32c88 0 QList<QString>::QList(QList<QString>&&)
PUBLIC 32cc4 0 QBasicAtomicInteger<int>::loadAcquire() const
PUBLIC 32cde 0 QBasicAtomicInteger<int>::storeRelease(int)
PUBLIC 32d02 0 QList<QString>::operator[](int)
PUBLIC 32d38 0 QSharedPointer<AutomationStudio>::QSharedPointer<AutomationStudio>(AutomationStudio*)
PUBLIC 32d72 0 QList<QString>::removeAll(QString const&)
PUBLIC 32ed0 0 QStringList&& std::forward<QStringList>(std::remove_reference<QStringList>::type&)
PUBLIC 32ede 0 QtPrivate::QForeachContainer<std::decay<QStringList>::type> QtPrivate::qMakeForeachContainer<QStringList>(QStringList&&)
PUBLIC 32f12 0 std::remove_reference<QStringList&>::type&& std::move<QStringList&>(QStringList&)
PUBLIC 32f20 0 std::add_const<QStringList>::type& qAsConst<QStringList>(QStringList&)
PUBLIC 32f2e 0 QList<QString>::const_iterator::operator!=(QList<QString>::const_iterator const&) const
PUBLIC 32f50 0 QList<QString>::const_iterator::operator++()
PUBLIC 32f70 0 QList<QString>::const_iterator::operator*() const
PUBLIC 32f8e 0 QQmlPrivate::RegisterType::~RegisterType()
PUBLIC 32fad 0 int qmlRegisterUncreatableType<AutomationStudio>(char const*, int, int, char const*, QString const&)
PUBLIC 33314 0 int qmlRegisterUncreatableType<QCoreApplication>(char const*, int, int, char const*, QString const&)
PUBLIC 3367b 0 int qmlRegisterUncreatableType<Settings>(char const*, int, int, char const*, QString const&)
PUBLIC 339e2 0 int qmlRegisterUncreatableType<Utilities>(char const*, int, int, char const*, QString const&)
PUBLIC 33d49 0 int qmlRegisterUncreatableType<SystemSettings>(char const*, int, int, char const*, QString const&)
PUBLIC 340b0 0 int qmlRegisterUncreatableType<SocketIO>(char const*, int, int, char const*, QString const&)
PUBLIC 34417 0 int qmlRegisterUncreatableType<AppUpdater>(char const*, int, int, char const*, QString const&)
PUBLIC 3477e 0 void QAtomicOps<int>::store<int>(std::atomic<int>&, int)
PUBLIC 347c4 0 QList<QString>::dealloc(QListData::Data*)
PUBLIC 34822 0 QList<QString>::detach_helper_grow(int, int)
PUBLIC 349f8 0 QList<QString>::node_construct(QList<QString>::Node*, QString const&)
PUBLIC 34a34 0 QList<QString>::node_destruct(QList<QString>::Node*)
PUBLIC 34a54 0 QList<QString>::node_copy(QList<QString>::Node*, QList<QString>::Node*, QList<QString>::Node*)
PUBLIC 34ab2 0 int QAtomicOps<int>::loadAcquire<int>(std::atomic<int> const&)
PUBLIC 34ae8 0 QFlags<QMetaType::TypeFlag>::operator|=(QMetaType::TypeFlag)
PUBLIC 34b0a 0 void QAtomicOps<int>::storeRelease<int>(std::atomic<int>&, int)
PUBLIC 34b50 0 QList<QString>::detach()
PUBLIC 34b7e 0 QList<QString>::Node::t()
PUBLIC 34b8c 0 void QSharedPointer<AutomationStudio>::internalConstruct<AutomationStudio, QtSharedPointer::NormalDeleter>(AutomationStudio*, QtSharedPointer::NormalDeleter)
PUBLIC 34c1a 0 QList<QString>::indexOf(QString const&, int) const
PUBLIC 34d06 0 QtPrivate::QForeachContainer<QStringList>::QForeachContainer(QStringList&&)
PUBLIC 34d86 0 QList<QString>::begin() const
PUBLIC 34dba 0 QList<QString>::end() const
PUBLIC 34dee 0 QVarLengthArray<char, 48>::QVarLengthArray(int)
PUBLIC 34e6e 0 QVarLengthArray<char, 48>::~QVarLengthArray()
PUBLIC 34ea2 0 QVarLengthArray<char, 48>::data()
PUBLIC 34eb4 0 QVarLengthArray<char, 48>::operator[](int)
PUBLIC 34ed2 0 QVarLengthArray<char, 64>::QVarLengthArray(int)
PUBLIC 34f52 0 QVarLengthArray<char, 64>::~QVarLengthArray()
PUBLIC 34f86 0 QVarLengthArray<char, 64>::data()
PUBLIC 34f98 0 QVarLengthArray<char, 64>::operator[](int)
PUBLIC 34fb6 0 QVarLengthArray<char, 48>::constData() const
PUBLIC 34fc8 0 QMetaTypeId2<AutomationStudio*>::qt_metatype_id()
PUBLIC 34fd3 0 QtPrivate::QMetaTypeIdHelper<AutomationStudio*, true>::qt_metatype_id()
PUBLIC 34fde 0 int qRegisterNormalizedMetaType<AutomationStudio*>(QByteArray const&, AutomationStudio**, QtPrivate::MetaTypeDefinedHelper<AutomationStudio*, QMetaTypeId2<AutomationStudio*>::Defined&&(!QMetaTypeId2<AutomationStudio*>::IsBuiltIn)>::DefinedType)
PUBLIC 350a8 0 QVarLengthArray<char, 64>::constData() const
PUBLIC 350ba 0 QtPrivate::QMetaTypeIdHelper<QQmlListProperty<AutomationStudio>, false>::qt_metatype_id()
PUBLIC 350c5 0 int qRegisterNormalizedMetaType<QQmlListProperty<AutomationStudio> >(QByteArray const&, QQmlListProperty<AutomationStudio>*, QtPrivate::MetaTypeDefinedHelper<QQmlListProperty<AutomationStudio>, QMetaTypeId2<QQmlListProperty<AutomationStudio> >::Defined&&(!QMetaTypeId2<QQmlListProperty<AutomationStudio> >::IsBuiltIn)>::DefinedType)
PUBLIC 3518e 0 QObject* (*QQmlPrivate::attachedPropertiesFunc<AutomationStudio>())(QObject*)
PUBLIC 35199 0 QMetaObject const* QQmlPrivate::attachedPropertiesMetaObject<AutomationStudio>()
PUBLIC 351a4 0 QQmlPrivate::StaticCastSelector<AutomationStudio, QQmlParserStatus>::cast()
PUBLIC 351af 0 QQmlPrivate::StaticCastSelector<AutomationStudio, QQmlPropertyValueSource>::cast()
PUBLIC 351ba 0 QQmlPrivate::StaticCastSelector<AutomationStudio, QQmlPropertyValueInterceptor>::cast()
PUBLIC 351c5 0 QMetaTypeId2<QCoreApplication*>::qt_metatype_id()
PUBLIC 351d0 0 QtPrivate::QMetaTypeIdHelper<QCoreApplication*, true>::qt_metatype_id()
PUBLIC 351db 0 int qRegisterNormalizedMetaType<QCoreApplication*>(QByteArray const&, QCoreApplication**, QtPrivate::MetaTypeDefinedHelper<QCoreApplication*, QMetaTypeId2<QCoreApplication*>::Defined&&(!QMetaTypeId2<QCoreApplication*>::IsBuiltIn)>::DefinedType)
PUBLIC 352a4 0 QtPrivate::QMetaTypeIdHelper<QQmlListProperty<QCoreApplication>, false>::qt_metatype_id()
PUBLIC 352af 0 int qRegisterNormalizedMetaType<QQmlListProperty<QCoreApplication> >(QByteArray const&, QQmlListProperty<QCoreApplication>*, QtPrivate::MetaTypeDefinedHelper<QQmlListProperty<QCoreApplication>, QMetaTypeId2<QQmlListProperty<QCoreApplication> >::Defined&&(!QMetaTypeId2<QQmlListProperty<QCoreApplication> >::IsBuiltIn)>::DefinedType)
PUBLIC 35378 0 QObject* (*QQmlPrivate::attachedPropertiesFunc<QCoreApplication>())(QObject*)
PUBLIC 35383 0 QMetaObject const* QQmlPrivate::attachedPropertiesMetaObject<QCoreApplication>()
PUBLIC 3538e 0 QQmlPrivate::StaticCastSelector<QCoreApplication, QQmlParserStatus>::cast()
PUBLIC 35399 0 QQmlPrivate::StaticCastSelector<QCoreApplication, QQmlPropertyValueSource>::cast()
PUBLIC 353a4 0 QQmlPrivate::StaticCastSelector<QCoreApplication, QQmlPropertyValueInterceptor>::cast()
PUBLIC 353af 0 QMetaTypeId2<Settings*>::qt_metatype_id()
PUBLIC 353ba 0 QtPrivate::QMetaTypeIdHelper<Settings*, true>::qt_metatype_id()
PUBLIC 353c5 0 int qRegisterNormalizedMetaType<Settings*>(QByteArray const&, Settings**, QtPrivate::MetaTypeDefinedHelper<Settings*, QMetaTypeId2<Settings*>::Defined&&(!QMetaTypeId2<Settings*>::IsBuiltIn)>::DefinedType)
PUBLIC 3548e 0 QtPrivate::QMetaTypeIdHelper<QQmlListProperty<Settings>, false>::qt_metatype_id()
PUBLIC 35499 0 int qRegisterNormalizedMetaType<QQmlListProperty<Settings> >(QByteArray const&, QQmlListProperty<Settings>*, QtPrivate::MetaTypeDefinedHelper<QQmlListProperty<Settings>, QMetaTypeId2<QQmlListProperty<Settings> >::Defined&&(!QMetaTypeId2<QQmlListProperty<Settings> >::IsBuiltIn)>::DefinedType)
PUBLIC 35562 0 QObject* (*QQmlPrivate::attachedPropertiesFunc<Settings>())(QObject*)
PUBLIC 3556d 0 QMetaObject const* QQmlPrivate::attachedPropertiesMetaObject<Settings>()
PUBLIC 35578 0 QQmlPrivate::StaticCastSelector<Settings, QQmlParserStatus>::cast()
PUBLIC 35583 0 QQmlPrivate::StaticCastSelector<Settings, QQmlPropertyValueSource>::cast()
PUBLIC 3558e 0 QQmlPrivate::StaticCastSelector<Settings, QQmlPropertyValueInterceptor>::cast()
PUBLIC 35599 0 QMetaTypeId2<Utilities*>::qt_metatype_id()
PUBLIC 355a4 0 QtPrivate::QMetaTypeIdHelper<Utilities*, true>::qt_metatype_id()
PUBLIC 355af 0 int qRegisterNormalizedMetaType<Utilities*>(QByteArray const&, Utilities**, QtPrivate::MetaTypeDefinedHelper<Utilities*, QMetaTypeId2<Utilities*>::Defined&&(!QMetaTypeId2<Utilities*>::IsBuiltIn)>::DefinedType)
PUBLIC 35678 0 QtPrivate::QMetaTypeIdHelper<QQmlListProperty<Utilities>, false>::qt_metatype_id()
PUBLIC 35683 0 int qRegisterNormalizedMetaType<QQmlListProperty<Utilities> >(QByteArray const&, QQmlListProperty<Utilities>*, QtPrivate::MetaTypeDefinedHelper<QQmlListProperty<Utilities>, QMetaTypeId2<QQmlListProperty<Utilities> >::Defined&&(!QMetaTypeId2<QQmlListProperty<Utilities> >::IsBuiltIn)>::DefinedType)
PUBLIC 3574c 0 QObject* (*QQmlPrivate::attachedPropertiesFunc<Utilities>())(QObject*)
PUBLIC 35757 0 QMetaObject const* QQmlPrivate::attachedPropertiesMetaObject<Utilities>()
PUBLIC 35762 0 QQmlPrivate::StaticCastSelector<Utilities, QQmlParserStatus>::cast()
PUBLIC 3576d 0 QQmlPrivate::StaticCastSelector<Utilities, QQmlPropertyValueSource>::cast()
PUBLIC 35778 0 QQmlPrivate::StaticCastSelector<Utilities, QQmlPropertyValueInterceptor>::cast()
PUBLIC 35783 0 QMetaTypeId2<SystemSettings*>::qt_metatype_id()
PUBLIC 3578e 0 QtPrivate::QMetaTypeIdHelper<SystemSettings*, true>::qt_metatype_id()
PUBLIC 35799 0 int qRegisterNormalizedMetaType<SystemSettings*>(QByteArray const&, SystemSettings**, QtPrivate::MetaTypeDefinedHelper<SystemSettings*, QMetaTypeId2<SystemSettings*>::Defined&&(!QMetaTypeId2<SystemSettings*>::IsBuiltIn)>::DefinedType)
PUBLIC 35862 0 QtPrivate::QMetaTypeIdHelper<QQmlListProperty<SystemSettings>, false>::qt_metatype_id()
PUBLIC 3586d 0 int qRegisterNormalizedMetaType<QQmlListProperty<SystemSettings> >(QByteArray const&, QQmlListProperty<SystemSettings>*, QtPrivate::MetaTypeDefinedHelper<QQmlListProperty<SystemSettings>, QMetaTypeId2<QQmlListProperty<SystemSettings> >::Defined&&(!QMetaTypeId2<QQmlListProperty<SystemSettings> >::IsBuiltIn)>::DefinedType)
PUBLIC 35936 0 QObject* (*QQmlPrivate::attachedPropertiesFunc<SystemSettings>())(QObject*)
PUBLIC 35941 0 QMetaObject const* QQmlPrivate::attachedPropertiesMetaObject<SystemSettings>()
PUBLIC 3594c 0 QQmlPrivate::StaticCastSelector<SystemSettings, QQmlParserStatus>::cast()
PUBLIC 35957 0 QQmlPrivate::StaticCastSelector<SystemSettings, QQmlPropertyValueSource>::cast()
PUBLIC 35962 0 QQmlPrivate::StaticCastSelector<SystemSettings, QQmlPropertyValueInterceptor>::cast()
PUBLIC 3596d 0 QMetaTypeId2<SocketIO*>::qt_metatype_id()
PUBLIC 35978 0 QtPrivate::QMetaTypeIdHelper<SocketIO*, true>::qt_metatype_id()
PUBLIC 35983 0 int qRegisterNormalizedMetaType<SocketIO*>(QByteArray const&, SocketIO**, QtPrivate::MetaTypeDefinedHelper<SocketIO*, QMetaTypeId2<SocketIO*>::Defined&&(!QMetaTypeId2<SocketIO*>::IsBuiltIn)>::DefinedType)
PUBLIC 35a4c 0 QtPrivate::QMetaTypeIdHelper<QQmlListProperty<SocketIO>, false>::qt_metatype_id()
PUBLIC 35a57 0 int qRegisterNormalizedMetaType<QQmlListProperty<SocketIO> >(QByteArray const&, QQmlListProperty<SocketIO>*, QtPrivate::MetaTypeDefinedHelper<QQmlListProperty<SocketIO>, QMetaTypeId2<QQmlListProperty<SocketIO> >::Defined&&(!QMetaTypeId2<QQmlListProperty<SocketIO> >::IsBuiltIn)>::DefinedType)
PUBLIC 35b20 0 QObject* (*QQmlPrivate::attachedPropertiesFunc<SocketIO>())(QObject*)
PUBLIC 35b2b 0 QMetaObject const* QQmlPrivate::attachedPropertiesMetaObject<SocketIO>()
PUBLIC 35b36 0 QQmlPrivate::StaticCastSelector<SocketIO, QQmlParserStatus>::cast()
PUBLIC 35b41 0 QQmlPrivate::StaticCastSelector<SocketIO, QQmlPropertyValueSource>::cast()
PUBLIC 35b4c 0 QQmlPrivate::StaticCastSelector<SocketIO, QQmlPropertyValueInterceptor>::cast()
PUBLIC 35b57 0 QMetaTypeId2<AppUpdater*>::qt_metatype_id()
PUBLIC 35b62 0 QtPrivate::QMetaTypeIdHelper<AppUpdater*, true>::qt_metatype_id()
PUBLIC 35b6d 0 int qRegisterNormalizedMetaType<AppUpdater*>(QByteArray const&, AppUpdater**, QtPrivate::MetaTypeDefinedHelper<AppUpdater*, QMetaTypeId2<AppUpdater*>::Defined&&(!QMetaTypeId2<AppUpdater*>::IsBuiltIn)>::DefinedType)
PUBLIC 35c36 0 QtPrivate::QMetaTypeIdHelper<QQmlListProperty<AppUpdater>, false>::qt_metatype_id()
PUBLIC 35c41 0 int qRegisterNormalizedMetaType<QQmlListProperty<AppUpdater> >(QByteArray const&, QQmlListProperty<AppUpdater>*, QtPrivate::MetaTypeDefinedHelper<QQmlListProperty<AppUpdater>, QMetaTypeId2<QQmlListProperty<AppUpdater> >::Defined&&(!QMetaTypeId2<QQmlListProperty<AppUpdater> >::IsBuiltIn)>::DefinedType)
PUBLIC 35d0a 0 QObject* (*QQmlPrivate::attachedPropertiesFunc<AppUpdater>())(QObject*)
PUBLIC 35d15 0 QMetaObject const* QQmlPrivate::attachedPropertiesMetaObject<AppUpdater>()
PUBLIC 35d20 0 QQmlPrivate::StaticCastSelector<AppUpdater, QQmlParserStatus>::cast()
PUBLIC 35d2b 0 QQmlPrivate::StaticCastSelector<AppUpdater, QQmlPropertyValueSource>::cast()
PUBLIC 35d36 0 QQmlPrivate::StaticCastSelector<AppUpdater, QQmlPropertyValueInterceptor>::cast()
PUBLIC 35d42 0 QList<QString>::node_destruct(QList<QString>::Node*, QList<QString>::Node*)
PUBLIC 35d76 0 QList<QString>::detach_helper(int)
PUBLIC 35e0e 0 QList<QString>::detach_helper()
PUBLIC 35e35 0 QtSharedPointer::ExternalRefCountWithCustomDeleter<AutomationStudio, QtSharedPointer::NormalDeleter>::deleter(QtSharedPointer::ExternalRefCountData*)
PUBLIC 35e5c 0 QtSharedPointer::ExternalRefCountWithCustomDeleter<AutomationStudio, QtSharedPointer::NormalDeleter>::create(AutomationStudio*, QtSharedPointer::NormalDeleter, void (*)(QtSharedPointer::ExternalRefCountData*))
PUBLIC 35ee4 0 QSharedPointer<AutomationStudio>::enableSharedFromThis(...)
PUBLIC 35f3e 0 QList<QString>::const_iterator::const_iterator(QList<QString>::Node*)
PUBLIC 35f58 0 QMetaTypeIdQObject<AutomationStudio*, 8>::qt_metatype_id()
PUBLIC 36040 0 QtMetaTypePrivate::QMetaTypeFunctionHelper<AutomationStudio*, true>::Destruct(void*)
PUBLIC 3604b 0 QtMetaTypePrivate::QMetaTypeFunctionHelper<AutomationStudio*, true>::Construct(void*, void const*)
PUBLIC 36097 0 QtPrivate::MetaObjectForType<AutomationStudio*, void>::value()
PUBLIC 360a4 0 QtPrivate::SequentialContainerConverterHelper<AutomationStudio*, false>::registerConverter(int)
PUBLIC 360b2 0 QtPrivate::AssociativeContainerConverterHelper<AutomationStudio*, false>::registerConverter(int)
PUBLIC 360c0 0 QtPrivate::IsPair<AutomationStudio*>::registerConverter(int)
PUBLIC 360ce 0 QtPrivate::MetaTypeSmartPointerHelper<AutomationStudio*, void>::registerConverter(int)
PUBLIC 360dc 0 QtMetaTypePrivate::QMetaTypeFunctionHelper<QQmlListProperty<AutomationStudio>, true>::Destruct(void*)
PUBLIC 360e7 0 QtMetaTypePrivate::QMetaTypeFunctionHelper<QQmlListProperty<AutomationStudio>, true>::Construct(void*, void const*)
PUBLIC 36188 0 QtPrivate::MetaObjectForType<QQmlListProperty<AutomationStudio>, void>::value()
PUBLIC 36193 0 QtPrivate::SequentialContainerConverterHelper<QQmlListProperty<AutomationStudio>, false>::registerConverter(int)
PUBLIC 361a1 0 QtPrivate::AssociativeContainerConverterHelper<QQmlListProperty<AutomationStudio>, false>::registerConverter(int)
PUBLIC 361af 0 QtPrivate::IsPair<QQmlListProperty<AutomationStudio> >::registerConverter(int)
PUBLIC 361bd 0 QtPrivate::MetaTypeSmartPointerHelper<QQmlListProperty<AutomationStudio>, void>::registerConverter(int)
PUBLIC 361cb 0 QQmlPrivate::AttachedPropertySelector<AutomationStudio, 0>::func()
PUBLIC 361d6 0 QQmlPrivate::AttachedPropertySelector<AutomationStudio, 0>::metaObject()
PUBLIC 361e1 0 QQmlPrivate::StaticCastSelectorClass<AutomationStudio, QQmlParserStatus, 1>::cast()
PUBLIC 361ec 0 QQmlPrivate::StaticCastSelectorClass<AutomationStudio, QQmlPropertyValueSource, 1>::cast()
PUBLIC 361f7 0 QQmlPrivate::StaticCastSelectorClass<AutomationStudio, QQmlPropertyValueInterceptor, 1>::cast()
PUBLIC 36202 0 QMetaTypeIdQObject<QCoreApplication*, 8>::qt_metatype_id()
PUBLIC 362ea 0 QtMetaTypePrivate::QMetaTypeFunctionHelper<QCoreApplication*, true>::Destruct(void*)
PUBLIC 362f5 0 QtMetaTypePrivate::QMetaTypeFunctionHelper<QCoreApplication*, true>::Construct(void*, void const*)
PUBLIC 36341 0 QtPrivate::MetaObjectForType<QCoreApplication*, void>::value()
PUBLIC 3634e 0 QtPrivate::SequentialContainerConverterHelper<QCoreApplication*, false>::registerConverter(int)
PUBLIC 3635c 0 QtPrivate::AssociativeContainerConverterHelper<QCoreApplication*, false>::registerConverter(int)
PUBLIC 3636a 0 QtPrivate::IsPair<QCoreApplication*>::registerConverter(int)
PUBLIC 36378 0 QtPrivate::MetaTypeSmartPointerHelper<QCoreApplication*, void>::registerConverter(int)
PUBLIC 36386 0 QtMetaTypePrivate::QMetaTypeFunctionHelper<QQmlListProperty<QCoreApplication>, true>::Destruct(void*)
PUBLIC 36391 0 QtMetaTypePrivate::QMetaTypeFunctionHelper<QQmlListProperty<QCoreApplication>, true>::Construct(void*, void const*)
PUBLIC 36432 0 QtPrivate::MetaObjectForType<QQmlListProperty<QCoreApplication>, void>::value()
PUBLIC 3643d 0 QtPrivate::SequentialContainerConverterHelper<QQmlListProperty<QCoreApplication>, false>::registerConverter(int)
PUBLIC 3644b 0 QtPrivate::AssociativeContainerConverterHelper<QQmlListProperty<QCoreApplication>, false>::registerConverter(int)
PUBLIC 36459 0 QtPrivate::IsPair<QQmlListProperty<QCoreApplication> >::registerConverter(int)
PUBLIC 36467 0 QtPrivate::MetaTypeSmartPointerHelper<QQmlListProperty<QCoreApplication>, void>::registerConverter(int)
PUBLIC 36475 0 QQmlPrivate::AttachedPropertySelector<QCoreApplication, 0>::func()
PUBLIC 36480 0 QQmlPrivate::AttachedPropertySelector<QCoreApplication, 0>::metaObject()
PUBLIC 3648b 0 QQmlPrivate::StaticCastSelectorClass<QCoreApplication, QQmlParserStatus, 1>::cast()
PUBLIC 36496 0 QQmlPrivate::StaticCastSelectorClass<QCoreApplication, QQmlPropertyValueSource, 1>::cast()
PUBLIC 364a1 0 QQmlPrivate::StaticCastSelectorClass<QCoreApplication, QQmlPropertyValueInterceptor, 1>::cast()
PUBLIC 364ac 0 QMetaTypeIdQObject<Settings*, 8>::qt_metatype_id()
PUBLIC 36594 0 QtMetaTypePrivate::QMetaTypeFunctionHelper<Settings*, true>::Destruct(void*)
PUBLIC 3659f 0 QtMetaTypePrivate::QMetaTypeFunctionHelper<Settings*, true>::Construct(void*, void const*)
PUBLIC 365eb 0 QtPrivate::MetaObjectForType<Settings*, void>::value()
PUBLIC 365f8 0 QtPrivate::SequentialContainerConverterHelper<Settings*, false>::registerConverter(int)
PUBLIC 36606 0 QtPrivate::AssociativeContainerConverterHelper<Settings*, false>::registerConverter(int)
PUBLIC 36614 0 QtPrivate::IsPair<Settings*>::registerConverter(int)
PUBLIC 36622 0 QtPrivate::MetaTypeSmartPointerHelper<Settings*, void>::registerConverter(int)
PUBLIC 36630 0 QtMetaTypePrivate::QMetaTypeFunctionHelper<QQmlListProperty<Settings>, true>::Destruct(void*)
PUBLIC 3663b 0 QtMetaTypePrivate::QMetaTypeFunctionHelper<QQmlListProperty<Settings>, true>::Construct(void*, void const*)
PUBLIC 366dc 0 QtPrivate::MetaObjectForType<QQmlListProperty<Settings>, void>::value()
PUBLIC 366e7 0 QtPrivate::SequentialContainerConverterHelper<QQmlListProperty<Settings>, false>::registerConverter(int)
PUBLIC 366f5 0 QtPrivate::AssociativeContainerConverterHelper<QQmlListProperty<Settings>, false>::registerConverter(int)
PUBLIC 36703 0 QtPrivate::IsPair<QQmlListProperty<Settings> >::registerConverter(int)
PUBLIC 36711 0 QtPrivate::MetaTypeSmartPointerHelper<QQmlListProperty<Settings>, void>::registerConverter(int)
PUBLIC 3671f 0 QQmlPrivate::AttachedPropertySelector<Settings, 0>::func()
PUBLIC 3672a 0 QQmlPrivate::AttachedPropertySelector<Settings, 0>::metaObject()
PUBLIC 36735 0 QQmlPrivate::StaticCastSelectorClass<Settings, QQmlParserStatus, 1>::cast()
PUBLIC 36740 0 QQmlPrivate::StaticCastSelectorClass<Settings, QQmlPropertyValueSource, 1>::cast()
PUBLIC 3674b 0 QQmlPrivate::StaticCastSelectorClass<Settings, QQmlPropertyValueInterceptor, 1>::cast()
PUBLIC 36756 0 QMetaTypeIdQObject<Utilities*, 8>::qt_metatype_id()
PUBLIC 3683e 0 QtMetaTypePrivate::QMetaTypeFunctionHelper<Utilities*, true>::Destruct(void*)
PUBLIC 36849 0 QtMetaTypePrivate::QMetaTypeFunctionHelper<Utilities*, true>::Construct(void*, void const*)
PUBLIC 36895 0 QtPrivate::MetaObjectForType<Utilities*, void>::value()
PUBLIC 368a2 0 QtPrivate::SequentialContainerConverterHelper<Utilities*, false>::registerConverter(int)
PUBLIC 368b0 0 QtPrivate::AssociativeContainerConverterHelper<Utilities*, false>::registerConverter(int)
PUBLIC 368be 0 QtPrivate::IsPair<Utilities*>::registerConverter(int)
PUBLIC 368cc 0 QtPrivate::MetaTypeSmartPointerHelper<Utilities*, void>::registerConverter(int)
PUBLIC 368da 0 QtMetaTypePrivate::QMetaTypeFunctionHelper<QQmlListProperty<Utilities>, true>::Destruct(void*)
PUBLIC 368e5 0 QtMetaTypePrivate::QMetaTypeFunctionHelper<QQmlListProperty<Utilities>, true>::Construct(void*, void const*)
PUBLIC 36986 0 QtPrivate::MetaObjectForType<QQmlListProperty<Utilities>, void>::value()
PUBLIC 36991 0 QtPrivate::SequentialContainerConverterHelper<QQmlListProperty<Utilities>, false>::registerConverter(int)
PUBLIC 3699f 0 QtPrivate::AssociativeContainerConverterHelper<QQmlListProperty<Utilities>, false>::registerConverter(int)
PUBLIC 369ad 0 QtPrivate::IsPair<QQmlListProperty<Utilities> >::registerConverter(int)
PUBLIC 369bb 0 QtPrivate::MetaTypeSmartPointerHelper<QQmlListProperty<Utilities>, void>::registerConverter(int)
PUBLIC 369c9 0 QQmlPrivate::AttachedPropertySelector<Utilities, 0>::func()
PUBLIC 369d4 0 QQmlPrivate::AttachedPropertySelector<Utilities, 0>::metaObject()
PUBLIC 369df 0 QQmlPrivate::StaticCastSelectorClass<Utilities, QQmlParserStatus, 1>::cast()
PUBLIC 369ea 0 QQmlPrivate::StaticCastSelectorClass<Utilities, QQmlPropertyValueSource, 1>::cast()
PUBLIC 369f5 0 QQmlPrivate::StaticCastSelectorClass<Utilities, QQmlPropertyValueInterceptor, 1>::cast()
PUBLIC 36a00 0 QMetaTypeIdQObject<SystemSettings*, 8>::qt_metatype_id()
PUBLIC 36ae8 0 QtMetaTypePrivate::QMetaTypeFunctionHelper<SystemSettings*, true>::Destruct(void*)
PUBLIC 36af3 0 QtMetaTypePrivate::QMetaTypeFunctionHelper<SystemSettings*, true>::Construct(void*, void const*)
PUBLIC 36b3f 0 QtPrivate::MetaObjectForType<SystemSettings*, void>::value()
PUBLIC 36b4c 0 QtPrivate::SequentialContainerConverterHelper<SystemSettings*, false>::registerConverter(int)
PUBLIC 36b5a 0 QtPrivate::AssociativeContainerConverterHelper<SystemSettings*, false>::registerConverter(int)
PUBLIC 36b68 0 QtPrivate::IsPair<SystemSettings*>::registerConverter(int)
PUBLIC 36b76 0 QtPrivate::MetaTypeSmartPointerHelper<SystemSettings*, void>::registerConverter(int)
PUBLIC 36b84 0 QtMetaTypePrivate::QMetaTypeFunctionHelper<QQmlListProperty<SystemSettings>, true>::Destruct(void*)
PUBLIC 36b8f 0 QtMetaTypePrivate::QMetaTypeFunctionHelper<QQmlListProperty<SystemSettings>, true>::Construct(void*, void const*)
PUBLIC 36c30 0 QtPrivate::MetaObjectForType<QQmlListProperty<SystemSettings>, void>::value()
PUBLIC 36c3b 0 QtPrivate::SequentialContainerConverterHelper<QQmlListProperty<SystemSettings>, false>::registerConverter(int)
PUBLIC 36c49 0 QtPrivate::AssociativeContainerConverterHelper<QQmlListProperty<SystemSettings>, false>::registerConverter(int)
PUBLIC 36c57 0 QtPrivate::IsPair<QQmlListProperty<SystemSettings> >::registerConverter(int)
PUBLIC 36c65 0 QtPrivate::MetaTypeSmartPointerHelper<QQmlListProperty<SystemSettings>, void>::registerConverter(int)
PUBLIC 36c73 0 QQmlPrivate::AttachedPropertySelector<SystemSettings, 0>::func()
PUBLIC 36c7e 0 QQmlPrivate::AttachedPropertySelector<SystemSettings, 0>::metaObject()
PUBLIC 36c89 0 QQmlPrivate::StaticCastSelectorClass<SystemSettings, QQmlParserStatus, 1>::cast()
PUBLIC 36c94 0 QQmlPrivate::StaticCastSelectorClass<SystemSettings, QQmlPropertyValueSource, 1>::cast()
PUBLIC 36c9f 0 QQmlPrivate::StaticCastSelectorClass<SystemSettings, QQmlPropertyValueInterceptor, 1>::cast()
PUBLIC 36caa 0 QMetaTypeIdQObject<SocketIO*, 8>::qt_metatype_id()
PUBLIC 36d92 0 QtMetaTypePrivate::QMetaTypeFunctionHelper<SocketIO*, true>::Destruct(void*)
PUBLIC 36d9d 0 QtMetaTypePrivate::QMetaTypeFunctionHelper<SocketIO*, true>::Construct(void*, void const*)
PUBLIC 36de9 0 QtPrivate::MetaObjectForType<SocketIO*, void>::value()
PUBLIC 36df6 0 QtPrivate::SequentialContainerConverterHelper<SocketIO*, false>::registerConverter(int)
PUBLIC 36e04 0 QtPrivate::AssociativeContainerConverterHelper<SocketIO*, false>::registerConverter(int)
PUBLIC 36e12 0 QtPrivate::IsPair<SocketIO*>::registerConverter(int)
PUBLIC 36e20 0 QtPrivate::MetaTypeSmartPointerHelper<SocketIO*, void>::registerConverter(int)
PUBLIC 36e2e 0 QtMetaTypePrivate::QMetaTypeFunctionHelper<QQmlListProperty<SocketIO>, true>::Destruct(void*)
PUBLIC 36e39 0 QtMetaTypePrivate::QMetaTypeFunctionHelper<QQmlListProperty<SocketIO>, true>::Construct(void*, void const*)
PUBLIC 36eda 0 QtPrivate::MetaObjectForType<QQmlListProperty<SocketIO>, void>::value()
PUBLIC 36ee5 0 QtPrivate::SequentialContainerConverterHelper<QQmlListProperty<SocketIO>, false>::registerConverter(int)
PUBLIC 36ef3 0 QtPrivate::AssociativeContainerConverterHelper<QQmlListProperty<SocketIO>, false>::registerConverter(int)
PUBLIC 36f01 0 QtPrivate::IsPair<QQmlListProperty<SocketIO> >::registerConverter(int)
PUBLIC 36f0f 0 QtPrivate::MetaTypeSmartPointerHelper<QQmlListProperty<SocketIO>, void>::registerConverter(int)
PUBLIC 36f1d 0 QQmlPrivate::AttachedPropertySelector<SocketIO, 0>::func()
PUBLIC 36f28 0 QQmlPrivate::AttachedPropertySelector<SocketIO, 0>::metaObject()
PUBLIC 36f33 0 QQmlPrivate::StaticCastSelectorClass<SocketIO, QQmlParserStatus, 1>::cast()
PUBLIC 36f3e 0 QQmlPrivate::StaticCastSelectorClass<SocketIO, QQmlPropertyValueSource, 1>::cast()
PUBLIC 36f49 0 QQmlPrivate::StaticCastSelectorClass<SocketIO, QQmlPropertyValueInterceptor, 1>::cast()
PUBLIC 36f54 0 QMetaTypeIdQObject<AppUpdater*, 8>::qt_metatype_id()
PUBLIC 3703c 0 QtMetaTypePrivate::QMetaTypeFunctionHelper<AppUpdater*, true>::Destruct(void*)
PUBLIC 37047 0 QtMetaTypePrivate::QMetaTypeFunctionHelper<AppUpdater*, true>::Construct(void*, void const*)
PUBLIC 37093 0 QtPrivate::MetaObjectForType<AppUpdater*, void>::value()
PUBLIC 370a0 0 QtPrivate::SequentialContainerConverterHelper<AppUpdater*, false>::registerConverter(int)
PUBLIC 370ae 0 QtPrivate::AssociativeContainerConverterHelper<AppUpdater*, false>::registerConverter(int)
PUBLIC 370bc 0 QtPrivate::IsPair<AppUpdater*>::registerConverter(int)
PUBLIC 370ca 0 QtPrivate::MetaTypeSmartPointerHelper<AppUpdater*, void>::registerConverter(int)
PUBLIC 370d8 0 QtMetaTypePrivate::QMetaTypeFunctionHelper<QQmlListProperty<AppUpdater>, true>::Destruct(void*)
PUBLIC 370e3 0 QtMetaTypePrivate::QMetaTypeFunctionHelper<QQmlListProperty<AppUpdater>, true>::Construct(void*, void const*)
PUBLIC 37184 0 QtPrivate::MetaObjectForType<QQmlListProperty<AppUpdater>, void>::value()
PUBLIC 3718f 0 QtPrivate::SequentialContainerConverterHelper<QQmlListProperty<AppUpdater>, false>::registerConverter(int)
PUBLIC 3719d 0 QtPrivate::AssociativeContainerConverterHelper<QQmlListProperty<AppUpdater>, false>::registerConverter(int)
PUBLIC 371ab 0 QtPrivate::IsPair<QQmlListProperty<AppUpdater> >::registerConverter(int)
PUBLIC 371b9 0 QtPrivate::MetaTypeSmartPointerHelper<QQmlListProperty<AppUpdater>, void>::registerConverter(int)
PUBLIC 371c7 0 QQmlPrivate::AttachedPropertySelector<AppUpdater, 0>::func()
PUBLIC 371d2 0 QQmlPrivate::AttachedPropertySelector<AppUpdater, 0>::metaObject()
PUBLIC 371dd 0 QQmlPrivate::StaticCastSelectorClass<AppUpdater, QQmlParserStatus, 1>::cast()
PUBLIC 371e8 0 QQmlPrivate::StaticCastSelectorClass<AppUpdater, QQmlPropertyValueSource, 1>::cast()
PUBLIC 371f3 0 QQmlPrivate::StaticCastSelectorClass<AppUpdater, QQmlPropertyValueInterceptor, 1>::cast()
PUBLIC 371fe 0 QtSharedPointer::CustomDeleter<AutomationStudio, QtSharedPointer::NormalDeleter>::execute()
PUBLIC 37236 0 QtSharedPointer::CustomDeleter<AutomationStudio, QtSharedPointer::NormalDeleter>::CustomDeleter(AutomationStudio*, QtSharedPointer::NormalDeleter)
PUBLIC 37250 0 QQmlListProperty<AutomationStudio>::QQmlListProperty()
PUBLIC 372ba 0 QQmlListProperty<QCoreApplication>::QQmlListProperty()
PUBLIC 37324 0 QQmlListProperty<Settings>::QQmlListProperty()
PUBLIC 3738e 0 QQmlListProperty<Utilities>::QQmlListProperty()
PUBLIC 373f8 0 QQmlListProperty<SystemSettings>::QQmlListProperty()
PUBLIC 37462 0 QQmlListProperty<SocketIO>::QQmlListProperty()
PUBLIC 374cc 0 QQmlListProperty<AppUpdater>::QQmlListProperty()
PUBLIC 37536 0 QtPrivate::ApplyReturnValue<void>::ApplyReturnValue(void*)
PUBLIC 37550 0 __gthread_active_p()
PUBLIC 3756f 0 __gnu_cxx::__exchange_and_add(int volatile*, int)
PUBLIC 37589 0 __gnu_cxx::__atomic_add(int volatile*, int)
PUBLIC 375a1 0 __gnu_cxx::__exchange_and_add_single(int*, int)
PUBLIC 375cb 0 __gnu_cxx::__atomic_add_single(int*, int)
PUBLIC 375ea 0 __gnu_cxx::__exchange_and_add_dispatch(int*, int)
PUBLIC 3762d 0 __gnu_cxx::__atomic_add_dispatch(int*, int)
PUBLIC 37672 0 Settings::Settings(QObject*, QString)::{lambda()#1}::operator()() const
PUBLIC 378d8 0 Settings::Settings(QObject*, QString)::{lambda(QString)#2}::operator()(QString) const
PUBLIC 37a22 0 Settings::Settings(QObject*, QString)::{lambda()#3}::operator()() const::{lambda(sio::message::list const&)#1}::operator()(sio::message::list const) const
PUBLIC 37c54 0 Settings::Settings(QObject*, QString)::{lambda()#3}::operator()() const
PUBLIC 3802a 0 Settings::Settings(QObject*, QString)
PUBLIC 38a9a 0 Settings::registerApp()::{lambda(sio::message::list const&)#1}::operator()(sio::message::list const&) const
PUBLIC 38d6c 0 Settings::registerApp()
PUBLIC 39214 0 Settings::~Settings()
PUBLIC 39380 0 Settings::~Settings()
PUBLIC 393ac 0 Settings::load()
PUBLIC 39d60 0 Settings::save()
PUBLIC 3a586 0 Settings::updateBaseSettings()
PUBLIC 3a592 0 Settings::loadBaseSettings()
PUBLIC 3ae80 0 Settings::initSocketIO()
PUBLIC 3aea0 0 Settings::backupConfigs()
PUBLIC 3af0a 0 Settings::setBasefileLoaded(bool)
PUBLIC 3af52 0 Settings::check_new_firmware()
PUBLIC 3b006 0 Settings::update_new_firmware()
PUBLIC 3b0ec 0 Settings::Serialize(QJsonObject&)
PUBLIC 3b11a 0 non-virtual thunk to Settings::Serialize(QJsonObject&)
PUBLIC 3b120 0 Settings::DeSerialize(QJsonObject&)
PUBLIC 3b326 0 non-virtual thunk to Settings::DeSerialize(QJsonObject&)
PUBLIC 3b32f 0 std::remove_reference<Settings::Settings(QObject*, QString)::{lambda()#1}&>::type&& std::move<Settings::Settings(QObject*, QString)::{lambda()#1}&>(std::remove_reference&&)
PUBLIC 3b33d 0 std::enable_if<QtPrivate::FunctionPointer<Settings::Settings(QObject*, QString)::{lambda()#1}>::ArgumentCount==(-1), QMetaObject::Connection>::type QObject::connect<void (AppUpdater::*)(), Settings::Settings(QObject*, QString)::{lambda()#1}>(QtPrivate<void (AppUpdater::*)()>::Object const*, std::enable_if<QtPrivate::FunctionPointer<Settings::Settings(QObject*, QString)::{lambda()#1}>::ArgumentCount==(-1), QMetaObject::Connection>::type, QObject const*, QtPrivate::FunctionPointer, Qt::ConnectionType)
PUBLIC 3b3fa 0 std::remove_reference<Settings::Settings(QObject*, QString)::{lambda(QString)#2}&>::type&& std::move<Settings::Settings(QObject*, QString)::{lambda(QString)#2}&>(std::remove_reference&&)
PUBLIC 3b408 0 std::enable_if<QtPrivate::FunctionPointer<Settings::Settings(QObject*, QString)::{lambda(QString)#2}>::ArgumentCount==(-1), QMetaObject::Connection>::type QObject::connect<void (SocketIO::*)(QString), Settings::Settings(QObject*, QString)::{lambda(QString)#2}>(QtPrivate<void (SocketIO::*)(QString)>::Object const*, std::enable_if<QtPrivate::FunctionPointer<Settings::Settings(QObject*, QString)::{lambda(QString)#2}>::ArgumentCount==(-1), QMetaObject::Connection>::type, QObject const*, QtPrivate::FunctionPointer, Qt::ConnectionType)
PUBLIC 3b4c5 0 std::remove_reference<Settings::Settings(QObject*, QString)::{lambda()#3}::operator()() const::{lambda(sio::message::list const&)#1}&>::type&& std::move<Settings::Settings(QObject*, QString)::{lambda()#3}::operator()() const::{lambda(sio::message::list const&)#1}&>(Settings::Settings(QObject*, QString)::{lambda()#3}::operator()() const::{lambda(sio::message::list const&)#1}&)
PUBLIC 3b4d4 0 std::function<void (sio::message::list const&)>::function<Settings::Settings(QObject*, QString)::{lambda()#3}::operator()() const::{lambda(sio::message::list const&)#1}, void, void>(Settings::Settings(QObject*, QString)::{lambda()#3}::operator()() const::{lambda(sio::message::list const&)#1})
PUBLIC 3b56d 0 std::remove_reference<Settings::Settings(QObject*, QString)::{lambda()#3}&>::type&& std::move<Settings::Settings(QObject*, QString)::{lambda()#3}&>(std::remove_reference&&)
PUBLIC 3b57b 0 std::enable_if<QtPrivate::FunctionPointer<Settings::Settings(QObject*, QString)::{lambda()#3}>::ArgumentCount==(-1), QMetaObject::Connection>::type QObject::connect<void (SocketIO::*)(), Settings::Settings(QObject*, QString)::{lambda()#3}>(QtPrivate<void (SocketIO::*)()>::Object const*, std::enable_if<QtPrivate::FunctionPointer<Settings::Settings(QObject*, QString)::{lambda()#3}>::ArgumentCount==(-1), QMetaObject::Connection>::type, QObject const*, QtPrivate::FunctionPointer, Qt::ConnectionType)
PUBLIC 3b638 0 std::remove_reference<Settings::registerApp()::{lambda(sio::message::list const&)#1}&>::type&& std::move<Settings::registerApp()::{lambda(sio::message::list const&)#1}&>(std::remove_reference&&)
PUBLIC 3b646 0 std::function<void (sio::message::list const&)>::function<Settings::registerApp()::{lambda(sio::message::list const&)#1}, void, void>(Settings::registerApp()::{lambda(sio::message::list const&)#1})
PUBLIC 3b6e0 0 QtPrivate::QFunctorSlotObject<Settings::Settings(QObject*, QString)::{lambda()#1}, 0, QtPrivate::List<>, void>::QFunctorSlotObject({lambda()#1})
PUBLIC 3b720 0 QtPrivate::QFunctorSlotObject<Settings::Settings(QObject*, QString)::{lambda(QString)#2}, 1, QtPrivate::List<QString>, void>::QFunctorSlotObject({lambda(QString)#2})
PUBLIC 3b760 0 bool std::_Function_base::_Base_manager<Settings::Settings(QObject*, QString)::{lambda()#3}::operator()() const::{lambda(sio::message::list const&)#1}>::_M_not_empty_function<sio::message::list const&>(sio::message::list const& const&)
PUBLIC 3b76f 0 std::_Function_base::_Base_manager<Settings::Settings(QObject*, QString)::{lambda()#3}::operator()() const::{lambda(sio::message::list const&)#1}>::_M_init_functor(std::_Any_data&, sio::message::list const&)
PUBLIC 3b7ae 0 std::_Function_handler<void (sio::message::list const&), Settings::Settings(QObject*, QString)::{lambda()#3}::operator()() const::{lambda(sio::message::list const&)#1}>::_M_invoke(std::_Any_data const&, sio::message::list const&)
PUBLIC 3b7ed 0 std::_Function_base::_Base_manager<Settings::Settings(QObject*, QString)::{lambda()#3}::operator()() const::{lambda(sio::message::list const&)#1}>::_M_manager(std::_Any_data&, Settings::Settings(QObject*, QString)::{lambda()#3}::operator()() const::{lambda(sio::message::list const&)#1} const&, std::_Manager_operation)
PUBLIC 3b89c 0 QtPrivate::QFunctorSlotObject<Settings::Settings(QObject*, QString)::{lambda()#3}, 0, QtPrivate::List<>, void>::QFunctorSlotObject({lambda()#3})
PUBLIC 3b8dc 0 bool std::_Function_base::_Base_manager<Settings::registerApp()::{lambda(sio::message::list const&)#1}>::_M_not_empty_function<{lambda(sio::message::list const&)#1}>({lambda(sio::message::list const&)#1} const&)
PUBLIC 3b8eb 0 std::_Function_base::_Base_manager<Settings::registerApp()::{lambda(sio::message::list const&)#1}>::_M_init_functor(std::_Any_data&, {lambda(sio::message::list const&)#1}&&)
PUBLIC 3b92a 0 std::_Function_handler<void (sio::message::list const&), Settings::registerApp()::{lambda(sio::message::list const&)#1}>::_M_invoke(std::_Any_data const&, sio::message::list const&)
PUBLIC 3b969 0 std::_Function_base::_Base_manager<Settings::registerApp()::{lambda(sio::message::list const&)#1}>::_M_manager(std::_Any_data&, std::_Function_base::_Base_manager<Settings::registerApp()::{lambda(sio::message::list const&)#1}> const&, std::_Manager_operation)
PUBLIC 3ba18 0 QtPrivate::QFunctorSlotObject<Settings::Settings(QObject*, QString)::{lambda()#1}, 0, QtPrivate::List<>, void>::~QFunctorSlotObject()
PUBLIC 3ba33 0 QtPrivate::QFunctorSlotObject<Settings::Settings(QObject*, QString)::{lambda()#1}, 0, QtPrivate::List<>, void>::impl(int, QtPrivate::QSlotObjectBase*, QObject*, void**, bool*)
PUBLIC 3baa4 0 QtPrivate::QFunctorSlotObject<Settings::Settings(QObject*, QString)::{lambda(QString)#2}, 1, QtPrivate::List<QString>, void>::~QFunctorSlotObject()
PUBLIC 3babf 0 QtPrivate::QFunctorSlotObject<Settings::Settings(QObject*, QString)::{lambda(QString)#2}, 1, QtPrivate::List<QString>, void>::impl(int, QtPrivate::QSlotObjectBase*, QObject*, void**, bool*)
PUBLIC 3bb2f 0 std::_Function_base::_Base_manager<Settings::Settings(QObject*, QString)::{lambda()#3}::operator()() const::{lambda(sio::message::list const&)#1}>::_M_init_functor(std::_Any_data&, sio::message::list const&, std::integral_constant<bool, true>)
PUBLIC 3bb7b 0 std::_Function_base::_Base_manager<Settings::Settings(QObject*, QString)::{lambda()#3}::operator()() const::{lambda(sio::message::list const&)#1}>::_M_get_pointer(std::_Any_data const&)
PUBLIC 3bba6 0 Settings::Settings(QObject*, QString)::{lambda()#3}::operator()() const::{lambda(sio::message::list const&)#1}*& std::_Any_data::_M_access<Settings::Settings(QObject*, QString)::{lambda()#3}::operator()() const::{lambda(sio::message::list const&)#1}*>()
PUBLIC 3bbc0 0 std::_Function_base::_Base_manager<Settings::Settings(QObject*, QString)::{lambda()#3}::operator()() const::{lambda(sio::message::list const&)#1}>::_M_clone(std::_Any_data&, Settings::Settings(QObject*, QString)::{lambda()#3}::operator()() const::{lambda(sio::message::list const&)#1} const&, std::integral_constant<bool, true>)
PUBLIC 3bc0c 0 std::_Function_base::_Base_manager<Settings::Settings(QObject*, QString)::{lambda()#3}::operator()() const::{lambda(sio::message::list const&)#1}>::_M_destroy(std::_Any_data&, std::integral_constant<bool, true>)
PUBLIC 3bc28 0 QtPrivate::QFunctorSlotObject<Settings::Settings(QObject*, QString)::{lambda()#3}, 0, QtPrivate::List<>, void>::~QFunctorSlotObject()
PUBLIC 3bc43 0 QtPrivate::QFunctorSlotObject<Settings::Settings(QObject*, QString)::{lambda()#3}, 0, QtPrivate::List<>, void>::impl(int, QtPrivate::QSlotObjectBase*, QObject*, void**, bool*)
PUBLIC 3bcb3 0 std::_Function_base::_Base_manager<Settings::registerApp()::{lambda(sio::message::list const&)#1}>::_M_init_functor(std::_Any_data&, {lambda(sio::message::list const&)#1}&&, std::integral_constant<bool, true>)
PUBLIC 3bcff 0 std::_Function_base::_Base_manager<Settings::registerApp()::{lambda(sio::message::list const&)#1}>::_M_get_pointer(std::_Any_data const&)
PUBLIC 3bd2a 0 Settings::registerApp()::{lambda(sio::message::list const&)#1}*& std::_Any_data::_M_access<Settings::registerApp()::{lambda(sio::message::list const&)#1}*>()
PUBLIC 3bd44 0 std::_Function_base::_Base_manager<Settings::registerApp()::{lambda(sio::message::list const&)#1}>::_M_clone(std::_Any_data&, std::_Function_base::_Base_manager<Settings::registerApp()::{lambda(sio::message::list const&)#1}> const&, std::integral_constant<bool, true>)
PUBLIC 3bd90 0 std::_Function_base::_Base_manager<Settings::registerApp()::{lambda(sio::message::list const&)#1}>::_M_destroy(std::_Any_data&, std::integral_constant<bool, true>)
PUBLIC 3bdab 0 void QtPrivate::Functor<Settings::Settings(QObject*, QString)::{lambda()#1}, 0>::call<QtPrivate::List<>, void>({lambda()#1}&, void*, {lambda()#1}&*)
PUBLIC 3bdd5 0 void QtPrivate::Functor<Settings::Settings(QObject*, QString)::{lambda(QString)#2}, 1>::call<QtPrivate::List<QString>, void>({lambda(QString)#2}&, void*, {lambda(QString)#2}&*)
PUBLIC 3be00 0 Settings::Settings(QObject*, QString)::{lambda()#3}::operator()() const::{lambda(sio::message::list const&)#1} const& std::_Any_data::_M_access<Settings::Settings(QObject*, QString)::{lambda()#3}::operator()() const::{lambda(sio::message::list const&)#1}>() const
PUBLIC 3be1a 0 Settings::Settings(QObject*, QString)::{lambda()#3}::operator()() const::{lambda(sio::message::list const&)#1} const* std::__addressof<Settings::Settings(QObject*, QString)::{lambda()#3}::operator()() const::{lambda(sio::message::list const&)#1} const>(Settings::Settings(QObject*, QString)::{lambda()#3}::operator()() const::{lambda(sio::message::list const&)#1}&)
PUBLIC 3be28 0 Settings::Settings(QObject*, QString)::{lambda()#3}::operator()() const::{lambda(sio::message::list const&)#1}& std::_Any_data::_M_access<Settings::Settings(QObject*, QString)::{lambda()#3}::operator()() const::{lambda(sio::message::list const&)#1}>()
PUBLIC 3be42 0 void QtPrivate::Functor<Settings::Settings(QObject*, QString)::{lambda()#3}, 0>::call<QtPrivate::List<>, void>({lambda()#3}&, void*, {lambda()#3}&*)
PUBLIC 3be6c 0 Settings::registerApp()::{lambda(sio::message::list const&)#1} const& std::_Any_data::_M_access<Settings::registerApp()::{lambda(sio::message::list const&)#1}>() const
PUBLIC 3be86 0 Settings::registerApp()::{lambda(sio::message::list const&)#1} const* std::__addressof<Settings::registerApp()::{lambda(sio::message::list const&)#1} const>(Settings::registerApp()::{lambda(sio::message::list const&)#1} const&)
PUBLIC 3be94 0 Settings::registerApp()::{lambda(sio::message::list const&)#1}& std::_Any_data::_M_access<Settings::registerApp()::{lambda(sio::message::list const&)#1}>()
PUBLIC 3beae 0 QtPrivate::FunctorCall<QtPrivate::IndexesList<>, QtPrivate::List<>, void, Settings::Settings(QObject*, QString)::{lambda()#1}>::call({lambda()#1}&, void**)
PUBLIC 3bee3 0 QtPrivate::FunctorCall<QtPrivate::IndexesList<0>, QtPrivate::List<QString>, void, Settings::Settings(QObject*, QString)::{lambda(QString)#2}>::call({lambda(QString)#2}&, void**)
PUBLIC 3bf66 0 QtPrivate::FunctorCall<QtPrivate::IndexesList<>, QtPrivate::List<>, void, Settings::Settings(QObject*, QString)::{lambda()#3}>::call({lambda()#3}&, void**)
PUBLIC 3bf9b 0 __static_initialization_and_destruction_0(int, int)
PUBLIC 3bfe4 0 _GLOBAL__sub_I_settings.cpp
PUBLIC 3bffa 0 QChar::QChar(int)
PUBLIC 3c014 0 qstrnlen(char const*, unsigned int)
PUBLIC 3c064 0 QString::size() const
PUBLIC 3c078 0 QString::QString(QByteArray const&)
PUBLIC 3c0d8 0 QString::isEmpty() const
PUBLIC 3c0f2 0 QString::operator==(char const*) const
PUBLIC 3c145 0 operator+(QString const&, QString const&)
PUBLIC 3c1a8 0 QString::fromStdString(std::__cxx11::basic_string<char, std::char_traits<char>, std::allocator<char> > const&)
PUBLIC 3c1f2 0 std::_Any_data::_M_access()
PUBLIC 3c200 0 std::_Any_data::_M_access() const
PUBLIC 3c20e 0 std::_Function_base::_Function_base()
PUBLIC 3c226 0 std::_Function_base::~_Function_base()
PUBLIC 3c25c 0 QJsonValue::QJsonValue(char const*)
PUBLIC 3c2de 0 QJsonValueRef::toBool() const
PUBLIC 3c342 0 QJsonValueRef::toString() const
PUBLIC 3c3ae 0 QIODevice::write(QByteArray const&)
PUBLIC 3c3f6 0 JsonSerializable::JsonSerializable()
PUBLIC 3c41c 0 Project::isDefault() const
PUBLIC 3c42e 0 AppUpdater::serverUrl() const
PUBLIC 3c45c 0 sio::message::get_flag() const
PUBLIC 3c46e 0 std::__shared_ptr<sio::message, (__gnu_cxx::_Lock_policy)2>::~__shared_ptr()
PUBLIC 3c48e 0 std::shared_ptr<sio::message>::~shared_ptr()
PUBLIC 3c4aa 0 sio::message::list::size() const
PUBLIC 3c4c4 0 sio::message::list::at(unsigned long) const
PUBLIC 3c4ea 0 SocketIO::setServerUrl(QString)
PUBLIC 3c588 0 User::isDefault() const
PUBLIC 3c59a 0 Settings::source() const
PUBLIC 3c5c8 0 Settings::appUpdater() const
PUBLIC 3c5de 0 Settings::appID() const
PUBLIC 3c60e 0 Settings::setSource(QString)
PUBLIC 3c6ac 0 Settings::setLoaded(bool)
PUBLIC 3c6f4 0 Settings::setCurrentUser(User*)
PUBLIC 3c73a 0 Settings::setAppRegistred(bool)
PUBLIC 3c782 0 Settings::setAppID(QString)
PUBLIC 3c828 0 Settings::setSelectedProject(Project*)
PUBLIC 3c8e4 0 Settings::setUseRemoteSettings(bool)
PUBLIC 3c934 0 Settings::setRemoteSettingsBaseLocation(QString)
PUBLIC 3c9da 0 Settings::setNewFirmwareAvailable(bool)
PUBLIC 3ca2a 0 Settings::setSelectingProject(bool)
PUBLIC 3ca7a 0 Settings::useRemoteSettings() const
PUBLIC 3ca90 0 Settings::remoteSettingsBaseLocation() const
PUBLIC 3cac0 0 QtPrivate::QForeachContainer<QList<QNetworkInterface> >::~QForeachContainer()
PUBLIC 3cadc 0 std::function<void (sio::message::list const&)>::~function()
PUBLIC 3caf8 0 std::__shared_ptr<sio::message, (__gnu_cxx::_Lock_policy)2>::__shared_ptr(std::__shared_ptr<sio::message, (__gnu_cxx::_Lock_policy)2> const&)
PUBLIC 3cb34 0 std::shared_ptr<sio::message>::shared_ptr(std::shared_ptr<sio::message> const&)
PUBLIC 3cb5a 0 std::__shared_count<(__gnu_cxx::_Lock_policy)2>::~__shared_count()
PUBLIC 3cb84 0 std::__shared_count<(__gnu_cxx::_Lock_policy)2>::__shared_count(std::__shared_count<(__gnu_cxx::_Lock_policy)2> const&)
PUBLIC 3cbc0 0 std::vector<std::shared_ptr<sio::message>, std::allocator<std::shared_ptr<sio::message> > >::size() const
PUBLIC 3cbe6 0 std::vector<std::shared_ptr<sio::message>, std::allocator<std::shared_ptr<sio::message> > >::operator[](unsigned long) const
PUBLIC 3cc06 0 std::__shared_ptr<sio::message, (__gnu_cxx::_Lock_policy)2>::operator->() const
PUBLIC 3cc18 0 QList<QNetworkInterface>::~QList()
PUBLIC 3cc5f 0 QList<QNetworkInterface>&& std::forward<QList<QNetworkInterface> >(std::remove_reference<QList<QNetworkInterface> >::type&)
PUBLIC 3cc6d 0 QtPrivate::QForeachContainer<std::decay<QList<QNetworkInterface> >::type> QtPrivate::qMakeForeachContainer<QList<QNetworkInterface> >(QList<QNetworkInterface>&&)
PUBLIC 3cca1 0 std::remove_reference<QList<QNetworkInterface>&>::type&& std::move<QList<QNetworkInterface>&>(QList<QNetworkInterface>&)
PUBLIC 3ccaf 0 std::add_const<QList<QNetworkInterface> >::type& qAsConst<QList<QNetworkInterface> >(QList<QNetworkInterface>&)
PUBLIC 3ccbe 0 QList<QNetworkInterface>::const_iterator::operator!=(QList<QNetworkInterface>::const_iterator const&) const
PUBLIC 3cce0 0 QList<QNetworkInterface>::const_iterator::operator++()
PUBLIC 3cd00 0 QList<QNetworkInterface>::const_iterator::operator*() const
PUBLIC 3cd1e 0 std::unary_function<sio::message::list const&, void>::unary_function()
PUBLIC 3cd2a 0 std::_Maybe_unary_or_binary_function<void, sio::message::list const&>::_Maybe_unary_or_binary_function()
PUBLIC 3cd46 0 std::function<void (sio::message::list const&)>::function(decltype(nullptr))
PUBLIC 3cd72 0 QList<QString>::length() const
PUBLIC 3cd8c 0 std::_Sp_counted_base<(__gnu_cxx::_Lock_policy)2>::_M_release()
PUBLIC 3ce08 0 std::_Sp_counted_base<(__gnu_cxx::_Lock_policy)2>::_M_add_ref_copy()
PUBLIC 3ce2c 0 QListSpecialMethods<QNetworkInterface>::~QListSpecialMethods()
PUBLIC 3ce38 0 QList<QNetworkInterface>::dealloc(QListData::Data*)
PUBLIC 3ce96 0 QtPrivate::QForeachContainer<QList<QNetworkInterface> >::QForeachContainer(QList<QNetworkInterface>&&)
PUBLIC 3cf16 0 QList<QNetworkInterface>::begin() const
PUBLIC 3cf4a 0 QList<QNetworkInterface>::end() const
PUBLIC 3cf7e 0 QListSpecialMethods<QNetworkInterface>::QListSpecialMethods()
PUBLIC 3cf8a 0 QList<QNetworkInterface>::QList(QList<QNetworkInterface>&&)
PUBLIC 3cfc6 0 QList<QNetworkInterface>::Node::t()
PUBLIC 3cfd4 0 QtPrivate::ConnectionTypes<QtPrivate::List<QString>, true>::types()
PUBLIC 3cfe1 0 sio::message::list const& std::forward<sio::message::list const&>(std::remove_reference<sio::message::list const&>::type&)
PUBLIC 3cff0 0 std::type_info const*& std::_Any_data::_M_access<std::type_info const*>()
PUBLIC 3d00a 0 QList<QNetworkInterface>::node_destruct(QList<QNetworkInterface>::Node*, QList<QNetworkInterface>::Node*)
PUBLIC 3d03e 0 QList<QNetworkInterface>::const_iterator::const_iterator(QList<QNetworkInterface>::Node*)
PUBLIC 3d058 0 qInitResources_application_qmlcache()
PUBLIC 3d082 0 qCleanupResources_application_qmlcache()
PUBLIC 3d0ac 0 (anonymous namespace)::initializer::initializer()
PUBLIC 3d0c0 0 (anonymous namespace)::initializer::~initializer()
PUBLIC 3d0d4 0 __static_initialization_and_destruction_0(int, int)
PUBLIC 3d11a 0 _GLOBAL__sub_I_qrc_application_qmlcache.cpp
PUBLIC 3d130 0 (anonymous namespace)::(anonymous namespace)::Q_QGS_unitRegistry::innerFunction()::HolderBase::~HolderBase()
PUBLIC 3d166 0 (anonymous namespace)::(anonymous namespace)::Q_QGS_unitRegistry::innerFunction()::HolderBase::HolderBase()
PUBLIC 3d172 0 (anonymous namespace)::Registry::~Registry()
PUBLIC 3d18e 0 (anonymous namespace)::(anonymous namespace)::Q_QGS_unitRegistry::innerFunction()::Holder::Holder()
PUBLIC 3d1e8 0 (anonymous namespace)::(anonymous namespace)::Q_QGS_unitRegistry::innerFunction()::Holder::~Holder()
PUBLIC 3d20f 0 (anonymous namespace)::(anonymous namespace)::Q_QGS_unitRegistry::innerFunction()
PUBLIC 3d2a0 0 (anonymous namespace)::Registry::Registry()::{lambda()#1}::operator()() const
PUBLIC 3d2da 0 (anonymous namespace)::Registry::Registry()::{lambda()#2}::operator()() const
PUBLIC 3d314 0 (anonymous namespace)::Registry::Registry()
PUBLIC 3d436 0 (anonymous namespace)::Registry::lookupCachedUnit(QUrl const&)
PUBLIC 3d5e9 0 qInitResources_application()
PUBLIC 3d606 0 (anonymous namespace)::qInitResources_application_ctor_class_::qInitResources_application_ctor_class_()
PUBLIC 3d61a 0 qCleanupResources_application()
PUBLIC 3d62a 0 QGlobalStatic<(anonymous namespace)::Registry, (anonymous namespace)::(anonymous namespace)::Q_QGS_unitRegistry::innerFunction(), (anonymous namespace)::(anonymous namespace)::Q_QGS_unitRegistry::guard>::operator()()
PUBLIC 3d654 0 QGlobalStatic<(anonymous namespace)::Registry, (anonymous namespace)::(anonymous namespace)::Q_QGS_unitRegistry::innerFunction(), (anonymous namespace)::(anonymous namespace)::Q_QGS_unitRegistry::guard>::isDestroyed() const
PUBLIC 3d674 0 __static_initialization_and_destruction_0(int, int)
PUBLIC 3d6a0 0 _GLOBAL__sub_I_qmlcache_loader.cpp
PUBLIC 3d6b6 0 QLatin1Char::QLatin1Char(char)
PUBLIC 3d6d0 0 QLatin1Char::unicode() const
PUBLIC 3d6e4 0 QChar::QChar(QLatin1Char)
PUBLIC 3d70c 0 QLatin1String::QLatin1String(char const*)
PUBLIC 3d74e 0 QString::prepend(QChar)
PUBLIC 3d776 0 QString::operator!=(QLatin1String) const
PUBLIC 3d7ac 0 QHashData::willGrow()
PUBLIC 3d7f2 0 QFlags<QUrl::ComponentFormattingOption>::QFlags(QUrl::ComponentFormattingOption)
PUBLIC 3d80a 0 QHash<QString, QQmlPrivate::CachedQmlUnit const*>::~QHash()
PUBLIC 3d84a 0 QHash<QString, QQmlPrivate::CachedQmlUnit const*>::QHash()
PUBLIC 3d864 0 QStaticStringData<9>::data_ptr() const
PUBLIC 3d872 0 QHash<QString, QQmlPrivate::CachedQmlUnit const*>::insert(QString const&, QQmlPrivate::CachedQmlUnit const* const&)
PUBLIC 3d952 0 QStaticStringData<17>::data_ptr() const
PUBLIC 3d960 0 QHash<QString, QQmlPrivate::CachedQmlUnit const*>::value(QString const&, QQmlPrivate::CachedQmlUnit const* const&) const
PUBLIC 3d9d2 0 QHash<QString, QQmlPrivate::CachedQmlUnit const*>::freeData(QHashData*)
PUBLIC 3d9fc 0 QHash<QString, QQmlPrivate::CachedQmlUnit const*>::detach()
PUBLIC 3da2e 0 QHash<QString, QQmlPrivate::CachedQmlUnit const*>::findNode(QString const&, unsigned int*) const
PUBLIC 3daa2 0 QHash<QString, QQmlPrivate::CachedQmlUnit const*>::findNode(QString const&, unsigned int) const
PUBLIC 3db50 0 QHash<QString, QQmlPrivate::CachedQmlUnit const*>::createNode(unsigned int, QString const&, QQmlPrivate::CachedQmlUnit const* const&, QHashNode<QString, QQmlPrivate::CachedQmlUnit const*>**)
PUBLIC 3dbec 0 QHash<QString, QQmlPrivate::CachedQmlUnit const*>::iterator::iterator(void*)
PUBLIC 3dc06 0 QHashNode<QString, QQmlPrivate::CachedQmlUnit const*>::~QHashNode()
PUBLIC 3dc26 0 QHash<QString, QQmlPrivate::CachedQmlUnit const*>::deleteNode2(QHashData::Node*)
PUBLIC 3dc4a 0 QHash<QString, QQmlPrivate::CachedQmlUnit const*>::detach_helper()
PUBLIC 3dcc4 0 QHashNode<QString, QQmlPrivate::CachedQmlUnit const*>::same_key(unsigned int, QString const&) const
PUBLIC 3dd0c 0 QHash<QString, QQmlPrivate::CachedQmlUnit const*>::alignOfNode()
PUBLIC 3dd3a 0 QHashNode<QString, QQmlPrivate::CachedQmlUnit const*>::QHashNode(QString const&, QQmlPrivate::CachedQmlUnit const* const&, unsigned int, QHashNode<QString, QQmlPrivate::CachedQmlUnit const*>*)
PUBLIC 3dd93 0 QHash<QString, QQmlPrivate::CachedQmlUnit const*>::concrete(QHashData::Node*)
PUBLIC 3dda2 0 QHash<QString, QQmlPrivate::CachedQmlUnit const*>::duplicateNode(QHashData::Node*, void*)
PUBLIC 3de06 0 AutomationStudio::qt_static_metacall(QObject*, QMetaObject::Call, int, void**)
PUBLIC 3e66e 0 AutomationStudio::metaObject() const
PUBLIC 3e6b6 0 AutomationStudio::qt_metacast(char const*)
PUBLIC 3e706 0 AutomationStudio::qt_metacall(QMetaObject::Call, int, void**)
PUBLIC 3e80a 0 AutomationStudio::systemSettingsChanged(SystemSettings*)
PUBLIC 3e854 0 AutomationStudio::coreApplicationChanged(QCoreApplication*)
PUBLIC 3e89e 0 AutomationStudio::releaseVersionChanged(QString)
PUBLIC 3e8e8 0 AutomationStudio::buildInfoChanged(QString)
PUBLIC 3e932 0 AutomationStudio::systemSettings() const
PUBLIC 3e944 0 AutomationStudio::utilities() const
PUBLIC 3e956 0 AutomationStudio::releaseVersion() const
PUBLIC 3e984 0 AutomationStudio::buildInfo() const
PUBLIC 3e9b2 0 AutomationStudio::settings()
PUBLIC 3e9c4 0 int qMetaTypeId<SystemSettings*>()
PUBLIC 3e9cf 0 int qRegisterMetaType<SystemSettings*>()
PUBLIC 3e9da 0 int qMetaTypeId<QCoreApplication*>()
PUBLIC 3e9e5 0 int qRegisterMetaType<QCoreApplication*>()
PUBLIC 3e9f0 0 int qMetaTypeId<Utilities*>()
PUBLIC 3e9fb 0 int qRegisterMetaType<Utilities*>()
PUBLIC 3ea06 0 QScopedPointer<QObjectData, QScopedPointerDeleter<QObjectData> >::operator->() const
PUBLIC 3ea18 0 Settings::qt_static_metacall(QObject*, QMetaObject::Call, int, void**)
PUBLIC 40c88 0 Settings::metaObject() const
PUBLIC 40cd0 0 Settings::qt_metacast(char const*)
PUBLIC 40d62 0 Settings::qt_metacall(QMetaObject::Call, int, void**)
PUBLIC 40e66 0 Settings::sourceChanged(QString)
PUBLIC 40eb0 0 Settings::loadedChanged(bool)
PUBLIC 40efc 0 Settings::usersChanged(UsersListModel*)
PUBLIC 40f46 0 Settings::currentUserChanged(User*)
PUBLIC 40f90 0 Settings::selectedLanguageChanged(QString)
PUBLIC 40fda 0 Settings::useVirtualKeyboardChanged(bool)
PUBLIC 41026 0 Settings::basefileLoadedChanged(bool)
PUBLIC 41072 0 Settings::socketIOServerChanged(QString)
PUBLIC 410bc 0 Settings::socketIOChanged(SocketIO*)
PUBLIC 41106 0 Settings::appRegistredChanged(bool)
PUBLIC 41152 0 Settings::doUpdate(QString)
PUBLIC 4119c 0 Settings::updateDone()
PUBLIC 411c8 0 Settings::appIDChanged(QString)
PUBLIC 41212 0 Settings::appUpdaterChanged(AppUpdater*)
PUBLIC 4125c 0 Settings::projectsFileChanged(QString)
PUBLIC 412a6 0 Settings::projectsChanged(ProjectsListModel*)
PUBLIC 412f0 0 Settings::basefileErrorChanged(bool)
PUBLIC 4133c 0 Settings::selectedProjectChanged(Project*)
PUBLIC 41386 0 Settings::useKeyboardChanged(bool)
PUBLIC 413d2 0 Settings::useRemoteSettingsChanged(bool)
PUBLIC 4141e 0 Settings::remoteSettingsBaseLocationChanged(QString)
PUBLIC 41468 0 Settings::newFirmwareAvailableChanged(bool)
PUBLIC 414b4 0 Settings::upgradingFirmwareChanged(bool)
PUBLIC 41500 0 Settings::selectingProjectChanged(bool)
PUBLIC 4154b 0 __static_initialization_and_destruction_0(int, int)
PUBLIC 41594 0 _GLOBAL__sub_I_moc_settings.cpp
PUBLIC 415aa 0 Settings::loaded() const
PUBLIC 415bc 0 Settings::sysInfo() const
PUBLIC 415ea 0 Settings::cpuType() const
PUBLIC 41618 0 Settings::users() const
PUBLIC 4162a 0 Settings::currentUser() const
PUBLIC 4163c 0 Settings::selectedLanguage() const
PUBLIC 4166a 0 Settings::useVirtualKeyboard() const
PUBLIC 4167c 0 Settings::basefileLoaded() const
PUBLIC 4168e 0 Settings::socketIO() const
PUBLIC 416a0 0 Settings::appRegistred() const
PUBLIC 416b2 0 Settings::setSelectedanguage(QString)
PUBLIC 41750 0 Settings::setUseVirtualKeyboard(bool)
PUBLIC 41798 0 Settings::setSocketIO(SocketIO*)
PUBLIC 417de 0 Settings::setProjectsFile(QString)
PUBLIC 41884 0 Settings::setProjects(ProjectsListModel*)
PUBLIC 418d4 0 Settings::setUsers(UsersListModel*)
PUBLIC 4190a 0 Settings::setAppUpdater(AppUpdater*)
PUBLIC 4195a 0 Settings::setUseKeyboard(bool)
PUBLIC 419aa 0 Settings::setUpgradingFirmware(bool)
PUBLIC 419fa 0 Settings::projects() const
PUBLIC 41a10 0 Settings::basefileError() const
PUBLIC 41a26 0 Settings::selectedProject() const
PUBLIC 41a3c 0 Settings::useKeyboard() const
PUBLIC 41a52 0 Settings::newFirmwareAvailable() const
PUBLIC 41a68 0 Settings::upgradingFirmware() const
PUBLIC 41a7e 0 Settings::selectingProject() const
PUBLIC 41a93 0 std::remove_reference<bool&>::type&& std::move<bool&>(bool&)
PUBLIC 41aa1 0 QMetaTypeId2<UsersListModel*>::qt_metatype_id()
PUBLIC 41aac 0 int qMetaTypeId<UsersListModel*>()
PUBLIC 41ab7 0 int qRegisterMetaType<UsersListModel*>()
PUBLIC 41ac2 0 QMetaTypeId2<User*>::qt_metatype_id()
PUBLIC 41acd 0 int qMetaTypeId<User*>()
PUBLIC 41ad8 0 int qRegisterMetaType<User*>()
PUBLIC 41ae3 0 int qMetaTypeId<SocketIO*>()
PUBLIC 41aee 0 int qRegisterMetaType<SocketIO*>()
PUBLIC 41af9 0 int qMetaTypeId<AppUpdater*>()
PUBLIC 41b04 0 int qRegisterMetaType<AppUpdater*>()
PUBLIC 41b0f 0 QMetaTypeId2<ProjectsListModel*>::qt_metatype_id()
PUBLIC 41b1a 0 int qMetaTypeId<ProjectsListModel*>()
PUBLIC 41b25 0 int qRegisterMetaType<ProjectsListModel*>()
PUBLIC 41b30 0 QMetaTypeId2<Project*>::qt_metatype_id()
PUBLIC 41b3b 0 int qMetaTypeId<Project*>()
PUBLIC 41b46 0 int qRegisterMetaType<Project*>()
PUBLIC 41b51 0 QMetaTypeIdQObject<UsersListModel*, 8>::qt_metatype_id()
PUBLIC 41c39 0 QMetaTypeIdQObject<User*, 8>::qt_metatype_id()
PUBLIC 41d21 0 QMetaTypeIdQObject<ProjectsListModel*, 8>::qt_metatype_id()
PUBLIC 41e09 0 QMetaTypeIdQObject<Project*, 8>::qt_metatype_id()
PUBLIC 41ef1 0 QtPrivate::QMetaTypeIdHelper<UsersListModel*, true>::qt_metatype_id()
PUBLIC 41efc 0 int qRegisterNormalizedMetaType<UsersListModel*>(QByteArray const&, UsersListModel**, QtPrivate::MetaTypeDefinedHelper<UsersListModel*, QMetaTypeId2<UsersListModel*>::Defined&&(!QMetaTypeId2<UsersListModel*>::IsBuiltIn)>::DefinedType)
PUBLIC 41fc5 0 QtPrivate::QMetaTypeIdHelper<User*, true>::qt_metatype_id()
PUBLIC 41fd0 0 int qRegisterNormalizedMetaType<User*>(QByteArray const&, User**, QtPrivate::MetaTypeDefinedHelper<User*, QMetaTypeId2<User*>::Defined&&(!QMetaTypeId2<User*>::IsBuiltIn)>::DefinedType)
PUBLIC 42099 0 QtPrivate::QMetaTypeIdHelper<ProjectsListModel*, true>::qt_metatype_id()
PUBLIC 420a4 0 int qRegisterNormalizedMetaType<ProjectsListModel*>(QByteArray const&, ProjectsListModel**, QtPrivate::MetaTypeDefinedHelper<ProjectsListModel*, QMetaTypeId2<ProjectsListModel*>::Defined&&(!QMetaTypeId2<ProjectsListModel*>::IsBuiltIn)>::DefinedType)
PUBLIC 4216d 0 QtPrivate::QMetaTypeIdHelper<Project*, true>::qt_metatype_id()
PUBLIC 42178 0 int qRegisterNormalizedMetaType<Project*>(QByteArray const&, Project**, QtPrivate::MetaTypeDefinedHelper<Project*, QMetaTypeId2<Project*>::Defined&&(!QMetaTypeId2<Project*>::IsBuiltIn)>::DefinedType)
PUBLIC 42241 0 QtMetaTypePrivate::QMetaTypeFunctionHelper<UsersListModel*, true>::Destruct(void*)
PUBLIC 4224c 0 QtMetaTypePrivate::QMetaTypeFunctionHelper<UsersListModel*, true>::Construct(void*, void const*)
PUBLIC 42298 0 QtPrivate::MetaObjectForType<UsersListModel*, void>::value()
PUBLIC 422a5 0 QtPrivate::SequentialContainerConverterHelper<UsersListModel*, false>::registerConverter(int)
PUBLIC 422b3 0 QtPrivate::AssociativeContainerConverterHelper<UsersListModel*, false>::registerConverter(int)
PUBLIC 422c1 0 QtPrivate::IsPair<UsersListModel*>::registerConverter(int)
PUBLIC 422cf 0 QtPrivate::MetaTypeSmartPointerHelper<UsersListModel*, void>::registerConverter(int)
PUBLIC 422dd 0 QtMetaTypePrivate::QMetaTypeFunctionHelper<User*, true>::Destruct(void*)
PUBLIC 422e8 0 QtMetaTypePrivate::QMetaTypeFunctionHelper<User*, true>::Construct(void*, void const*)
PUBLIC 42334 0 QtPrivate::MetaObjectForType<User*, void>::value()
PUBLIC 42341 0 QtPrivate::SequentialContainerConverterHelper<User*, false>::registerConverter(int)
PUBLIC 4234f 0 QtPrivate::AssociativeContainerConverterHelper<User*, false>::registerConverter(int)
PUBLIC 4235d 0 QtPrivate::IsPair<User*>::registerConverter(int)
PUBLIC 4236b 0 QtPrivate::MetaTypeSmartPointerHelper<User*, void>::registerConverter(int)
PUBLIC 42379 0 QtMetaTypePrivate::QMetaTypeFunctionHelper<ProjectsListModel*, true>::Destruct(void*)
PUBLIC 42384 0 QtMetaTypePrivate::QMetaTypeFunctionHelper<ProjectsListModel*, true>::Construct(void*, void const*)
PUBLIC 423d0 0 QtPrivate::MetaObjectForType<ProjectsListModel*, void>::value()
PUBLIC 423dd 0 QtPrivate::SequentialContainerConverterHelper<ProjectsListModel*, false>::registerConverter(int)
PUBLIC 423eb 0 QtPrivate::AssociativeContainerConverterHelper<ProjectsListModel*, false>::registerConverter(int)
PUBLIC 423f9 0 QtPrivate::IsPair<ProjectsListModel*>::registerConverter(int)
PUBLIC 42407 0 QtPrivate::MetaTypeSmartPointerHelper<ProjectsListModel*, void>::registerConverter(int)
PUBLIC 42415 0 QtMetaTypePrivate::QMetaTypeFunctionHelper<Project*, true>::Destruct(void*)
PUBLIC 42420 0 QtMetaTypePrivate::QMetaTypeFunctionHelper<Project*, true>::Construct(void*, void const*)
PUBLIC 4246c 0 QtPrivate::MetaObjectForType<Project*, void>::value()
PUBLIC 42479 0 QtPrivate::SequentialContainerConverterHelper<Project*, false>::registerConverter(int)
PUBLIC 42487 0 QtPrivate::AssociativeContainerConverterHelper<Project*, false>::registerConverter(int)
PUBLIC 42495 0 QtPrivate::IsPair<Project*>::registerConverter(int)
PUBLIC 424a3 0 QtPrivate::MetaTypeSmartPointerHelper<Project*, void>::registerConverter(int)
PUBLIC 424b2 0 qcm::ContainerModel::qt_static_metacall(QObject*, QMetaObject::Call, int, void**)
PUBLIC 4281c 0 qcm::ContainerModel::metaObject() const
PUBLIC 42864 0 qcm::ContainerModel::qt_metacast(char const*)
PUBLIC 428b4 0 qcm::ContainerModel::qt_metacall(QMetaObject::Call, int, void**)
PUBLIC 429ae 0 qcm::ContainerModel::lengthChanged()
PUBLIC 429da 0 QByteArray::QByteArray(QByteArray const&)
PUBLIC 42a0a 0 qHash(int, unsigned int)
PUBLIC 42a1c 0 QVariant::QVariant()
PUBLIC 42a38 0 QVariant::Private::Private()
PUBLIC 42a7a 0 QModelIndex::QModelIndex()
PUBLIC 42ab2 0 QModelIndex::isValid() const
PUBLIC 42aea 0 qcm::ContainerModel::~ContainerModel()
PUBLIC 42b28 0 qcm::ContainerModel::~ContainerModel()
PUBLIC 42b54 0 qcm::ContainerModel::rowCount(QModelIndex const&) const
PUBLIC 42b68 0 qcm::ContainerModel::data(QModelIndex const&, int) const
PUBLIC 42b92 0 qcm::ContainerModel::roleNames() const
PUBLIC 42c28 0 qcm::ContainerModel::itemDisplayPropertyChanged()
PUBLIC 42d30 0 qcm::ContainerModel::getLength() const
PUBLIC 42d6e 0 qcm::ContainerModel::append(QObject*) const
PUBLIC 42d82 0 qcm::ContainerModel::remove(QObject*) const
PUBLIC 42d92 0 qcm::ContainerModel::at(int) const
PUBLIC 42da4 0 qcm::ContainerModel::contains(QObject*) const
PUBLIC 42ddc 0 qcm::ContainerModel::indexOf(QObject*) const
PUBLIC 42df0 0 qcm::ContainerModel::clear() const
PUBLIC 42dff 0 std::remove_reference<int&>::type&& std::move<int&>(int&)
PUBLIC 42e0d 0 std::remove_reference<QObject*&>::type&& std::move<QObject*&>(QObject*&)
PUBLIC 42e1c 0 QVector<int>::QVector()
PUBLIC 42e3a 0 QVector<int>::~QVector()
PUBLIC 42e76 0 QHash<int, QByteArray>::QHash()
PUBLIC 42e90 0 QHash<int, QByteArray>::~QHash()
PUBLIC 42ed0 0 QHash<int, QByteArray>::operator[](int const&)
PUBLIC 42fb5 0 QTypedArrayData<int>::sharedNull()
PUBLIC 42fc0 0 QVector<int>::freeData(QTypedArrayData<int>*)
PUBLIC 43020 0 QHash<int, QByteArray>::freeData(QHashData*)
PUBLIC 4304a 0 QHash<int, QByteArray>::detach()
PUBLIC 4307c 0 QHash<int, QByteArray>::findNode(int const&, unsigned int*) const
PUBLIC 430f0 0 QHash<int, QByteArray>::findNode(int const&, unsigned int) const
PUBLIC 4319e 0 QHash<int, QByteArray>::createNode(unsigned int, int const&, QByteArray const&, QHashNode<int, QByteArray>**)
PUBLIC 4323a 0 QVector<int>::destruct(int*, int*)
PUBLIC 4324e 0 QTypedArrayData<int>::begin(int*)
PUBLIC 4326c 0 QTypedArrayData<int>::end(int*)
PUBLIC 4329d 0 QTypedArrayData<int>::deallocate(QArrayData*)
PUBLIC 432c2 0 QHashNode<int, QByteArray>::~QHashNode()
PUBLIC 432e2 0 QHash<int, QByteArray>::deleteNode2(QHashData::Node*)
PUBLIC 43306 0 QHash<int, QByteArray>::detach_helper()
PUBLIC 43380 0 QHashNode<int, QByteArray>::same_key(unsigned int, int const&) const
PUBLIC 433ba 0 QHash<int, QByteArray>::alignOfNode()
PUBLIC 433e8 0 QHashNode<int, QByteArray>::QHashNode(int const&, QByteArray const&, unsigned int, QHashNode<int, QByteArray>*)
PUBLIC 43440 0 QTypedArrayData<int>::data()
PUBLIC 4345a 0 QHash<int, QByteArray>::concrete(QHashData::Node*)
PUBLIC 43468 0 QHash<int, QByteArray>::duplicateNode(QHashData::Node*, void*)
PUBLIC 434cc 0 qcm::AbstractContainer::qt_static_metacall(QObject*, QMetaObject::Call, int, void**)
PUBLIC 43552 0 qcm::AbstractContainer::metaObject() const
PUBLIC 4359a 0 qcm::AbstractContainer::qt_metacast(char const*)
PUBLIC 435ea 0 qcm::AbstractContainer::qt_metacall(QMetaObject::Call, int, void**)
PUBLIC 43697 0 QMetaTypeId<qcm::ContainerModel*>::qt_metatype_id()
PUBLIC 436f0 0 QPointer<qcm::ContainerModel>::~QPointer()
PUBLIC 4370c 0 qcm::AbstractContainer::~AbstractContainer()
PUBLIC 4374a 0 qcm::AbstractContainer::~AbstractContainer()
PUBLIC 43776 0 qcm::AbstractContainer::getModel()
PUBLIC 437c6 0 qcm::AbstractContainer::createModel()
PUBLIC 437d1 0 QMetaTypeId2<qcm::ContainerModel*>::qt_metatype_id()
PUBLIC 437dc 0 int qMetaTypeId<qcm::ContainerModel*>()
PUBLIC 437e7 0 int qRegisterMetaType<qcm::ContainerModel*>()
PUBLIC 437f2 0 int qRegisterMetaType<qcm::ContainerModel*>(char const*, qcm::ContainerModel**, QtPrivate::MetaTypeDefinedHelper<qcm::ContainerModel*, QMetaTypeId2<qcm::ContainerModel*>::Defined&&(!QMetaTypeId2<qcm::ContainerModel*>::IsBuiltIn)>::DefinedType)
PUBLIC 43862 0 QWeakPointer<QObject>::~QWeakPointer()
PUBLIC 438c6 0 QPointer<qcm::ContainerModel>::operator qcm::ContainerModel*() const
PUBLIC 438e0 0 QPointer<qcm::ContainerModel>::data() const
PUBLIC 438fa 0 QtPrivate::QMetaTypeIdHelper<qcm::ContainerModel*, true>::qt_metatype_id()
PUBLIC 43905 0 int qRegisterNormalizedMetaType<qcm::ContainerModel*>(QByteArray const&, qcm::ContainerModel**, QtPrivate::MetaTypeDefinedHelper<qcm::ContainerModel*, QMetaTypeId2<qcm::ContainerModel*>::Defined&&(!QMetaTypeId2<qcm::ContainerModel*>::IsBuiltIn)>::DefinedType)
PUBLIC 439ce 0 QWeakPointer<QObject>::data() const
PUBLIC 43a0e 0 QtMetaTypePrivate::QMetaTypeFunctionHelper<qcm::ContainerModel*, true>::Destruct(void*)
PUBLIC 43a19 0 QtMetaTypePrivate::QMetaTypeFunctionHelper<qcm::ContainerModel*, true>::Construct(void*, void const*)
PUBLIC 43a65 0 QtPrivate::MetaObjectForType<qcm::ContainerModel*, void>::value()
PUBLIC 43a72 0 QtPrivate::SequentialContainerConverterHelper<qcm::ContainerModel*, false>::registerConverter(int)
PUBLIC 43a80 0 QtPrivate::AssociativeContainerConverterHelper<qcm::ContainerModel*, false>::registerConverter(int)
PUBLIC 43a8e 0 QtPrivate::IsPair<qcm::ContainerModel*>::registerConverter(int)
PUBLIC 43a9c 0 QtPrivate::MetaTypeSmartPointerHelper<qcm::ContainerModel*, void>::registerConverter(int)
PUBLIC 43ab0 0 __libc_csu_init
PUBLIC 43b20 0 __libc_csu_fini
PUBLIC 43b24 0 _fini
STACK CFI INIT 12640 2b .cfa: $rsp 8 + .ra: .cfa -8 + ^
STACK CFI INIT 114f0 1140 .cfa: $rsp 16 + .ra: .cfa -8 + ^
STACK CFI 114f6 .cfa: $rsp 24 +
STACK CFI INIT 12630 8 .cfa: $rsp 8 + .ra: .cfa -8 + ^
STACK CFI INIT 12ac2 52 .cfa: $rsp 8 + .ra: .cfa -8 + ^
STACK CFI 12ac3 $rbp: .cfa -16 + ^ .cfa: $rsp 16 +
STACK CFI 12ac6 .cfa: $rbp 16 +
STACK CFI 12b13 .cfa: $rsp 8 +
STACK CFI INIT 12b14 38 .cfa: $rsp 8 + .ra: .cfa -8 + ^
STACK CFI 12b15 $rbp: .cfa -16 + ^ .cfa: $rsp 16 +
STACK CFI 12b18 .cfa: $rbp 16 +
STACK CFI 12b4b .cfa: $rsp 8 +
STACK CFI INIT 12b4c 14 .cfa: $rsp 8 + .ra: .cfa -8 + ^
STACK CFI 12b4d $rbp: .cfa -16 + ^ .cfa: $rsp 16 +
STACK CFI 12b50 .cfa: $rbp 16 +
STACK CFI 12b5f .cfa: $rsp 8 +
STACK CFI INIT 12b60 43 .cfa: $rsp 8 + .ra: .cfa -8 + ^
STACK CFI 12b61 $rbp: .cfa -16 + ^ .cfa: $rsp 16 +
STACK CFI 12b64 .cfa: $rbp 16 +
STACK CFI 12ba2 .cfa: $rsp 8 +
STACK CFI INIT 12ba4 1c .cfa: $rsp 8 + .ra: .cfa -8 + ^
STACK CFI 12ba5 $rbp: .cfa -16 + ^ .cfa: $rsp 16 +
STACK CFI 12ba8 .cfa: $rbp 16 +
STACK CFI 12bbf .cfa: $rsp 8 +
STACK CFI INIT 12bc0 14 .cfa: $rsp 8 + .ra: .cfa -8 + ^
STACK CFI 12bc1 $rbp: .cfa -16 + ^ .cfa: $rsp 16 +
STACK CFI 12bc4 .cfa: $rbp 16 +
STACK CFI 12bd3 .cfa: $rsp 8 +
STACK CFI INIT 12bd4 34 .cfa: $rsp 8 + .ra: .cfa -8 + ^
STACK CFI 12bd5 $rbp: .cfa -16 + ^ .cfa: $rsp 16 +
STACK CFI 12bd8 .cfa: $rbp 16 +
STACK CFI 12c07 .cfa: $rsp 8 +
STACK CFI INIT 12c08 1d .cfa: $rsp 8 + .ra: .cfa -8 + ^
STACK CFI 12c09 $rbp: .cfa -16 + ^ .cfa: $rsp 16 +
STACK CFI 12c0c .cfa: $rbp 16 +
STACK CFI 12c24 .cfa: $rsp 8 +
STACK CFI INIT 12c26 84 .cfa: $rsp 8 + .ra: .cfa -8 + ^
STACK CFI 12c27 $rbp: .cfa -16 + ^ .cfa: $rsp 16 +
STACK CFI 12c2a .cfa: $rbp 16 +
STACK CFI 12c2f $rbx: .cfa -24 + ^
STACK CFI 12ca9 .cfa: $rsp 8 +
STACK CFI INIT 12caa 29 .cfa: $rsp 8 + .ra: .cfa -8 + ^
STACK CFI 12cab $rbp: .cfa -16 + ^ .cfa: $rsp 16 +
STACK CFI 12cae .cfa: $rbp 16 +
STACK CFI 12cd2 .cfa: $rsp 8 +
STACK CFI INIT 12cd4 6b .cfa: $rsp 8 + .ra: .cfa -8 + ^
STACK CFI 12cd5 $rbp: .cfa -16 + ^ .cfa: $rsp 16 +
STACK CFI 12cd8 .cfa: $rbp 16 +
STACK CFI 12cdd $rbx: .cfa -24 + ^
STACK CFI 12d3e .cfa: $rsp 8 +
STACK CFI INIT 12d40 3a .cfa: $rsp 8 + .ra: .cfa -8 + ^
STACK CFI 12d41 $rbp: .cfa -16 + ^ .cfa: $rsp 16 +
STACK CFI 12d44 .cfa: $rbp 16 +
STACK CFI 12d79 .cfa: $rsp 8 +
STACK CFI INIT 12d7a c5 .cfa: $rsp 8 + .ra: .cfa -8 + ^
STACK CFI 12d7b $rbp: .cfa -16 + ^ .cfa: $rsp 16 +
STACK CFI 12d7e .cfa: $rbp 16 +
STACK CFI 12e3e .cfa: $rsp 8 +
STACK CFI INIT 12e40 19 .cfa: $rsp 8 + .ra: .cfa -8 + ^
STACK CFI 12e41 $rbp: .cfa -16 + ^ .cfa: $rsp 16 +
STACK CFI 12e44 .cfa: $rbp 16 +
STACK CFI 12e58 .cfa: $rsp 8 +
STACK CFI INIT 12e5a 39 .cfa: $rsp 8 + .ra: .cfa -8 + ^
STACK CFI 12e5b $rbp: .cfa -16 + ^ .cfa: $rsp 16 +
STACK CFI 12e5e .cfa: $rbp 16 +
STACK CFI 12e63 $rbx: .cfa -24 + ^
STACK CFI 12e92 .cfa: $rsp 8 +
STACK CFI INIT 12770 63 .cfa: $rsp 8 + .ra: .cfa -8 + ^
STACK CFI 12771 $rbp: .cfa -16 + ^ .cfa: $rsp 16 +
STACK CFI 12774 .cfa: $rbp 16 +
STACK CFI 127d2 .cfa: $rsp 8 +
STACK CFI INIT 12e94 2f .cfa: $rsp 8 + .ra: .cfa -8 + ^
STACK CFI 12e95 $rbp: .cfa -16 + ^ .cfa: $rsp 16 +
STACK CFI 12e98 .cfa: $rbp 16 +
STACK CFI 12ec2 .cfa: $rsp 8 +
STACK CFI INIT 127d4 113 .cfa: $rsp 8 + .ra: .cfa -8 + ^
STACK CFI 127d5 $rbp: .cfa -16 + ^ .cfa: $rsp 16 +
STACK CFI 127d8 .cfa: $rbp 16 +
STACK CFI 127e2 $r12: .cfa -24 + ^ $rbx: .cfa -32 + ^
STACK CFI 128e6 .cfa: $rsp 8 +
STACK CFI INIT 128e8 94 .cfa: $rsp 8 + .ra: .cfa -8 + ^
STACK CFI 128e9 $rbp: .cfa -16 + ^ .cfa: $rsp 16 +
STACK CFI 128ec .cfa: $rbp 16 +
STACK CFI 128ef $r12: .cfa -24 + ^ $rbx: .cfa -32 + ^
STACK CFI 1297b .cfa: $rsp 8 +
STACK CFI INIT 1297c 31 .cfa: $rsp 8 + .ra: .cfa -8 + ^
STACK CFI 1297d $rbp: .cfa -16 + ^ .cfa: $rsp 16 +
STACK CFI 12980 .cfa: $rbp 16 +
STACK CFI 12985 $rbx: .cfa -24 + ^
STACK CFI 129ac .cfa: $rsp 8 +
STACK CFI INIT 129ae 36 .cfa: $rsp 8 + .ra: .cfa -8 + ^
STACK CFI 129af $rbp: .cfa -16 + ^ .cfa: $rsp 16 +
STACK CFI 129b2 .cfa: $rbp 16 +
STACK CFI 129b7 $rbx: .cfa -24 + ^
STACK CFI 129e3 .cfa: $rsp 8 +
STACK CFI INIT 129e4 1d .cfa: $rsp 8 + .ra: .cfa -8 + ^
STACK CFI 129e5 $rbp: .cfa -16 + ^ .cfa: $rsp 16 +
STACK CFI 129e8 .cfa: $rbp 16 +
STACK CFI 12a00 .cfa: $rsp 8 +
STACK CFI INIT 12a02 95 .cfa: $rsp 8 + .ra: .cfa -8 + ^
STACK CFI 12a03 $rbp: .cfa -16 + ^ .cfa: $rsp 16 +
STACK CFI 12a06 .cfa: $rbp 16 +
STACK CFI 12a96 .cfa: $rsp 8 +
STACK CFI INIT 12a98 29 .cfa: $rsp 8 + .ra: .cfa -8 + ^
STACK CFI 12a99 $rbp: .cfa -16 + ^ .cfa: $rsp 16 +
STACK CFI 12a9c .cfa: $rbp 16 +
STACK CFI 12ac0 .cfa: $rsp 8 +
STACK CFI INIT 12ec4 1a .cfa: $rsp 8 + .ra: .cfa -8 + ^
STACK CFI 12ec5 $rbp: .cfa -16 + ^ .cfa: $rsp 16 +
STACK CFI 12ec8 .cfa: $rbp 16 +
STACK CFI 12edd .cfa: $rsp 8 +
STACK CFI INIT 12ede 1a .cfa: $rsp 8 + .ra: .cfa -8 + ^
STACK CFI 12edf $rbp: .cfa -16 + ^ .cfa: $rsp 16 +
STACK CFI 12ee2 .cfa: $rbp 16 +
STACK CFI 12ef7 .cfa: $rsp 8 +
STACK CFI INIT 12ef8 25 .cfa: $rsp 8 + .ra: .cfa -8 + ^
STACK CFI 12ef9 $rbp: .cfa -16 + ^ .cfa: $rsp 16 +
STACK CFI 12efc .cfa: $rbp 16 +
STACK CFI 12f1c .cfa: $rsp 8 +
STACK CFI INIT 12f1e 1a .cfa: $rsp 8 + .ra: .cfa -8 + ^
STACK CFI 12f1f $rbp: .cfa -16 + ^ .cfa: $rsp 16 +
STACK CFI 12f22 .cfa: $rbp 16 +
STACK CFI 12f37 .cfa: $rsp 8 +
STACK CFI INIT 12f38 36 .cfa: $rsp 8 + .ra: .cfa -8 + ^
STACK CFI 12f39 $rbp: .cfa -16 + ^ .cfa: $rsp 16 +
STACK CFI 12f3c .cfa: $rbp 16 +
STACK CFI 12f6d .cfa: $rsp 8 +
STACK CFI INIT 12f6e 1f .cfa: $rsp 8 + .ra: .cfa -8 + ^
STACK CFI 12f6f $rbp: .cfa -16 + ^ .cfa: $rsp 16 +
STACK CFI 12f72 .cfa: $rbp 16 +
STACK CFI 12f8c .cfa: $rsp 8 +
STACK CFI INIT 12f8e 1f .cfa: $rsp 8 + .ra: .cfa -8 + ^
STACK CFI 12f8f $rbp: .cfa -16 + ^ .cfa: $rsp 16 +
STACK CFI 12f92 .cfa: $rbp 16 +
STACK CFI 12fac .cfa: $rsp 8 +
STACK CFI INIT 13372 1d .cfa: $rsp 8 + .ra: .cfa -8 + ^
STACK CFI 13373 $rbp: .cfa -16 + ^ .cfa: $rsp 16 +
STACK CFI 13376 .cfa: $rbp 16 +
STACK CFI 1338e .cfa: $rsp 8 +
STACK CFI INIT 13390 1d .cfa: $rsp 8 + .ra: .cfa -8 + ^
STACK CFI 13391 $rbp: .cfa -16 + ^ .cfa: $rsp 16 +
STACK CFI 13394 .cfa: $rbp 16 +
STACK CFI 133ac .cfa: $rsp 8 +
STACK CFI INIT 133ae 2b .cfa: $rsp 8 + .ra: .cfa -8 + ^
STACK CFI 133af $rbp: .cfa -16 + ^ .cfa: $rsp 16 +
STACK CFI 133b2 .cfa: $rbp 16 +
STACK CFI 133d8 .cfa: $rsp 8 +
STACK CFI INIT 12fae 49 .cfa: $rsp 8 + .ra: .cfa -8 + ^
STACK CFI 12faf $rbp: .cfa -16 + ^ .cfa: $rsp 16 +
STACK CFI 12fb2 .cfa: $rbp 16 +
STACK CFI 12ff6 .cfa: $rsp 8 +
STACK CFI INIT 12ff7 59 .cfa: $rsp 8 + .ra: .cfa -8 + ^
STACK CFI 12ff8 $rbp: .cfa -16 + ^ .cfa: $rsp 16 +
STACK CFI 12ffb .cfa: $rbp 16 +
STACK CFI 1304f .cfa: $rsp 8 +
STACK CFI INIT 13050 5a .cfa: $rsp 8 + .ra: .cfa -8 + ^
STACK CFI 13051 $rbp: .cfa -16 + ^ .cfa: $rsp 16 +
STACK CFI 13054 .cfa: $rbp 16 +
STACK CFI 130a9 .cfa: $rsp 8 +
STACK CFI INIT 130aa 4b .cfa: $rsp 8 + .ra: .cfa -8 + ^
STACK CFI 130ab $rbp: .cfa -16 + ^ .cfa: $rsp 16 +
STACK CFI 130ae .cfa: $rbp 16 +
STACK CFI 130f4 .cfa: $rsp 8 +
STACK CFI INIT 130f6 36 .cfa: $rsp 8 + .ra: .cfa -8 + ^
STACK CFI 130f7 $rbp: .cfa -16 + ^ .cfa: $rsp 16 +
STACK CFI 130fa .cfa: $rbp 16 +
STACK CFI 1312b .cfa: $rsp 8 +
STACK CFI INIT 1312c 29 .cfa: $rsp 8 + .ra: .cfa -8 + ^
STACK CFI 1312d $rbp: .cfa -16 + ^ .cfa: $rsp 16 +
STACK CFI 13130 .cfa: $rbp 16 +
STACK CFI 13154 .cfa: $rsp 8 +
STACK CFI INIT 13156 2b .cfa: $rsp 8 + .ra: .cfa -8 + ^
STACK CFI 13157 $rbp: .cfa -16 + ^ .cfa: $rsp 16 +
STACK CFI 1315a .cfa: $rbp 16 +
STACK CFI 13180 .cfa: $rsp 8 +
STACK CFI INIT 13182 1b2 .cfa: $rsp 8 + .ra: .cfa -8 + ^
STACK CFI 13183 $rbp: .cfa -16 + ^ .cfa: $rsp 16 +
STACK CFI 13186 .cfa: $rbp 16 +
STACK CFI 13333 .cfa: $rsp 8 +
STACK CFI INIT 13334 3d .cfa: $rsp 8 + .ra: .cfa -8 + ^
STACK CFI 13335 $rbp: .cfa -16 + ^ .cfa: $rsp 16 +
STACK CFI 13338 .cfa: $rbp 16 +
STACK CFI 1333d $rbx: .cfa -24 + ^
STACK CFI 13370 .cfa: $rsp 8 +
STACK CFI INIT 1519e 12 .cfa: $rsp 8 + .ra: .cfa -8 + ^
STACK CFI 1519f $rbp: .cfa -16 + ^ .cfa: $rsp 16 +
STACK CFI 151a2 .cfa: $rbp 16 +
STACK CFI 151af .cfa: $rsp 8 +
STACK CFI INIT 151b0 16 .cfa: $rsp 8 + .ra: .cfa -8 + ^
STACK CFI 151b1 $rbp: .cfa -16 + ^ .cfa: $rsp 16 +
STACK CFI 151b4 .cfa: $rbp 16 +
STACK CFI 151c5 .cfa: $rsp 8 +
STACK CFI INIT 151c6 11 .cfa: $rsp 8 + .ra: .cfa -8 + ^
STACK CFI 151c7 $rbp: .cfa -16 + ^ .cfa: $rsp 16 +
STACK CFI 151ca .cfa: $rbp 16 +
STACK CFI 151d6 .cfa: $rsp 8 +
STACK CFI INIT 151d8 12 .cfa: $rsp 8 + .ra: .cfa -8 + ^
STACK CFI 151d9 $rbp: .cfa -16 + ^ .cfa: $rsp 16 +
STACK CFI 151dc .cfa: $rbp 16 +
STACK CFI 151e9 .cfa: $rsp 8 +
STACK CFI INIT 151ea 16 .cfa: $rsp 8 + .ra: .cfa -8 + ^
STACK CFI 151eb $rbp: .cfa -16 + ^ .cfa: $rsp 16 +
STACK CFI 151ee .cfa: $rbp 16 +
STACK CFI 151ff .cfa: $rsp 8 +
STACK CFI INIT 15200 12 .cfa: $rsp 8 + .ra: .cfa -8 + ^
STACK CFI 15201 $rbp: .cfa -16 + ^ .cfa: $rsp 16 +
STACK CFI 15204 .cfa: $rbp 16 +
STACK CFI 15211 .cfa: $rsp 8 +
STACK CFI INIT 15212 12 .cfa: $rsp 8 + .ra: .cfa -8 + ^
STACK CFI 15213 $rbp: .cfa -16 + ^ .cfa: $rsp 16 +
STACK CFI 15216 .cfa: $rbp 16 +
STACK CFI 15223 .cfa: $rsp 8 +
STACK CFI INIT 15224 12 .cfa: $rsp 8 + .ra: .cfa -8 + ^
STACK CFI 15225 $rbp: .cfa -16 + ^ .cfa: $rsp 16 +
STACK CFI 15228 .cfa: $rbp 16 +
STACK CFI 15235 .cfa: $rsp 8 +
STACK CFI INIT 15236 12 .cfa: $rsp 8 + .ra: .cfa -8 + ^
STACK CFI 15237 $rbp: .cfa -16 + ^ .cfa: $rsp 16 +
STACK CFI 1523a .cfa: $rbp 16 +
STACK CFI 15247 .cfa: $rsp 8 +
STACK CFI INIT 15248 45 .cfa: $rsp 8 + .ra: .cfa -8 + ^
STACK CFI 15249 $rbp: .cfa -16 + ^ .cfa: $rsp 16 +
STACK CFI 1524c .cfa: $rbp 16 +
STACK CFI 1528c .cfa: $rsp 8 +
STACK CFI INIT 133da cc .cfa: $rsp 8 + .ra: .cfa -8 + ^
STACK CFI 133db $rbp: .cfa -16 + ^ .cfa: $rsp 16 +
STACK CFI 133de .cfa: $rbp 16 +
STACK CFI 133e7 $r12: .cfa -32 + ^ $r13: .cfa -24 + ^ $rbx: .cfa -40 + ^
STACK CFI 134a5 .cfa: $rsp 8 +
STACK CFI INIT 134a6 49 .cfa: $rsp 8 + .ra: .cfa -8 + ^
STACK CFI 134a7 $rbp: .cfa -16 + ^ .cfa: $rsp 16 +
STACK CFI 134aa .cfa: $rbp 16 +
STACK CFI 134ee .cfa: $rsp 8 +
STACK CFI INIT 134ef 3d .cfa: $rsp 8 + .ra: .cfa -8 + ^
STACK CFI 134f0 $rbp: .cfa -16 + ^ .cfa: $rsp 16 +
STACK CFI 134f3 .cfa: $rbp 16 +
STACK CFI 1352b .cfa: $rsp 8 +
STACK CFI INIT 1352c 3d .cfa: $rsp 8 + .ra: .cfa -8 + ^
STACK CFI 1352d $rbp: .cfa -16 + ^ .cfa: $rsp 16 +
STACK CFI 13530 .cfa: $rbp 16 +
STACK CFI 13568 .cfa: $rsp 8 +
STACK CFI INIT 13569 53 .cfa: $rsp 8 + .ra: .cfa -8 + ^
STACK CFI 1356a $rbp: .cfa -16 + ^ .cfa: $rsp 16 +
STACK CFI 1356d .cfa: $rbp 16 +
STACK CFI 135bb .cfa: $rsp 8 +
STACK CFI INIT 135bc 72 .cfa: $rsp 8 + .ra: .cfa -8 + ^
STACK CFI 135bd $rbp: .cfa -16 + ^ .cfa: $rsp 16 +
STACK CFI 135c0 .cfa: $rbp 16 +
STACK CFI 135c5 $rbx: .cfa -24 + ^
STACK CFI 1362d .cfa: $rsp 8 +
STACK CFI INIT 1362e 59 .cfa: $rsp 8 + .ra: .cfa -8 + ^
STACK CFI 1362f $rbp: .cfa -16 + ^ .cfa: $rsp 16 +
STACK CFI 13632 .cfa: $rbp 16 +
STACK CFI 13686 .cfa: $rsp 8 +
STACK CFI INIT 13687 56 .cfa: $rsp 8 + .ra: .cfa -8 + ^
STACK CFI 13688 $rbp: .cfa -16 + ^ .cfa: $rsp 16 +
STACK CFI 1368b .cfa: $rbp 16 +
STACK CFI 136dc .cfa: $rsp 8 +
STACK CFI INIT 136dd 58 .cfa: $rsp 8 + .ra: .cfa -8 + ^
STACK CFI 136de $rbp: .cfa -16 + ^ .cfa: $rsp 16 +
STACK CFI 136e1 .cfa: $rbp 16 +
STACK CFI 13734 .cfa: $rsp 8 +
STACK CFI INIT 13735 59 .cfa: $rsp 8 + .ra: .cfa -8 + ^
STACK CFI 13736 $rbp: .cfa -16 + ^ .cfa: $rsp 16 +
STACK CFI 13739 .cfa: $rbp 16 +
STACK CFI 1378d .cfa: $rsp 8 +
STACK CFI INIT 1378e 68 .cfa: $rsp 8 + .ra: .cfa -8 + ^
STACK CFI 1378f $rbp: .cfa -16 + ^ .cfa: $rsp 16 +
STACK CFI 13792 .cfa: $rbp 16 +
STACK CFI 137f5 .cfa: $rsp 8 +
STACK CFI INIT 137f6 8e .cfa: $rsp 8 + .ra: .cfa -8 + ^
STACK CFI 137f7 $rbp: .cfa -16 + ^ .cfa: $rsp 16 +
STACK CFI 137fa .cfa: $rbp 16 +
STACK CFI 13803 $r12: .cfa -32 + ^ $r13: .cfa -24 + ^ $rbx: .cfa -40 + ^
STACK CFI 13883 .cfa: $rsp 8 +
STACK CFI INIT 13884 4b .cfa: $rsp 8 + .ra: .cfa -8 + ^
STACK CFI 13885 $rbp: .cfa -16 + ^ .cfa: $rsp 16 +
STACK CFI 13888 .cfa: $rbp 16 +
STACK CFI 138ce .cfa: $rsp 8 +
STACK CFI INIT 138cf 22 .cfa: $rsp 8 + .ra: .cfa -8 + ^
STACK CFI 138d0 $rbp: .cfa -16 + ^ .cfa: $rsp 16 +
STACK CFI 138d3 .cfa: $rbp 16 +
STACK CFI 138f0 .cfa: $rsp 8 +
STACK CFI INIT 138f1 2a .cfa: $rsp 8 + .ra: .cfa -8 + ^
STACK CFI 138f2 $rbp: .cfa -16 + ^ .cfa: $rsp 16 +
STACK CFI 138f5 .cfa: $rbp 16 +
STACK CFI 1391a .cfa: $rsp 8 +
STACK CFI INIT 1528e 4e .cfa: $rsp 8 + .ra: .cfa -8 + ^
STACK CFI 1528f $rbp: .cfa -16 + ^ .cfa: $rsp 16 +
STACK CFI 15292 .cfa: $rbp 16 +
STACK CFI 152db .cfa: $rsp 8 +
STACK CFI INIT 152dc 1b .cfa: $rsp 8 + .ra: .cfa -8 + ^
STACK CFI 152dd $rbp: .cfa -16 + ^ .cfa: $rsp 16 +
STACK CFI 152e0 .cfa: $rbp 16 +
STACK CFI 152f6 .cfa: $rsp 8 +
STACK CFI INIT 152f8 177 .cfa: $rsp 8 + .ra: .cfa -8 + ^
STACK CFI 152f9 $rbp: .cfa -16 + ^ .cfa: $rsp 16 +
STACK CFI 152fc .cfa: $rbp 16 +
STACK CFI 1546e .cfa: $rsp 8 +
STACK CFI INIT 15470 9d .cfa: $rsp 8 + .ra: .cfa -8 + ^
STACK CFI 15471 $rbp: .cfa -16 + ^ .cfa: $rsp 16 +
STACK CFI 15474 .cfa: $rbp 16 +
STACK CFI 1550c .cfa: $rsp 8 +
STACK CFI INIT 1550e 59 .cfa: $rsp 8 + .ra: .cfa -8 + ^
STACK CFI 1550f $rbp: .cfa -16 + ^ .cfa: $rsp 16 +
STACK CFI 15512 .cfa: $rbp 16 +
STACK CFI 15566 .cfa: $rsp 8 +
STACK CFI INIT 15568 1c .cfa: $rsp 8 + .ra: .cfa -8 + ^
STACK CFI 15569 $rbp: .cfa -16 + ^ .cfa: $rsp 16 +
STACK CFI 1556c .cfa: $rbp 16 +
STACK CFI 15583 .cfa: $rsp 8 +
STACK CFI INIT 15584 24 .cfa: $rsp 8 + .ra: .cfa -8 + ^
STACK CFI 15585 $rbp: .cfa -16 + ^ .cfa: $rsp 16 +
STACK CFI 15588 .cfa: $rbp 16 +
STACK CFI 155a7 .cfa: $rsp 8 +
STACK CFI INIT 1391b d9 .cfa: $rsp 8 + .ra: .cfa -8 + ^
STACK CFI 1391c $rbp: .cfa -16 + ^ .cfa: $rsp 16 +
STACK CFI 1391f .cfa: $rbp 16 +
STACK CFI 139f3 .cfa: $rsp 8 +
STACK CFI INIT 139f4 b1 .cfa: $rsp 8 + .ra: .cfa -8 + ^
STACK CFI 139f5 $rbp: .cfa -16 + ^ .cfa: $rsp 16 +
STACK CFI 139f8 .cfa: $rbp 16 +
STACK CFI 13aa4 .cfa: $rsp 8 +
STACK CFI INIT 13aa5 1d .cfa: $rsp 8 + .ra: .cfa -8 + ^
STACK CFI 13aa6 $rbp: .cfa -16 + ^ .cfa: $rsp 16 +
STACK CFI 13aa9 .cfa: $rbp 16 +
STACK CFI 13ac1 .cfa: $rsp 8 +
STACK CFI INIT 155a8 1b .cfa: $rsp 8 + .ra: .cfa -8 + ^
STACK CFI 155a9 $rbp: .cfa -16 + ^ .cfa: $rsp 16 +
STACK CFI 155ac .cfa: $rbp 16 +
STACK CFI 155c2 .cfa: $rsp 8 +
STACK CFI INIT 155c4 1b .cfa: $rsp 8 + .ra: .cfa -8 + ^
STACK CFI 155c5 $rbp: .cfa -16 + ^ .cfa: $rsp 16 +
STACK CFI 155c8 .cfa: $rbp 16 +
STACK CFI 155de .cfa: $rsp 8 +
STACK CFI INIT 13ac2 22a .cfa: $rsp 8 + .ra: .cfa -8 + ^
STACK CFI 13ac3 $rbp: .cfa -16 + ^ .cfa: $rsp 16 +
STACK CFI 13ac6 .cfa: $rbp 16 +
STACK CFI 13acb $rbx: .cfa -24 + ^
STACK CFI 13ceb .cfa: $rsp 8 +
STACK CFI INIT 13cec 125 .cfa: $rsp 8 + .ra: .cfa -8 + ^
STACK CFI 13ced $rbp: .cfa -16 + ^ .cfa: $rsp 16 +
STACK CFI 13cf0 .cfa: $rbp 16 +
STACK CFI 13cf5 $rbx: .cfa -24 + ^
STACK CFI 13e10 .cfa: $rsp 8 +
STACK CFI INIT 13e12 15f .cfa: $rsp 8 + .ra: .cfa -8 + ^
STACK CFI 13e13 $rbp: .cfa -16 + ^ .cfa: $rsp 16 +
STACK CFI 13e16 .cfa: $rbp 16 +
STACK CFI 13f70 .cfa: $rsp 8 +
STACK CFI INIT 13f72 ac .cfa: $rsp 8 + .ra: .cfa -8 + ^
STACK CFI 13f73 $rbp: .cfa -16 + ^ .cfa: $rsp 16 +
STACK CFI 13f76 .cfa: $rbp 16 +
STACK CFI 1401d .cfa: $rsp 8 +
STACK CFI INIT 1401e 22b .cfa: $rsp 8 + .ra: .cfa -8 + ^
STACK CFI 1401f $rbp: .cfa -16 + ^ .cfa: $rsp 16 +
STACK CFI 14022 .cfa: $rbp 16 +
STACK CFI 1402a $rbx: .cfa -24 + ^
STACK CFI 14248 .cfa: $rsp 8 +
STACK CFI INIT 1424a 7c .cfa: $rsp 8 + .ra: .cfa -8 + ^
STACK CFI 1424b $rbp: .cfa -16 + ^ .cfa: $rsp 16 +
STACK CFI 1424e .cfa: $rbp 16 +
STACK CFI 142c5 .cfa: $rsp 8 +
STACK CFI INIT 142c6 1ca .cfa: $rsp 8 + .ra: .cfa -8 + ^
STACK CFI 142c7 $rbp: .cfa -16 + ^ .cfa: $rsp 16 +
STACK CFI 142ca .cfa: $rbp 16 +
STACK CFI 142cf $rbx: .cfa -24 + ^
STACK CFI 1448f .cfa: $rsp 8 +
STACK CFI INIT 14490 6c .cfa: $rsp 8 + .ra: .cfa -8 + ^
STACK CFI 14491 $rbp: .cfa -16 + ^ .cfa: $rsp 16 +
STACK CFI 14494 .cfa: $rbp 16 +
STACK CFI 144fb .cfa: $rsp 8 +
STACK CFI INIT 144fc 39b .cfa: $rsp 8 + .ra: .cfa -8 + ^
STACK CFI 144fd $rbp: .cfa -16 + ^ .cfa: $rsp 16 +
STACK CFI 14500 .cfa: $rbp 16 +
STACK CFI 14508 $rbx: .cfa -24 + ^
STACK CFI 14896 .cfa: $rsp 8 +
STACK CFI INIT 14898 ac .cfa: $rsp 8 + .ra: .cfa -8 + ^
STACK CFI 14899 $rbp: .cfa -16 + ^ .cfa: $rsp 16 +
STACK CFI 1489c .cfa: $rbp 16 +
STACK CFI 148a1 $rbx: .cfa -24 + ^
STACK CFI 14943 .cfa: $rsp 8 +
STACK CFI INIT 14944 ac .cfa: $rsp 8 + .ra: .cfa -8 + ^
STACK CFI 14945 $rbp: .cfa -16 + ^ .cfa: $rsp 16 +
STACK CFI 14948 .cfa: $rbp 16 +
STACK CFI 1494d $rbx: .cfa -24 + ^
STACK CFI 149ef .cfa: $rsp 8 +
STACK CFI INIT 149f0 1bc .cfa: $rsp 8 + .ra: .cfa -8 + ^
STACK CFI 149f1 $rbp: .cfa -16 + ^ .cfa: $rsp 16 +
STACK CFI 149f4 .cfa: $rbp 16 +
STACK CFI 14a01 $r12: .cfa -48 + ^ $r13: .cfa -40 + ^ $r14: .cfa -32 + ^ $r15: .cfa -24 + ^ $rbx: .cfa -56 + ^
STACK CFI 14bab .cfa: $rsp 8 +
STACK CFI INIT 14bac e3 .cfa: $rsp 8 + .ra: .cfa -8 + ^
STACK CFI 14bad $rbp: .cfa -16 + ^ .cfa: $rsp 16 +
STACK CFI 14bb0 .cfa: $rbp 16 +
STACK CFI 14bb8 $rbx: .cfa -24 + ^
STACK CFI 14c8e .cfa: $rsp 8 +
STACK CFI INIT 14c90 1aa .cfa: $rsp 8 + .ra: .cfa -8 + ^
STACK CFI 14c91 $rbp: .cfa -16 + ^ .cfa: $rsp 16 +
STACK CFI 14c94 .cfa: $rbp 16 +
STACK CFI 14e39 .cfa: $rsp 8 +
STACK CFI INIT 14e3a eb .cfa: $rsp 8 + .ra: .cfa -8 + ^
STACK CFI 14e3b $rbp: .cfa -16 + ^ .cfa: $rsp 16 +
STACK CFI 14e3e .cfa: $rbp 16 +
STACK CFI 14f24 .cfa: $rsp 8 +
STACK CFI INIT 14f26 b6 .cfa: $rsp 8 + .ra: .cfa -8 + ^
STACK CFI 14f27 $rbp: .cfa -16 + ^ .cfa: $rsp 16 +
STACK CFI 14f2a .cfa: $rbp 16 +
STACK CFI 14f2f $rbx: .cfa -24 + ^
STACK CFI 14fdb .cfa: $rsp 8 +
STACK CFI INIT 14fdc b3 .cfa: $rsp 8 + .ra: .cfa -8 + ^
STACK CFI 14fdd $rbp: .cfa -16 + ^ .cfa: $rsp 16 +
STACK CFI 14fe0 .cfa: $rbp 16 +
STACK CFI 14fe5 $rbx: .cfa -24 + ^
STACK CFI 1508e .cfa: $rsp 8 +
STACK CFI INIT 15090 f8 .cfa: $rsp 8 + .ra: .cfa -8 + ^
STACK CFI 15091 $rbp: .cfa -16 + ^ .cfa: $rsp 16 +
STACK CFI 15094 .cfa: $rbp 16 +
STACK CFI 1509c $rbx: .cfa -24 + ^
STACK CFI 15187 .cfa: $rsp 8 +
STACK CFI INIT 15188 16 .cfa: $rsp 8 + .ra: .cfa -8 + ^
STACK CFI 15189 $rbp: .cfa -16 + ^ .cfa: $rsp 16 +
STACK CFI 1518c .cfa: $rbp 16 +
STACK CFI 1519d .cfa: $rsp 8 +
STACK CFI INIT 155e0 54 .cfa: $rsp 8 + .ra: .cfa -8 + ^
STACK CFI 155e1 $rbp: .cfa -16 + ^ .cfa: $rsp 16 +
STACK CFI 155e4 .cfa: $rbp 16 +
STACK CFI 15633 .cfa: $rsp 8 +
STACK CFI INIT 15634 11 .cfa: $rsp 8 + .ra: .cfa -8 + ^
STACK CFI 15635 $rbp: .cfa -16 + ^ .cfa: $rsp 16 +
STACK CFI 15638 .cfa: $rbp 16 +
STACK CFI 15644 .cfa: $rsp 8 +
STACK CFI INIT 15646 1a .cfa: $rsp 8 + .ra: .cfa -8 + ^
STACK CFI 15647 $rbp: .cfa -16 + ^ .cfa: $rsp 16 +
STACK CFI 1564a .cfa: $rbp 16 +
STACK CFI 1565f .cfa: $rsp 8 +
STACK CFI INIT 15660 38 .cfa: $rsp 8 + .ra: .cfa -8 + ^
STACK CFI 15661 $rbp: .cfa -16 + ^ .cfa: $rsp 16 +
STACK CFI 15664 .cfa: $rbp 16 +
STACK CFI 15697 .cfa: $rsp 8 +
STACK CFI INIT 15698 1b .cfa: $rsp 8 + .ra: .cfa -8 + ^
STACK CFI 15699 $rbp: .cfa -16 + ^ .cfa: $rsp 16 +
STACK CFI 1569c .cfa: $rbp 16 +
STACK CFI 156b2 .cfa: $rsp 8 +
STACK CFI INIT 156b4 1b .cfa: $rsp 8 + .ra: .cfa -8 + ^
STACK CFI 156b5 $rbp: .cfa -16 + ^ .cfa: $rsp 16 +
STACK CFI 156b8 .cfa: $rbp 16 +
STACK CFI 156ce .cfa: $rsp 8 +
STACK CFI INIT 156d0 27 .cfa: $rsp 8 + .ra: .cfa -8 + ^
STACK CFI 156d1 $rbp: .cfa -16 + ^ .cfa: $rsp 16 +
STACK CFI 156d4 .cfa: $rbp 16 +
STACK CFI 156f6 .cfa: $rsp 8 +
STACK CFI INIT 156f8 1b .cfa: $rsp 8 + .ra: .cfa -8 + ^
STACK CFI 156f9 $rbp: .cfa -16 + ^ .cfa: $rsp 16 +
STACK CFI 156fc .cfa: $rbp 16 +
STACK CFI 15712 .cfa: $rsp 8 +
STACK CFI INIT 15714 1b .cfa: $rsp 8 + .ra: .cfa -8 + ^
STACK CFI 15715 $rbp: .cfa -16 + ^ .cfa: $rsp 16 +
STACK CFI 15718 .cfa: $rbp 16 +
STACK CFI 1572e .cfa: $rsp 8 +
STACK CFI INIT 15730 27 .cfa: $rsp 8 + .ra: .cfa -8 + ^
STACK CFI 15731 $rbp: .cfa -16 + ^ .cfa: $rsp 16 +
STACK CFI 15734 .cfa: $rbp 16 +
STACK CFI 15756 .cfa: $rsp 8 +
STACK CFI INIT 15758 1b .cfa: $rsp 8 + .ra: .cfa -8 + ^
STACK CFI 15759 $rbp: .cfa -16 + ^ .cfa: $rsp 16 +
STACK CFI 1575c .cfa: $rbp 16 +
STACK CFI 15772 .cfa: $rsp 8 +
STACK CFI INIT 15773 e .cfa: $rsp 8 + .ra: .cfa -8 + ^
STACK CFI 15774 $rbp: .cfa -16 + ^ .cfa: $rsp 16 +
STACK CFI 15777 .cfa: $rbp 16 +
STACK CFI 15780 .cfa: $rsp 8 +
STACK CFI INIT 15782 31 .cfa: $rsp 8 + .ra: .cfa -8 + ^
STACK CFI 15783 $rbp: .cfa -16 + ^ .cfa: $rsp 16 +
STACK CFI 15786 .cfa: $rbp 16 +
STACK CFI 157b2 .cfa: $rsp 8 +
STACK CFI INIT 157b4 25 .cfa: $rsp 8 + .ra: .cfa -8 + ^
STACK CFI 157b5 $rbp: .cfa -16 + ^ .cfa: $rsp 16 +
STACK CFI 157b8 .cfa: $rbp 16 +
STACK CFI 157d8 .cfa: $rsp 8 +
STACK CFI INIT 157da 29 .cfa: $rsp 8 + .ra: .cfa -8 + ^
STACK CFI 157db $rbp: .cfa -16 + ^ .cfa: $rsp 16 +
STACK CFI 157de .cfa: $rbp 16 +
STACK CFI 15802 .cfa: $rsp 8 +
STACK CFI INIT 15803 38 .cfa: $rsp 8 + .ra: .cfa -8 + ^
STACK CFI 15804 $rbp: .cfa -16 + ^ .cfa: $rsp 16 +
STACK CFI 15807 .cfa: $rbp 16 +
STACK CFI 1583a .cfa: $rsp 8 +
STACK CFI INIT 1583c 29 .cfa: $rsp 8 + .ra: .cfa -8 + ^
STACK CFI 1583d $rbp: .cfa -16 + ^ .cfa: $rsp 16 +
STACK CFI 15840 .cfa: $rbp 16 +
STACK CFI 15864 .cfa: $rsp 8 +
STACK CFI INIT 15866 6f .cfa: $rsp 8 + .ra: .cfa -8 + ^
STACK CFI 15867 $rbp: .cfa -16 + ^ .cfa: $rsp 16 +
STACK CFI 1586a .cfa: $rbp 16 +
STACK CFI 1586f $rbx: .cfa -24 + ^
STACK CFI 158d4 .cfa: $rsp 8 +
STACK CFI INIT 158d6 41 .cfa: $rsp 8 + .ra: .cfa -8 + ^
STACK CFI 158d7 $rbp: .cfa -16 + ^ .cfa: $rsp 16 +
STACK CFI 158da .cfa: $rbp 16 +
STACK CFI 15916 .cfa: $rsp 8 +
STACK CFI INIT 15918 44 .cfa: $rsp 8 + .ra: .cfa -8 + ^
STACK CFI 15919 $rbp: .cfa -16 + ^ .cfa: $rsp 16 +
STACK CFI 1591c .cfa: $rbp 16 +
STACK CFI 1595b .cfa: $rsp 8 +
STACK CFI INIT 1595c 26 .cfa: $rsp 8 + .ra: .cfa -8 + ^
STACK CFI 1595d $rbp: .cfa -16 + ^ .cfa: $rsp 16 +
STACK CFI 15960 .cfa: $rbp 16 +
STACK CFI 15981 .cfa: $rsp 8 +
STACK CFI INIT 15982 20 .cfa: $rsp 8 + .ra: .cfa -8 + ^
STACK CFI 15983 $rbp: .cfa -16 + ^ .cfa: $rsp 16 +
STACK CFI 15986 .cfa: $rbp 16 +
STACK CFI 159a1 .cfa: $rsp 8 +
STACK CFI INIT 159a2 40 .cfa: $rsp 8 + .ra: .cfa -8 + ^
STACK CFI 159a3 $rbp: .cfa -16 + ^ .cfa: $rsp 16 +
STACK CFI 159a6 .cfa: $rbp 16 +
STACK CFI 159e1 .cfa: $rsp 8 +
STACK CFI INIT 159e2 b .cfa: $rsp 8 + .ra: .cfa -8 + ^
STACK CFI 159e3 $rbp: .cfa -16 + ^ .cfa: $rsp 16 +
STACK CFI 159e6 .cfa: $rbp 16 +
STACK CFI 159ec .cfa: $rsp 8 +
STACK CFI INIT 159ee 35 .cfa: $rsp 8 + .ra: .cfa -8 + ^
STACK CFI 159ef $rbp: .cfa -16 + ^ .cfa: $rsp 16 +
STACK CFI 159f2 .cfa: $rbp 16 +
STACK CFI 15a22 .cfa: $rsp 8 +
STACK CFI INIT 15a24 28 .cfa: $rsp 8 + .ra: .cfa -8 + ^
STACK CFI 15a25 $rbp: .cfa -16 + ^ .cfa: $rsp 16 +
STACK CFI 15a28 .cfa: $rbp 16 +
STACK CFI 15a4b .cfa: $rsp 8 +
STACK CFI INIT 15a4c 25 .cfa: $rsp 8 + .ra: .cfa -8 + ^
STACK CFI 15a4d $rbp: .cfa -16 + ^ .cfa: $rsp 16 +
STACK CFI 15a50 .cfa: $rbp 16 +
STACK CFI 15a70 .cfa: $rsp 8 +
STACK CFI INIT 15a71 38 .cfa: $rsp 8 + .ra: .cfa -8 + ^
STACK CFI 15a72 $rbp: .cfa -16 + ^ .cfa: $rsp 16 +
STACK CFI 15a75 .cfa: $rbp 16 +
STACK CFI 15aa8 .cfa: $rsp 8 +
STACK CFI INIT 15aaa 22 .cfa: $rsp 8 + .ra: .cfa -8 + ^
STACK CFI 15aab $rbp: .cfa -16 + ^ .cfa: $rsp 16 +
STACK CFI 15aae .cfa: $rbp 16 +
STACK CFI 15acb .cfa: $rsp 8 +
STACK CFI INIT 15acc 35 .cfa: $rsp 8 + .ra: .cfa -8 + ^
STACK CFI 15acd $rbp: .cfa -16 + ^ .cfa: $rsp 16 +
STACK CFI 15ad0 .cfa: $rbp 16 +
STACK CFI 15b00 .cfa: $rsp 8 +
STACK CFI INIT 15b02 1d .cfa: $rsp 8 + .ra: .cfa -8 + ^
STACK CFI 15b03 $rbp: .cfa -16 + ^ .cfa: $rsp 16 +
STACK CFI 15b06 .cfa: $rbp 16 +
STACK CFI 15b1e .cfa: $rsp 8 +
STACK CFI INIT 15b20 4a .cfa: $rsp 8 + .ra: .cfa -8 + ^
STACK CFI 15b21 $rbp: .cfa -16 + ^ .cfa: $rsp 16 +
STACK CFI 15b24 .cfa: $rbp 16 +
STACK CFI 15b69 .cfa: $rsp 8 +
STACK CFI INIT 15b6a 27 .cfa: $rsp 8 + .ra: .cfa -8 + ^
STACK CFI 15b6b $rbp: .cfa -16 + ^ .cfa: $rsp 16 +
STACK CFI 15b6e .cfa: $rbp 16 +
STACK CFI 15b90 .cfa: $rsp 8 +
STACK CFI INIT 15b92 1b .cfa: $rsp 8 + .ra: .cfa -8 + ^
STACK CFI 15b93 $rbp: .cfa -16 + ^ .cfa: $rsp 16 +
STACK CFI 15b96 .cfa: $rbp 16 +
STACK CFI 15bac .cfa: $rsp 8 +
STACK CFI INIT 15bae 7a .cfa: $rsp 8 + .ra: .cfa -8 + ^
STACK CFI 15baf $rbp: .cfa -16 + ^ .cfa: $rsp 16 +
STACK CFI 15bb2 .cfa: $rbp 16 +
STACK CFI 15c27 .cfa: $rsp 8 +
STACK CFI INIT 15c28 27 .cfa: $rsp 8 + .ra: .cfa -8 + ^
STACK CFI 15c29 $rbp: .cfa -16 + ^ .cfa: $rsp 16 +
STACK CFI 15c2c .cfa: $rbp 16 +
STACK CFI 15c4e .cfa: $rsp 8 +
STACK CFI INIT 15c50 1b .cfa: $rsp 8 + .ra: .cfa -8 + ^
STACK CFI 15c51 $rbp: .cfa -16 + ^ .cfa: $rsp 16 +
STACK CFI 15c54 .cfa: $rbp 16 +
STACK CFI 15c6a .cfa: $rsp 8 +
STACK CFI INIT 15c6c 7a .cfa: $rsp 8 + .ra: .cfa -8 + ^
STACK CFI 15c6d $rbp: .cfa -16 + ^ .cfa: $rsp 16 +
STACK CFI 15c70 .cfa: $rbp 16 +
STACK CFI 15ce5 .cfa: $rsp 8 +
STACK CFI INIT 15ce6 1b .cfa: $rsp 8 + .ra: .cfa -8 + ^
STACK CFI 15ce7 $rbp: .cfa -16 + ^ .cfa: $rsp 16 +
STACK CFI 15cea .cfa: $rbp 16 +
STACK CFI 15d00 .cfa: $rsp 8 +
STACK CFI INIT 15d02 1b .cfa: $rsp 8 + .ra: .cfa -8 + ^
STACK CFI 15d03 $rbp: .cfa -16 + ^ .cfa: $rsp 16 +
STACK CFI 15d06 .cfa: $rbp 16 +
STACK CFI 15d1c .cfa: $rsp 8 +
STACK CFI INIT 15d1e 50 .cfa: $rsp 8 + .ra: .cfa -8 + ^
STACK CFI 15d1f $rbp: .cfa -16 + ^ .cfa: $rsp 16 +
STACK CFI 15d22 .cfa: $rbp 16 +
STACK CFI 15d6d .cfa: $rsp 8 +
STACK CFI INIT 15d6e e .cfa: $rsp 8 + .ra: .cfa -8 + ^
STACK CFI 15d6f $rbp: .cfa -16 + ^ .cfa: $rsp 16 +
STACK CFI 15d72 .cfa: $rbp 16 +
STACK CFI 15d7b .cfa: $rsp 8 +
STACK CFI INIT 15d7c 82 .cfa: $rsp 8 + .ra: .cfa -8 + ^
STACK CFI 15d7d $rbp: .cfa -16 + ^ .cfa: $rsp 16 +
STACK CFI 15d80 .cfa: $rbp 16 +
STACK CFI 15dfd .cfa: $rsp 8 +
STACK CFI INIT 15dfe 1d .cfa: $rsp 8 + .ra: .cfa -8 + ^
STACK CFI 15dff $rbp: .cfa -16 + ^ .cfa: $rsp 16 +
STACK CFI 15e02 .cfa: $rbp 16 +
STACK CFI 15e1a .cfa: $rsp 8 +
STACK CFI INIT 15e1b 25 .cfa: $rsp 8 + .ra: .cfa -8 + ^
STACK CFI 15e1c $rbp: .cfa -16 + ^ .cfa: $rsp 16 +
STACK CFI 15e1f .cfa: $rbp 16 +
STACK CFI 15e3f .cfa: $rsp 8 +
STACK CFI INIT 15e40 47 .cfa: $rsp 8 + .ra: .cfa -8 + ^
STACK CFI 15e41 $rbp: .cfa -16 + ^ .cfa: $rsp 16 +
STACK CFI 15e44 .cfa: $rbp 16 +
STACK CFI 15e49 $rbx: .cfa -24 + ^
STACK CFI 15e86 .cfa: $rsp 8 +
STACK CFI INIT 15e88 e .cfa: $rsp 8 + .ra: .cfa -8 + ^
STACK CFI 15e89 $rbp: .cfa -16 + ^ .cfa: $rsp 16 +
STACK CFI 15e8c .cfa: $rbp 16 +
STACK CFI 15e95 .cfa: $rsp 8 +
STACK CFI INIT 15e96 30 .cfa: $rsp 8 + .ra: .cfa -8 + ^
STACK CFI 15e97 $rbp: .cfa -16 + ^ .cfa: $rsp 16 +
STACK CFI 15e9a .cfa: $rbp 16 +
STACK CFI 15ec5 .cfa: $rsp 8 +
STACK CFI INIT 15ec6 43 .cfa: $rsp 8 + .ra: .cfa -8 + ^
STACK CFI 15ec7 $rbp: .cfa -16 + ^ .cfa: $rsp 16 +
STACK CFI 15eca .cfa: $rbp 16 +
STACK CFI 15ecf $rbx: .cfa -24 + ^
STACK CFI 15f08 .cfa: $rsp 8 +
STACK CFI INIT 15f0a 3f .cfa: $rsp 8 + .ra: .cfa -8 + ^
STACK CFI 15f0b $rbp: .cfa -16 + ^ .cfa: $rsp 16 +
STACK CFI 15f0e .cfa: $rbp 16 +
STACK CFI 15f48 .cfa: $rsp 8 +
STACK CFI INIT 15f4a b8 .cfa: $rsp 8 + .ra: .cfa -8 + ^
STACK CFI 15f4b $rbp: .cfa -16 + ^ .cfa: $rsp 16 +
STACK CFI 15f4e .cfa: $rbp 16 +
STACK CFI 15f53 $rbx: .cfa -24 + ^
STACK CFI 16001 .cfa: $rsp 8 +
STACK CFI INIT 16002 30 .cfa: $rsp 8 + .ra: .cfa -8 + ^
STACK CFI 16003 $rbp: .cfa -16 + ^ .cfa: $rsp 16 +
STACK CFI 16006 .cfa: $rbp 16 +
STACK CFI 16031 .cfa: $rsp 8 +
STACK CFI INIT 16032 31 .cfa: $rsp 8 + .ra: .cfa -8 + ^
STACK CFI 16033 $rbp: .cfa -16 + ^ .cfa: $rsp 16 +
STACK CFI 16036 .cfa: $rbp 16 +
STACK CFI 16062 .cfa: $rsp 8 +
STACK CFI INIT 16063 3c .cfa: $rsp 8 + .ra: .cfa -8 + ^
STACK CFI 16064 $rbp: .cfa -16 + ^ .cfa: $rsp 16 +
STACK CFI 16067 .cfa: $rbp 16 +
STACK CFI 1606c $rbx: .cfa -24 + ^
STACK CFI 1609e .cfa: $rsp 8 +
STACK CFI INIT 160a0 e .cfa: $rsp 8 + .ra: .cfa -8 + ^
STACK CFI 160a1 $rbp: .cfa -16 + ^ .cfa: $rsp 16 +
STACK CFI 160a4 .cfa: $rbp 16 +
STACK CFI 160ad .cfa: $rsp 8 +
STACK CFI INIT 160ae 2a .cfa: $rsp 8 + .ra: .cfa -8 + ^
STACK CFI 160af $rbp: .cfa -16 + ^ .cfa: $rsp 16 +
STACK CFI 160b2 .cfa: $rbp 16 +
STACK CFI 160d7 .cfa: $rsp 8 +
STACK CFI INIT 160d8 25 .cfa: $rsp 8 + .ra: .cfa -8 + ^
STACK CFI 160d9 $rbp: .cfa -16 + ^ .cfa: $rsp 16 +
STACK CFI 160dc .cfa: $rbp 16 +
STACK CFI 160fc .cfa: $rsp 8 +
STACK CFI INIT 160fd e .cfa: $rsp 8 + .ra: .cfa -8 + ^
STACK CFI 160fe $rbp: .cfa -16 + ^ .cfa: $rsp 16 +
STACK CFI 16101 .cfa: $rbp 16 +
STACK CFI 1610a .cfa: $rsp 8 +
STACK CFI INIT 1610c 5d .cfa: $rsp 8 + .ra: .cfa -8 + ^
STACK CFI 1610d $rbp: .cfa -16 + ^ .cfa: $rsp 16 +
STACK CFI 16110 .cfa: $rbp 16 +
STACK CFI 16168 .cfa: $rsp 8 +
STACK CFI INIT 1616a 1a .cfa: $rsp 8 + .ra: .cfa -8 + ^
STACK CFI 1616b $rbp: .cfa -16 + ^ .cfa: $rsp 16 +
STACK CFI 1616e .cfa: $rbp 16 +
STACK CFI 16183 .cfa: $rsp 8 +
STACK CFI INIT 16184 25 .cfa: $rsp 8 + .ra: .cfa -8 + ^
STACK CFI 16185 $rbp: .cfa -16 + ^ .cfa: $rsp 16 +
STACK CFI 16188 .cfa: $rbp 16 +
STACK CFI 161a8 .cfa: $rsp 8 +
STACK CFI INIT 161a9 47 .cfa: $rsp 8 + .ra: .cfa -8 + ^
STACK CFI 161aa $rbp: .cfa -16 + ^ .cfa: $rsp 16 +
STACK CFI 161ad .cfa: $rbp 16 +
STACK CFI 161b2 $rbx: .cfa -24 + ^
STACK CFI 161ef .cfa: $rsp 8 +
STACK CFI INIT 161f0 e .cfa: $rsp 8 + .ra: .cfa -8 + ^
STACK CFI 161f1 $rbp: .cfa -16 + ^ .cfa: $rsp 16 +
STACK CFI 161f4 .cfa: $rbp 16 +
STACK CFI 161fd .cfa: $rsp 8 +
STACK CFI INIT 161fe 5d .cfa: $rsp 8 + .ra: .cfa -8 + ^
STACK CFI 161ff $rbp: .cfa -16 + ^ .cfa: $rsp 16 +
STACK CFI 16202 .cfa: $rbp 16 +
STACK CFI 1625a .cfa: $rsp 8 +
STACK CFI INIT 1625c 77 .cfa: $rsp 8 + .ra: .cfa -8 + ^
STACK CFI 1625d $rbp: .cfa -16 + ^ .cfa: $rsp 16 +
STACK CFI 16260 .cfa: $rbp 16 +
STACK CFI 16265 $rbx: .cfa -24 + ^
STACK CFI 162d2 .cfa: $rsp 8 +
STACK CFI INIT 162d4 28 .cfa: $rsp 8 + .ra: .cfa -8 + ^
STACK CFI 162d5 $rbp: .cfa -16 + ^ .cfa: $rsp 16 +
STACK CFI 162d8 .cfa: $rbp 16 +
STACK CFI 162fb .cfa: $rsp 8 +
STACK CFI INIT 162fc 36 .cfa: $rsp 8 + .ra: .cfa -8 + ^
STACK CFI 162fd $rbp: .cfa -16 + ^ .cfa: $rsp 16 +
STACK CFI 16300 .cfa: $rbp 16 +
STACK CFI 16331 .cfa: $rsp 8 +
STACK CFI INIT 16332 37 .cfa: $rsp 8 + .ra: .cfa -8 + ^
STACK CFI 16333 $rbp: .cfa -16 + ^ .cfa: $rsp 16 +
STACK CFI 16336 .cfa: $rbp 16 +
STACK CFI 16368 .cfa: $rsp 8 +
STACK CFI INIT 1636a b .cfa: $rsp 8 + .ra: .cfa -8 + ^
